
dist\sensornode_development\debug\base-station.X.debug.elf:     file format elf32-tradlittlemips


Disassembly of section .config_BFC00BF0:

bfc00bf0 <__config_BFC00BF0>:
bfc00bf0:	ff ff ff cf                                         ....

Disassembly of section .config_BFC00BF4:

bfc00bf4 <__config_BFC00BF4>:
bfc00bf4:	99 ff fa ff                                         ....

Disassembly of section .config_BFC00BF8:

bfc00bf8 <__config_BFC00BF8>:
bfc00bf8:	79 5f 74 ff                                         y_t.

Disassembly of section .config_BFC00BFC:

bfc00bfc <__config_BFC00BFC>:
bfc00bfc:	fb ff ff 7f                                         ....

Disassembly of section .reset:

bfc00000 <_reset>:
        nop

#else

_reset:
        jal _startup
bfc00000:	0ff00002 	jal	bfc00008 <_startup>
        nop
bfc00004:	00000000 	nop

bfc00008 <_startup>:
        .ent _startup
_startup:
        ##################################################################
        # If entered because of an NMI, jump to the NMI handler.
        ##################################################################
        mfc0    k0,_CP0_STATUS
bfc00008:	401a6000 	mfc0	k0,c0_status
        ext     k0,k0,19,1              # Extract NMI bit
bfc0000c:	7f5a04c0 	ext	k0,k0,0x13,0x1
        beqz    k0,_no_nmi
bfc00010:	13400005 	beqz	k0,bfc00028 <_no_nmi>
        nop
bfc00014:	00000000 	nop
        la      k0,_nmi_handler
bfc00018:	3c1a9d00 	lui	k0,0x9d00
bfc0001c:	275a4c08 	addiu	k0,k0,19464
        jr      k0
bfc00020:	03400008 	jr	k0
        nop
bfc00024:	00000000 	nop

bfc00028 <_no_nmi>:
        ##################################################################
        # Initialize Stack Pointer
        #   _stack is initialized by the linker script to point to the
        #    starting location of the stack in DRM
        ##################################################################
        la      sp,_stack
bfc00028:	3c1da000 	lui	sp,0xa000
bfc0002c:	27bd1ff0 	addiu	sp,sp,8176
        ##################################################################
        # Initialize Global Pointer
        #   _gp is initialized by the linker script to point to "middle"
        #   of the small variables region
        ##################################################################
        la      gp,_gp
bfc00030:	3c1ca001 	lui	gp,0xa001
bfc00034:	279c81f0 	addiu	gp,gp,-32272
#endif /* (PIC32_SRS_SET_COUNT > 2) */

        ##################################################################
        # Call the "on reset" procedure
        ##################################################################
        la      t0,_on_reset
bfc00038:	3c089d00 	lui	t0,0x9d00
bfc0003c:	25084c88 	addiu	t0,t0,19592
        jalr    t0
bfc00040:	0100f809 	jalr	t0
        nop
bfc00044:	00000000 	nop

bfc00048 <_start_bss_init>:

        ##################################################################
        # Clear uninitialized data sections
        ##################################################################
_start_bss_init:
        la      t0,_bss_begin
bfc00048:	3c08a000 	lui	t0,0xa000
bfc0004c:	25080200 	addiu	t0,t0,512
        la      t1,_bss_end
bfc00050:	3c09a000 	lui	t1,0xa000
bfc00054:	25290244 	addiu	t1,t1,580
        b       _bss_check
bfc00058:	10000003 	b	bfc00068 <_bss_check>
        nop
bfc0005c:	00000000 	nop

bfc00060 <_bss_init>:

_bss_init:
        sw      zero,0x0(t0)
bfc00060:	ad000000 	sw	zero,0(t0)
        addu    t0,4
bfc00064:	25080004 	addiu	t0,t0,4

bfc00068 <_bss_check>:
_bss_check:
        bltu    t0,t1,_bss_init
bfc00068:	0109082b 	sltu	at,t0,t1
bfc0006c:	1420fffc 	bnez	at,bfc00060 <_bss_init>
        nop
bfc00070:	00000000 	nop
        # XC32 v2.10 and later provide the data-init code in a separate file
        # packaged with the compiler rather than the DFP. Use that init
        # code instead.
        #####################################################################
        .extern   __pic32_data_init
        la      t0, __pic32_data_init
bfc00074:	3c089d00 	lui	t0,0x9d00
bfc00078:	250844ac 	addiu	t0,t0,17580
        jalr    t0
bfc0007c:	0100f809 	jalr	t0
        nop
bfc00080:	00000000 	nop

        ##################################################################
        # If there are no RAM functions, skip the next section --
        # initializing bus matrix registers.
        ##################################################################
        la      t1,_ramfunc_begin
bfc00084:	3c090000 	lui	t1,0x0
bfc00088:	25290000 	addiu	t1,t1,0
        beqz    t1,_ramfunc_done
bfc0008c:	11200010 	beqz	t1,bfc000d0 <_ramfunc_done>
        nop
bfc00090:	00000000 	nop
#else /* Use BMX */
        ##################################################################
        # Initialize bus matrix registers if RAM functions exist in the
        # application
        ##################################################################
        la      t1,_bmxdkpba_address
bfc00094:	3c090000 	lui	t1,0x0
bfc00098:	25292000 	addiu	t1,t1,8192
        la      t2,BMXDKPBA
bfc0009c:	3c0abf88 	lui	t2,0xbf88
bfc000a0:	254a2010 	addiu	t2,t2,8208
        sw      t1,0(t2)
bfc000a4:	ad490000 	sw	t1,0(t2)
        la      t1,_bmxdudba_address
bfc000a8:	3c090000 	lui	t1,0x0
bfc000ac:	25292000 	addiu	t1,t1,8192
        la      t2,BMXDUDBA
bfc000b0:	3c0abf88 	lui	t2,0xbf88
bfc000b4:	254a2020 	addiu	t2,t2,8224
        sw      t1,0(t2)
bfc000b8:	ad490000 	sw	t1,0(t2)
        la      t1,_bmxdupba_address
bfc000bc:	3c090000 	lui	t1,0x0
bfc000c0:	25292000 	addiu	t1,t1,8192
        la      t2,BMXDUPBA
bfc000c4:	3c0abf88 	lui	t2,0xbf88
bfc000c8:	254a2030 	addiu	t2,t2,8240
        sw      t1,0(t2)
bfc000cc:	ad490000 	sw	t1,0(t2)

bfc000d0 <_ramfunc_done>:
        ##################################################################
        # Initialize CP0 registers
        ##################################################################
        # Initialize Count register
        ##################################################################
        mtc0    zero,_CP0_COUNT
bfc000d0:	40804800 	mtc0	zero,c0_count

        ##################################################################
        # Initialize Compare register
        ##################################################################
        li      t2,-1
bfc000d4:	240affff 	li	t2,-1
        mtc0    t2,_CP0_COMPARE
bfc000d8:	408a5800 	mtc0	t2,c0_compare

        ##################################################################
        # Ensure BEV set and Initialize EBase register
        ##################################################################
        li      t0, (1<<22)
bfc000dc:	3c080040 	lui	t0,0x40
        mfc0    t2,_CP0_STATUS
bfc000e0:	400a6000 	mfc0	t2,c0_status
        or      t2,t0,t2               # Set BEV bit 22
bfc000e4:	010a5025 	or	t2,t0,t2
        mtc0    t2,_CP0_STATUS
bfc000e8:	408a6000 	mtc0	t2,c0_status

        la      t1,_ebase_address
bfc000ec:	3c099d00 	lui	t1,0x9d00
bfc000f0:	25290000 	addiu	t1,t1,0
        ehb
bfc000f4:	000000c0 	ehb
        mtc0    t1,_CP0_EBASE
bfc000f8:	40897801 	mtc0	t1,c0_ebase
#endif /* USE_DEFAULT_PRISS_VALUE */
        
        ##################################################################
        # Initialize IntCtl/INTCON.VS register with _vector_spacing
        ##################################################################
        la      t1,_vector_spacing
bfc000fc:	3c090000 	lui	t1,0x0
bfc00100:	25290001 	addiu	t1,t1,1
#if defined(__PIC32MM) && defined(_INTCON_MVEC_MASK)
        ori     t2, t2, _INTCON_MVEC_MASK
#endif
        sw      t2, 0(t0)
#endif
        li      t2,0                    # Clear t2 and
bfc00104:	240a0000 	li	t2,0
        ins     t2,t1,5,5               # shift value to VS field
bfc00108:	7d2a4944 	ins	t2,t1,0x5,0x5
        mtc0    t2,_CP0_INTCTL
bfc0010c:	408a6001 	mtc0	t2,c0_intctl
        # Initialize CAUSE registers
        # - Enable counting of Count register <DC = 0>
        # - Use special exception vector <IV = 1>
        # - Clear pending software interrupts <IP1:IP0 = 0>
        ##################################################################
        li      t1,0x00800000
bfc00110:	3c090080 	lui	t1,0x80
        mtc0    t1,_CP0_CAUSE
bfc00114:	40896800 	mtc0	t1,c0_cause
        # - Exception level is normal <EXL = 0>
        # - Interrupts are disabled <IE = 0>
        # - DSPr2 ASE is enabled for devices that support it <MX = 1>
        # - FPU64 is enabled for devices that support it <CU1=1> & <FR=1>
        ##################################################################
        mfc0    t0,_CP0_CONFIG
bfc00118:	40088000 	mfc0	t0,c0_config
        ext     t1,t0,22,1              # Extract UDI from Config register
bfc0011c:	7d090580 	ext	t1,t0,0x16,0x1
        sll     t1,t1,17                # Move UDI to Status.CEE location
bfc00120:	00094c40 	sll	t1,t1,0x11
        mfc0    t0,_CP0_STATUS
bfc00124:	40086000 	mfc0	t0,c0_status
        and     t0,t0,0x00580000        # Preserve SR, NMI, and BEV
bfc00128:	3c010058 	lui	at,0x58
bfc0012c:	01014024 	and	t0,t0,at
#if defined(INIT_FPU64) || defined(__PIC32_HAS_FPU64)
        li      t2, 0x24000000          # Set the Status.CU1 and Status.FR bits to
        or      t0,t2,t0                # enable the FPU in FR64 mode
#endif

        or      t0,t1,t0                # Include Status.CEE (from UDI)
bfc00130:	01284025 	or	t0,t1,t0
        mtc0    t0,_CP0_STATUS
bfc00134:	40886000 	mtc0	t0,c0_status
                                        # FPU Control and Status
        li      t2,0x1000000            # FCSR: RM=0, FS=1, FO=0, FN=0
                                        # Enables: 0b00000 E=1, V=0, Z=0, O=0, U=0, I=0
        ctc1    t2, $31                 # High perf on denormal operands & tiny results
#endif
        ehb
bfc00138:	000000c0 	ehb

        ##################################################################
        # Call the "on bootstrap" procedure
        ##################################################################
        la      t0,_on_bootstrap
bfc0013c:	3c089d00 	lui	t0,0x9d00
bfc00140:	25084c90 	addiu	t0,t0,19600
        jalr    t0
bfc00144:	0100f809 	jalr	t0
        nop
bfc00148:	00000000 	nop

        ##################################################################
        # Initialize Status<BEV> for normal exception vectors
        ##################################################################
        mfc0    t0,_CP0_STATUS
bfc0014c:	40086000 	mfc0	t0,c0_status
        and     t0,t0,0xffbfffff        # Clear BEV
bfc00150:	3c01ffbf 	lui	at,0xffbf
bfc00154:	3421ffff 	ori	at,at,0xffff
bfc00158:	01014024 	and	t0,t0,at
        mtc0    t0,_CP0_STATUS
bfc0015c:	40886000 	mtc0	t0,c0_status
        # a normal jump and link can be used, enabling the startup code
        # to work properly whether main is written in MIPS16 or MIPS32
        # code. I.e., the linker will correctly adjust the JAL to JALX if
        # necessary
        ##################################################################
        and     a0,a0,0
bfc00160:	30840000 	andi	a0,a0,0x0
        and     a1,a1,0
bfc00164:	30a50000 	andi	a1,a1,0x0
        la      t0,_main_entry
bfc00168:	3c089d00 	lui	t0,0x9d00
bfc0016c:	25084900 	addiu	t0,t0,18688
        jr      t0
bfc00170:	01000008 	jr	t0
        nop
bfc00174:	00000000 	nop

Disassembly of section .bev_excpt:

bfc00380 <_bev_exception>:
        .section .bev_handler,code,keep
        .align 2
        .set noreorder
        .ent _bev_exception
_bev_exception:
        la        k0,_bootstrap_exception_handler
bfc00380:	3c1a9d00 	lui	k0,0x9d00
bfc00384:	275a499c 	addiu	k0,k0,18844
        jr        k0
bfc00388:	03400008 	jr	k0
        nop
bfc0038c:	00000000 	nop

Disassembly of section .app_excpt:

9d000180 <_gen_exception>:
        .section .gen_handler,code
        .align 2
        .set noreorder
        .ent _gen_exception
_gen_exception:
0:      la      k0,_general_exception_context
9d000180:	3c1a9d00 	lui	k0,0x9d00
9d000184:	275a32c0 	addiu	k0,k0,12992
        jr      k0
9d000188:	03400008 	jr	k0
        nop
9d00018c:	00000000 	nop

Disassembly of section .vector_0:

9d000200 <__vector_dispatch_0>:
9d000200:	0b40128b 	j	9d004a2c <_DefaultInterrupt>
9d000204:	00000000 	nop

Disassembly of section .vector_1:

9d000220 <__vector_dispatch_1>:
9d000220:	0b40128b 	j	9d004a2c <_DefaultInterrupt>
9d000224:	00000000 	nop

Disassembly of section .vector_2:

9d000240 <__vector_dispatch_2>:
9d000240:	0b40128b 	j	9d004a2c <_DefaultInterrupt>
9d000244:	00000000 	nop

Disassembly of section .vector_3:

9d000260 <__vector_dispatch_3>:
9d000260:	0b40128b 	j	9d004a2c <_DefaultInterrupt>
9d000264:	00000000 	nop

Disassembly of section .vector_4:

9d000280 <__vector_dispatch_4>:
9d000280:	0b400f2e 	j	9d003cb8 <timer1PeriodMatchISR>
9d000284:	00000000 	nop

Disassembly of section .vector_5:

9d0002a0 <__vector_dispatch_5>:
9d0002a0:	0b40128b 	j	9d004a2c <_DefaultInterrupt>
9d0002a4:	00000000 	nop

Disassembly of section .vector_6:

9d0002c0 <__vector_dispatch_6>:
9d0002c0:	0b40128b 	j	9d004a2c <_DefaultInterrupt>
9d0002c4:	00000000 	nop

Disassembly of section .vector_7:

9d0002e0 <__vector_dispatch_7>:
9d0002e0:	0b40128b 	j	9d004a2c <_DefaultInterrupt>
9d0002e4:	00000000 	nop

Disassembly of section .vector_8:

9d000300 <__vector_dispatch_8>:
9d000300:	0b400f55 	j	9d003d54 <timer2PeriodMatchISR>
9d000304:	00000000 	nop

Disassembly of section .vector_9:

9d000320 <__vector_dispatch_9>:
9d000320:	0b40128b 	j	9d004a2c <_DefaultInterrupt>
9d000324:	00000000 	nop

Disassembly of section .vector_10:

9d000340 <__vector_dispatch_10>:
9d000340:	0b40128b 	j	9d004a2c <_DefaultInterrupt>
9d000344:	00000000 	nop

Disassembly of section .vector_11:

9d000360 <__vector_dispatch_11>:
9d000360:	0b40128b 	j	9d004a2c <_DefaultInterrupt>
9d000364:	00000000 	nop

Disassembly of section .vector_12:

9d000380 <__vector_dispatch_12>:
9d000380:	0b40128b 	j	9d004a2c <_DefaultInterrupt>
9d000384:	00000000 	nop

Disassembly of section .vector_13:

9d0003a0 <__vector_dispatch_13>:
9d0003a0:	0b40128b 	j	9d004a2c <_DefaultInterrupt>
9d0003a4:	00000000 	nop

Disassembly of section .vector_14:

9d0003c0 <__vector_dispatch_14>:
9d0003c0:	0b40128b 	j	9d004a2c <_DefaultInterrupt>
9d0003c4:	00000000 	nop

Disassembly of section .vector_15:

9d0003e0 <__vector_dispatch_15>:
9d0003e0:	0b40128b 	j	9d004a2c <_DefaultInterrupt>
9d0003e4:	00000000 	nop

Disassembly of section .vector_16:

9d000400 <__vector_dispatch_16>:
9d000400:	0b40128b 	j	9d004a2c <_DefaultInterrupt>
9d000404:	00000000 	nop

Disassembly of section .vector_17:

9d000420 <__vector_dispatch_17>:
9d000420:	0b40128b 	j	9d004a2c <_DefaultInterrupt>
9d000424:	00000000 	nop

Disassembly of section .vector_18:

9d000440 <__vector_dispatch_18>:
9d000440:	0b40128b 	j	9d004a2c <_DefaultInterrupt>
9d000444:	00000000 	nop

Disassembly of section .vector_19:

9d000460 <__vector_dispatch_19>:
9d000460:	0b400f7c 	j	9d003df0 <int4ISR>
9d000464:	00000000 	nop

Disassembly of section .vector_20:

9d000480 <__vector_dispatch_20>:
9d000480:	0b40128b 	j	9d004a2c <_DefaultInterrupt>
9d000484:	00000000 	nop

Disassembly of section .vector_21:

9d0004a0 <__vector_dispatch_21>:
9d0004a0:	0b40128b 	j	9d004a2c <_DefaultInterrupt>
9d0004a4:	00000000 	nop

Disassembly of section .vector_22:

9d0004c0 <__vector_dispatch_22>:
9d0004c0:	0b40128b 	j	9d004a2c <_DefaultInterrupt>
9d0004c4:	00000000 	nop

Disassembly of section .vector_23:

9d0004e0 <__vector_dispatch_23>:
9d0004e0:	0b40128b 	j	9d004a2c <_DefaultInterrupt>
9d0004e4:	00000000 	nop

Disassembly of section .vector_24:

9d000500 <__vector_dispatch_24>:
9d000500:	0b40128b 	j	9d004a2c <_DefaultInterrupt>
9d000504:	00000000 	nop

Disassembly of section .vector_25:

9d000520 <__vector_dispatch_25>:
9d000520:	0b400fa3 	j	9d003e8c <rtccAlarmISR>
9d000524:	00000000 	nop

Disassembly of section .vector_26:

9d000540 <__vector_dispatch_26>:
9d000540:	0b40128b 	j	9d004a2c <_DefaultInterrupt>
9d000544:	00000000 	nop

Disassembly of section .vector_27:

9d000560 <__vector_dispatch_27>:
9d000560:	0b40128b 	j	9d004a2c <_DefaultInterrupt>
9d000564:	00000000 	nop

Disassembly of section .vector_28:

9d000580 <__vector_dispatch_28>:
9d000580:	0b40128b 	j	9d004a2c <_DefaultInterrupt>
9d000584:	00000000 	nop

Disassembly of section .vector_29:

9d0005a0 <__vector_dispatch_29>:
9d0005a0:	0b40128b 	j	9d004a2c <_DefaultInterrupt>
9d0005a4:	00000000 	nop

Disassembly of section .vector_30:

9d0005c0 <__vector_dispatch_30>:
9d0005c0:	0b40128b 	j	9d004a2c <_DefaultInterrupt>
9d0005c4:	00000000 	nop

Disassembly of section .vector_31:

9d0005e0 <__vector_dispatch_31>:
9d0005e0:	0b40128b 	j	9d004a2c <_DefaultInterrupt>
9d0005e4:	00000000 	nop

Disassembly of section .vector_32:

9d000600 <__vector_dispatch_32>:
9d000600:	0b40128b 	j	9d004a2c <_DefaultInterrupt>
9d000604:	00000000 	nop

Disassembly of section .vector_33:

9d000620 <__vector_dispatch_33>:
9d000620:	0b40128b 	j	9d004a2c <_DefaultInterrupt>
9d000624:	00000000 	nop

Disassembly of section .vector_34:

9d000640 <__vector_dispatch_34>:
9d000640:	0b401018 	j	9d004060 <portChangeNoticeISR>
9d000644:	00000000 	nop

Disassembly of section .vector_35:

9d000660 <__vector_dispatch_35>:
9d000660:	0b40128b 	j	9d004a2c <_DefaultInterrupt>
9d000664:	00000000 	nop

Disassembly of section .vector_36:

9d000680 <__vector_dispatch_36>:
9d000680:	0b40128b 	j	9d004a2c <_DefaultInterrupt>
9d000684:	00000000 	nop

Disassembly of section .vector_37:

9d0006a0 <__vector_dispatch_37>:
9d0006a0:	0b40128b 	j	9d004a2c <_DefaultInterrupt>
9d0006a4:	00000000 	nop

Disassembly of section .vector_38:

9d0006c0 <__vector_dispatch_38>:
9d0006c0:	0b40128b 	j	9d004a2c <_DefaultInterrupt>
9d0006c4:	00000000 	nop

Disassembly of section .vector_39:

9d0006e0 <__vector_dispatch_39>:
9d0006e0:	0b40128b 	j	9d004a2c <_DefaultInterrupt>
9d0006e4:	00000000 	nop

Disassembly of section .vector_40:

9d000700 <__vector_dispatch_40>:
9d000700:	0b40128b 	j	9d004a2c <_DefaultInterrupt>
9d000704:	00000000 	nop

Disassembly of section .vector_41:

9d000720 <__vector_dispatch_41>:
9d000720:	0b40128b 	j	9d004a2c <_DefaultInterrupt>
9d000724:	00000000 	nop

Disassembly of section .vector_42:

9d000740 <__vector_dispatch_42>:
9d000740:	0b400e35 	j	9d0038d4 <dma2ISR>
9d000744:	00000000 	nop

Disassembly of section .vector_43:

9d000760 <__vector_dispatch_43>:
9d000760:	0b40128b 	j	9d004a2c <_DefaultInterrupt>
9d000764:	00000000 	nop

Disassembly of section .thread_handlers:

9d000780 <sensorStartMeasurements>:
 *  Sensor Thread  *
 *******************/

//Start Measurements Function, instructs the sensors to begin new measurements
void sensorStartMeasurements()
{
9d000780:	27bdffe8 	addiu	sp,sp,-24
9d000784:	afbf0014 	sw	ra,20(sp)
9d000788:	afbe0010 	sw	s8,16(sp)
9d00078c:	03a0f025 	move	s8,sp
    requestMeasurementSHT4X(HIGH_PRECISION_NO_HEATER);  //Ask the SHT4x sensor to start a new temperature and humidity measurement
9d000790:	240400fd 	li	a0,253
9d000794:	0f4012bf 	jal	9d004afc <requestMeasurementSHT4X>
9d000798:	00000000 	nop
    setModeDPS368(CONT_BOTH);                           //Start background measurements of both pressure and temperature on the DPS368 sensor
9d00079c:	24040007 	li	a0,7
9d0007a0:	0f401210 	jal	9d004840 <setModeDPS368>
9d0007a4:	00000000 	nop

    LATBSET = 0x00000400;  //Turn on the status LED to indicate the measurement process has started
9d0007a8:	3c02bf88 	lui	v0,0xbf88
9d0007ac:	24030400 	li	v1,1024
9d0007b0:	ac436138 	sw	v1,24888(v0)

    sensorThreadState = SENSOR_GET_PRESSURE;  //Next state of the thread is SENSOR_GET_TEMPERATURE
9d0007b4:	24020002 	li	v0,2
9d0007b8:	af828038 	sw	v0,-32712(gp)
}
9d0007bc:	00000000 	nop
9d0007c0:	03c0e825 	move	sp,s8
9d0007c4:	8fbf0014 	lw	ra,20(sp)
9d0007c8:	8fbe0010 	lw	s8,16(sp)
9d0007cc:	27bd0018 	addiu	sp,sp,24
9d0007d0:	03e00008 	jr	ra
9d0007d4:	00000000 	nop

9d0007d8 <sensorGetPressure>:

//Get Measurements Function, attempts to read the new measurement data from the sensors
void sensorGetPressure()
{
9d0007d8:	27bdffe0 	addiu	sp,sp,-32
9d0007dc:	afbf001c 	sw	ra,28(sp)
9d0007e0:	afbe0018 	sw	s8,24(sp)
9d0007e4:	03a0f025 	move	s8,sp
    if (getResultStatusDPS368() != BOTH_READY) return;  //Leave if the results from the barometric pressure sensor aren't ready yet
9d0007e8:	0f4011dc 	jal	9d004770 <getResultStatusDPS368>
9d0007ec:	00000000 	nop
9d0007f0:	00401825 	move	v1,v0
9d0007f4:	24020003 	li	v0,3
9d0007f8:	14620014 	bne	v1,v0,9d00084c <sensorGetPressure+0x74>
9d0007fc:	00000000 	nop

    uint32_t resultBuffer[0x00000002];                   //Create an array of 2 32-bit unsigned integers to use for caching the results obtained from the sensors
    setModeDPS368(IDLE);                                 //Put the DPS368 sensor back into IDLE mode to save power
9d000800:	00002025 	move	a0,zero
9d000804:	0f401210 	jal	9d004840 <setModeDPS368>
9d000808:	00000000 	nop
    getResultsFromFifoDPS368(resultBuffer, 0x00000002);  //Read both the temperature and pressure data from the sensor into resultBuffer
9d00080c:	24050002 	li	a1,2
9d000810:	27c20010 	addiu	v0,s8,16
9d000814:	00402025 	move	a0,v0
9d000818:	0f40129d 	jal	9d004a74 <getResultsFromFifoDPS368>
9d00081c:	00000000 	nop

    mostRecentPres = convertToPressureFromDPS368(*resultBuffer, *(resultBuffer + 0x00000001));  //Convert the raw sensor data into the compensated barometric pressure in Pascal
9d000820:	8fc20010 	lw	v0,16(s8)
9d000824:	8fc30014 	lw	v1,20(s8)
9d000828:	00602825 	move	a1,v1
9d00082c:	00402025 	move	a0,v0
9d000830:	0f40059f 	jal	9d00167c <convertToPressureFromDPS368>
9d000834:	00000000 	nop
9d000838:	af828048 	sw	v0,-32696(gp)

    sensorThreadState = SENSOR_GET_TEMPERATURE;  //Next state of the thread is SENSOR_GET_TEMPERATURE
9d00083c:	24020003 	li	v0,3
9d000840:	af828038 	sw	v0,-32712(gp)
9d000844:	10000002 	b	9d000850 <sensorGetPressure+0x78>
9d000848:	00000000 	nop
    if (getResultStatusDPS368() != BOTH_READY) return;  //Leave if the results from the barometric pressure sensor aren't ready yet
9d00084c:	00000000 	nop
}
9d000850:	03c0e825 	move	sp,s8
9d000854:	8fbf001c 	lw	ra,28(sp)
9d000858:	8fbe0018 	lw	s8,24(sp)
9d00085c:	27bd0020 	addiu	sp,sp,32
9d000860:	03e00008 	jr	ra
9d000864:	00000000 	nop

9d000868 <sensorGetTemperature>:

//Get Temperature Function, attempts to read the new measurement data from the temperature and humidity sensor
void sensorGetTemperature()
{
9d000868:	27bdffe0 	addiu	sp,sp,-32
9d00086c:	afbf001c 	sw	ra,28(sp)
9d000870:	afbe0018 	sw	s8,24(sp)
9d000874:	03a0f025 	move	s8,sp
    uint32_t resultBuffer[0x00000002];

    if (!getResultsSHT4X((uint16_t *) resultBuffer, (uint16_t *) (resultBuffer + 0x00000001))) return;  //Try to get the temperature and humidity data from the sensor, leaving upon failure
9d000878:	27c20014 	addiu	v0,s8,20
9d00087c:	00402825 	move	a1,v0
9d000880:	27c20010 	addiu	v0,s8,16
9d000884:	00402025 	move	a0,v0
9d000888:	0f400db2 	jal	9d0036c8 <getResultsSHT4X>
9d00088c:	00000000 	nop
9d000890:	10400019 	beqz	v0,9d0008f8 <sensorGetTemperature+0x90>

    mostRecentTemp = convertToTempCFromSHT4X((uint16_t *) resultBuffer);            //Convert the raw temperature data into it's compensated form in Celsius
9d000894:	00000000 	nop
9d000898:	27c20010 	addiu	v0,s8,16
9d00089c:	00402025 	move	a0,v0
9d0008a0:	0f4010a7 	jal	9d00429c <convertToTempCFromSHT4X>
9d0008a4:	00000000 	nop
9d0008a8:	af828040 	sw	v0,-32704(gp)
    mostRecentRH = convertToRHFromSHT4X((uint16_t *) (resultBuffer + 0x00000001));  //Convert the raw humidity data into it's compensated form as a percentage
9d0008ac:	27c20014 	addiu	v0,s8,20
9d0008b0:	00402025 	move	a0,v0
9d0008b4:	0f400ce7 	jal	9d00339c <convertToRHFromSHT4X>
9d0008b8:	00000000 	nop
9d0008bc:	af828044 	sw	v0,-32700(gp)

    //Reset the RTC now that the measurements have been collected
    RTCDATE = 0x00000000;  //Reset the date value back to 0
9d0008c0:	3c02bf80 	lui	v0,0xbf80
9d0008c4:	ac400230 	sw	zero,560(v0)
    RTCTIME = 0x00000000;  //Reset the time value back to 0
9d0008c8:	3c02bf80 	lui	v0,0xbf80
9d0008cc:	ac400220 	sw	zero,544(v0)
    RTCALRM = 0x00008600;  //Setup a single alarm to occur at the pre-set interval
9d0008d0:	3c02bf80 	lui	v0,0xbf80
9d0008d4:	34038600 	li	v1,0x8600
9d0008d8:	ac430210 	sw	v1,528(v0)
    RTCCON = 0x0000A248;   //Enable the RTCC and start counting
9d0008dc:	3c02bf80 	lui	v0,0xbf80
9d0008e0:	3403a248 	li	v1,0xa248
9d0008e4:	ac430200 	sw	v1,512(v0)

    sensorThreadState = SENSOR_REPORT_MEASUREMENTS;  //Next state of the thread is SENSOR_REPORT_MEASUREMENTS
9d0008e8:	24020004 	li	v0,4
9d0008ec:	af828038 	sw	v0,-32712(gp)
9d0008f0:	10000002 	b	9d0008fc <sensorGetTemperature+0x94>
9d0008f4:	00000000 	nop
    if (!getResultsSHT4X((uint16_t *) resultBuffer, (uint16_t *) (resultBuffer + 0x00000001))) return;  //Try to get the temperature and humidity data from the sensor, leaving upon failure
9d0008f8:	00000000 	nop
}
9d0008fc:	03c0e825 	move	sp,s8
9d000900:	8fbf001c 	lw	ra,28(sp)
9d000904:	8fbe0018 	lw	s8,24(sp)
9d000908:	27bd0020 	addiu	sp,sp,32
9d00090c:	03e00008 	jr	ra
9d000910:	00000000 	nop

9d000914 <sensorReportMeasurements>:

//Report Measurements Function, prepares the obtained measurements and then sends them over the air
void sensorReportMeasurements()
{
9d000914:	27bdffe0 	addiu	sp,sp,-32
9d000918:	afbf001c 	sw	ra,28(sp)
9d00091c:	afbe0018 	sw	s8,24(sp)
9d000920:	03a0f025 	move	s8,sp
    LATBSET = 0x00000400;
9d000924:	3c02bf88 	lui	v0,0xbf88
9d000928:	24030400 	li	v1,1024
9d00092c:	ac436138 	sw	v1,24888(v0)
#ifdef __BUILD_DEVELOPMENT__
    uint32_t stringLength;                    //Create a new variable to use for storing the size of constructed log strings

    stringLength = constructMeasurementLog((uint8_t *) dmaBufferTxUART, &mostRecentTemp, &mostRecentRH, &mostRecentPres);  //Construct a new measurement report log and store it in dmaBufferTxUART
9d000930:	27878048 	addiu	a3,gp,-32696
9d000934:	27868044 	addiu	a2,gp,-32700
9d000938:	27858040 	addiu	a1,gp,-32704
9d00093c:	3c02a000 	lui	v0,0xa000
9d000940:	0f400444 	jal	9d001110 <constructMeasurementLog>
9d000944:	24440288 	addiu	a0,v0,648
9d000948:	afc20010 	sw	v0,16(s8)
    startTxUART((uint8_t *) dmaBufferTxUART, &stringLength);                                                               //Start the transmission of the log message over UART
9d00094c:	27c20010 	addiu	v0,s8,16
9d000950:	00402825 	move	a1,v0
9d000954:	3c02a000 	lui	v0,0xa000
9d000958:	0f4011f7 	jal	9d0047dc <startTxUART>
9d00095c:	24440288 	addiu	a0,v0,648

    while (DCH2CON & 0x00008000) asm volatile ("wait");  //Keep the CPU in idle mode until DMA 2 is done writing to UART 2 before down-clocking the CPU
9d000960:	10000002 	b	9d00096c <sensorReportMeasurements+0x58>
9d000964:	00000000 	nop
9d000968:	42000020 	wait
9d00096c:	3c02bf88 	lui	v0,0xbf88
9d000970:	8c4231e0 	lw	v0,12768(v0)
9d000974:	30428000 	andi	v0,v0,0x8000
9d000978:	1440fffb 	bnez	v0,9d000968 <sensorReportMeasurements+0x54>
9d00097c:	00000000 	nop
    while (!(U2STA & 0x00000100));                       //Wait until the transmission has completed fully before we down-clock the CPU
9d000980:	00000000 	nop
9d000984:	3c02bf80 	lui	v0,0xbf80
9d000988:	8c426210 	lw	v0,25104(v0)
9d00098c:	30420100 	andi	v0,v0,0x100
9d000990:	1040fffc 	beqz	v0,9d000984 <sensorReportMeasurements+0x70>
9d000994:	00000000 	nop
#ifdef __IS_BASESTATION__
    sensorThreadState = SENSOR_SLEEP;  //Next state of the thread is SENSOR_SLEEP
#endif
#ifdef __IS_SENSORNODE__
    //Check to see if the radio is not busy
    if (radioThreadState == RADIO_SLEEP)
9d000998:	8f82803c 	lw	v0,-32708(gp)
9d00099c:	14400011 	bnez	v0,9d0009e4 <sensorReportMeasurements+0xd0>
9d0009a0:	00000000 	nop
    {
        LATBCLR = 0x00000400;
9d0009a4:	3c02bf88 	lui	v0,0xbf88
9d0009a8:	24030400 	li	v1,1024
9d0009ac:	ac436134 	sw	v1,24884(v0)

        newMeasureReportPacket((packetMeasureReport_t *) txBuffer,                //Create a new measurement report packet using the newly obtained measurements storing it in txBuffer
9d0009b0:	27878048 	addiu	a3,gp,-32696
9d0009b4:	27868044 	addiu	a2,gp,-32700
9d0009b8:	27858040 	addiu	a1,gp,-32704
9d0009bc:	3c02a000 	lui	v0,0xa000
9d0009c0:	0f400b52 	jal	9d002d48 <newMeasureReportPacket>
9d0009c4:	24440388 	addiu	a0,v0,904
                               &mostRecentTemp, &mostRecentRH, &mostRecentPres);

        TMR1 = 0x00000000;                  //Clear the Timer 1 counter, instructs the thread to enter listen mode during RX periods
9d0009c8:	3c02bf80 	lui	v0,0xbf80
9d0009cc:	ac400610 	sw	zero,1552(v0)
        txAttempts = 0x00000003;            //Allow a maximum of 3 attempts to send the packet before giving up and going back to sleep
9d0009d0:	24020003 	li	v0,3
9d0009d4:	af82804c 	sw	v0,-32692(gp)
        radioThreadState = RADIO_START_TX;  //Request that the radio start sending the new packet
9d0009d8:	24020005 	li	v0,5
9d0009dc:	af82803c 	sw	v0,-32708(gp)

        sensorThreadState = SENSOR_SLEEP;  //Next state of the thread is SENSOR_SLEEP
9d0009e0:	af808038 	sw	zero,-32712(gp)
    }
#endif
}
9d0009e4:	00000000 	nop
9d0009e8:	03c0e825 	move	sp,s8
9d0009ec:	8fbf001c 	lw	ra,28(sp)
9d0009f0:	8fbe0018 	lw	s8,24(sp)
9d0009f4:	27bd0020 	addiu	sp,sp,32
9d0009f8:	03e00008 	jr	ra
9d0009fc:	00000000 	nop

9d000a00 <sensorMeasureFail>:

//Measure Fail Function, handles any exceptions that occur when collecting measurements from the sensors
void sensorMeasureFail()
{
9d000a00:	27bdfff8 	addiu	sp,sp,-8
9d000a04:	afbe0004 	sw	s8,4(sp)
9d000a08:	03a0f025 	move	s8,sp
    //Do something

    sensorThreadState = SENSOR_SLEEP;  //Next state of the thread is SENSOR_SLEEP
9d000a0c:	af808038 	sw	zero,-32712(gp)
}
9d000a10:	00000000 	nop
9d000a14:	03c0e825 	move	sp,s8
9d000a18:	8fbe0004 	lw	s8,4(sp)
9d000a1c:	27bd0008 	addiu	sp,sp,8
9d000a20:	03e00008 	jr	ra
9d000a24:	00000000 	nop

9d000a28 <radioProcessInterrupts>:
 *  Radio Thread  *
 ******************/

//Process Interrupt Function, handles interrupt assertions placed by the radio
void radioProcessInterrupts()
{
9d000a28:	27bdffe0 	addiu	sp,sp,-32
9d000a2c:	afbf001c 	sw	ra,28(sp)
9d000a30:	afbe0018 	sw	s8,24(sp)
9d000a34:	03a0f025 	move	s8,sp
    uint8_t radioIRQdata = 0x00;                                                             //Create a new variable to use for putting the IRQ bits obtained from the radio into
9d000a38:	a3c00010 	sb	zero,16(s8)
    interactWithRegistersSX1231H(REGADDR_IRQFLAGS2, &radioIRQdata, 0x00000001, 0xFFFFFFFF);  //Read the IRQ bits from the IrqFlags2 register on the radio
9d000a3c:	2407ffff 	li	a3,-1
9d000a40:	24060001 	li	a2,1
9d000a44:	27c20010 	addiu	v0,s8,16
9d000a48:	00402825 	move	a1,v0
9d000a4c:	24040028 	li	a0,40
9d000a50:	0f400aa2 	jal	9d002a88 <interactWithRegistersSX1231H>
9d000a54:	00000000 	nop

    //Check if the PacketSent flag is set
    if (radioIRQdata & 0x00000008)
9d000a58:	93c20010 	lbu	v0,16(s8)
9d000a5c:	30420008 	andi	v0,v0,0x8
9d000a60:	10400015 	beqz	v0,9d000ab8 <radioProcessInterrupts+0x90>
9d000a64:	00000000 	nop
    {
        LATACLR = 0x00000002;
9d000a68:	3c02bf88 	lui	v0,0xbf88
9d000a6c:	24030002 	li	v1,2
9d000a70:	ac436034 	sw	v1,24628(v0)

        setDeviceModeSX1231H(SLEEP);
9d000a74:	00002025 	move	a0,zero
9d000a78:	0f401167 	jal	9d00459c <setDeviceModeSX1231H>
9d000a7c:	00000000 	nop

        //Determine if a receive window is supposed to follow the transmission
        if (txAttempts == 0xFFFFFFFF)
9d000a80:	8f83804c 	lw	v1,-32692(gp)
9d000a84:	2402ffff 	li	v0,-1
9d000a88:	14620005 	bne	v1,v0,9d000aa0 <radioProcessInterrupts+0x78>
9d000a8c:	00000000 	nop
        {
            txAttempts = 0x00000000;         //Reset the txAttempts counter back to 0
9d000a90:	af80804c 	sw	zero,-32692(gp)
            radioThreadState = RADIO_SLEEP;  //Next state of the thread is RADIO_SLEEP
9d000a94:	af80803c 	sw	zero,-32708(gp)
        {
            TMR1 = 0x00000000;                  //Set the Timer 1 counter to 0, requests that the listen mode becomes active
            radioThreadState = RADIO_START_RX;  //Next state of the thread is RADIO_START_RX
        }

        return;  //Leave, we're done here now
9d000a98:	10000033 	b	9d000b68 <radioProcessInterrupts+0x140>
9d000a9c:	00000000 	nop
            TMR1 = 0x00000000;                  //Set the Timer 1 counter to 0, requests that the listen mode becomes active
9d000aa0:	3c02bf80 	lui	v0,0xbf80
9d000aa4:	ac400610 	sw	zero,1552(v0)
            radioThreadState = RADIO_START_RX;  //Next state of the thread is RADIO_START_RX
9d000aa8:	24020006 	li	v0,6
9d000aac:	af82803c 	sw	v0,-32708(gp)
        return;  //Leave, we're done here now
9d000ab0:	1000002d 	b	9d000b68 <radioProcessInterrupts+0x140>
9d000ab4:	00000000 	nop
    }

    //Check if the PayloadReady flag is set
    if (radioIRQdata & 0x00000004)
9d000ab8:	93c20010 	lbu	v0,16(s8)
9d000abc:	30420004 	andi	v0,v0,0x4
9d000ac0:	10400008 	beqz	v0,9d000ae4 <radioProcessInterrupts+0xbc>
9d000ac4:	00000000 	nop
    {
        setDeviceModeSX1231H(SLEEP);  //Put the radio to sleep now that a packet has been received
9d000ac8:	00002025 	move	a0,zero
9d000acc:	0f401167 	jal	9d00459c <setDeviceModeSX1231H>
9d000ad0:	00000000 	nop

        radioThreadState = RADIO_RECEIVE_PACKET;  //Next state of the thread is RADIO_RECEIVE_PACKET
9d000ad4:	24020009 	li	v0,9
9d000ad8:	af82803c 	sw	v0,-32708(gp)
        return;                                     //Leave, we're done here now
9d000adc:	10000022 	b	9d000b68 <radioProcessInterrupts+0x140>
9d000ae0:	00000000 	nop
    }

    interactWithRegistersSX1231H(REGADDR_IRQFLAGS1, &radioIRQdata, 0x00000001, 0xFFFFFFFF);  //Read the IRQ bits from the IrqFlags1 register on the radio
9d000ae4:	2407ffff 	li	a3,-1
9d000ae8:	24060001 	li	a2,1
9d000aec:	27c20010 	addiu	v0,s8,16
9d000af0:	00402825 	move	a1,v0
9d000af4:	24040027 	li	a0,39
9d000af8:	0f400aa2 	jal	9d002a88 <interactWithRegistersSX1231H>
9d000afc:	00000000 	nop

    //Check if the SyncAddressMatch flag is set
    if (radioIRQdata & 0x00000001)
9d000b00:	93c20010 	lbu	v0,16(s8)
9d000b04:	30420001 	andi	v0,v0,0x1
9d000b08:	10400016 	beqz	v0,9d000b64 <radioProcessInterrupts+0x13c>
9d000b0c:	00000000 	nop
    {
        LATASET = 0x00000002;
9d000b10:	3c02bf88 	lui	v0,0xbf88
9d000b14:	24030002 	li	v1,2
9d000b18:	ac436038 	sw	v1,24632(v0)

        mostRecentRSSI = getRssiSX1231H();  //Record the current RSSI of the detected signal as we can not capture this after the payload is ready
9d000b1c:	0f4011c0 	jal	9d004700 <getRssiSX1231H>
9d000b20:	00000000 	nop
9d000b24:	af828050 	sw	v0,-32688(gp)
        setDIOMappingsSX1231H(0x00000100);  //Make GPIO0 of the transceiver IC output the PayloadReady interrupt signal
9d000b28:	24040100 	li	a0,256
9d000b2c:	0f4010e9 	jal	9d0043a4 <setDIOMappingsSX1231H>
9d000b30:	00000000 	nop

        TMR2 = 0x00000000;      //Clear the Timer 2 count register
9d000b34:	3c02bf80 	lui	v0,0xbf80
9d000b38:	ac400810 	sw	zero,2064(v0)
        T1CONCLR = 0x00008000;  //Stop Timer 1 while attempting to receive a new packet
9d000b3c:	3c02bf80 	lui	v0,0xbf80
9d000b40:	34038000 	li	v1,0x8000
9d000b44:	ac430604 	sw	v1,1540(v0)
        T2CONSET = 0x00008000;  //Start Timer 2 to act as a time-out generator in the event that no packet is actually received
9d000b48:	3c02bf80 	lui	v0,0xbf80
9d000b4c:	34038000 	li	v1,0x8000
9d000b50:	ac430808 	sw	v1,2056(v0)

        radioThreadState = RADIO_IDLE;  //Next state of the thread is RADIO_IDLE
9d000b54:	24020003 	li	v0,3
9d000b58:	af82803c 	sw	v0,-32708(gp)
        return;                         //Leave, we're done here now
9d000b5c:	10000002 	b	9d000b68 <radioProcessInterrupts+0x140>
9d000b60:	00000000 	nop
    }

    radioThreadState = RADIO_SLEEP;  //Next state of the thread is RADIO_SLEEP by default
9d000b64:	af80803c 	sw	zero,-32708(gp)
}
9d000b68:	03c0e825 	move	sp,s8
9d000b6c:	8fbf001c 	lw	ra,28(sp)
9d000b70:	8fbe0018 	lw	s8,24(sp)
9d000b74:	27bd0020 	addiu	sp,sp,32
9d000b78:	03e00008 	jr	ra
9d000b7c:	00000000 	nop

9d000b80 <radioStartRX>:
    radioThreadState = RADIO_SLEEP_TX;  //Next state of the thread is RADIO_SLEEP_TX
}

//Start RX Function, puts the radio into receive mode and prepares for packet reception
void radioStartRX()
{
9d000b80:	27bdffe8 	addiu	sp,sp,-24
9d000b84:	afbf0014 	sw	ra,20(sp)
9d000b88:	afbe0010 	sw	s8,16(sp)
9d000b8c:	03a0f025 	move	s8,sp
    setPowerLevelSX1231H(0x00000000);           //Set the power level of the radio to 0, required before entering RX mode to prevent damage
9d000b90:	00002025 	move	a0,zero
9d000b94:	0f400afb 	jal	9d002bec <setPowerLevelSX1231H>
9d000b98:	00000000 	nop
    setDeviceModeSX1231H(STBY);                 //Put the radio into standby mode, ensures that the FIFO gets cleared
9d000b9c:	24040001 	li	a0,1
9d000ba0:	0f401167 	jal	9d00459c <setDeviceModeSX1231H>
9d000ba4:	00000000 	nop
    setAutoModeSX1231H(NONE, NONE, INT_SLEEP);  //Turn off auto-modes on the radio, we want full control of it during receive mode
9d000ba8:	00003025 	move	a2,zero
9d000bac:	00002825 	move	a1,zero
9d000bb0:	00002025 	move	a0,zero
9d000bb4:	0f400eb5 	jal	9d003ad4 <setAutoModeSX1231H>
9d000bb8:	00000000 	nop
    setDIOMappingsSX1231H(0x00000200);          //Make GPIO0 of the transceiver IC output the SyncAddress interrupt signal
9d000bbc:	24040200 	li	a0,512
9d000bc0:	0f4010e9 	jal	9d0043a4 <setDIOMappingsSX1231H>
9d000bc4:	00000000 	nop
    setDeviceModeSX1231H(RX);                   //Put the radio into the receive mode, also clears the FIFO buffer
9d000bc8:	24040004 	li	a0,4
9d000bcc:	0f401167 	jal	9d00459c <setDeviceModeSX1231H>
9d000bd0:	00000000 	nop

    //Check if the listen timer needs to be started
    if (!TMR1)
9d000bd4:	3c02bf80 	lui	v0,0xbf80
9d000bd8:	8c420610 	lw	v0,1552(v0)
9d000bdc:	14400004 	bnez	v0,9d000bf0 <radioStartRX+0x70>
9d000be0:	00000000 	nop
    {
        T1CONSET = 0x00008000;  //Start Timer 1
9d000be4:	3c02bf80 	lui	v0,0xbf80
9d000be8:	34038000 	li	v1,0x8000
9d000bec:	ac430608 	sw	v1,1544(v0)
    }

    LATASET = 0x00000001;
9d000bf0:	3c02bf88 	lui	v0,0xbf88
9d000bf4:	24030001 	li	v1,1
9d000bf8:	ac436038 	sw	v1,24632(v0)

    radioThreadState = RADIO_SLEEP_RX;  //Next state of the thread is RADIO_SLEEP_RX
9d000bfc:	24020002 	li	v0,2
9d000c00:	af82803c 	sw	v0,-32708(gp)
}
9d000c04:	00000000 	nop
9d000c08:	03c0e825 	move	sp,s8
9d000c0c:	8fbf0014 	lw	ra,20(sp)
9d000c10:	8fbe0010 	lw	s8,16(sp)
9d000c14:	27bd0018 	addiu	sp,sp,24
9d000c18:	03e00008 	jr	ra
9d000c1c:	00000000 	nop

9d000c20 <radioStartTX>:
{
9d000c20:	27bdffe8 	addiu	sp,sp,-24
9d000c24:	afbf0014 	sw	ra,20(sp)
9d000c28:	afbe0010 	sw	s8,16(sp)
9d000c2c:	03a0f025 	move	s8,sp
    LATASET = 0x00000002;
9d000c30:	3c02bf88 	lui	v0,0xbf88
9d000c34:	24030002 	li	v1,2
9d000c38:	ac436038 	sw	v1,24632(v0)
    setDeviceModeSX1231H(SLEEP);        //Put the radio into sleep mode, ensures that the FIFO gets cleared
9d000c3c:	00002025 	move	a0,zero
9d000c40:	0f401167 	jal	9d00459c <setDeviceModeSX1231H>
9d000c44:	00000000 	nop
    setDIOMappingsSX1231H(0x00000000);  //Make GPIO0 of the transceiver IC output the PacketSent interrupt signal
9d000c48:	00002025 	move	a0,zero
9d000c4c:	0f4010e9 	jal	9d0043a4 <setDIOMappingsSX1231H>
9d000c50:	00000000 	nop
    setPowerLevelSX1231H(0x00000010);   //Do the transmission at something dBm idk what power-level it is lol
9d000c54:	24040010 	li	a0,16
9d000c58:	0f400afb 	jal	9d002bec <setPowerLevelSX1231H>
9d000c5c:	00000000 	nop
    writePacketSX1231H(txBuffer, ((packetHeader_t *) txBuffer)->length);  //Write the packet to the radio FIFO
9d000c60:	3c02a000 	lui	v0,0xa000
9d000c64:	24420388 	addiu	v0,v0,904
9d000c68:	90420000 	lbu	v0,0(v0)
9d000c6c:	00402825 	move	a1,v0
9d000c70:	3c02a000 	lui	v0,0xa000
9d000c74:	24440388 	addiu	a0,v0,904
9d000c78:	0f400f07 	jal	9d003c1c <writePacketSX1231H>
9d000c7c:	00000000 	nop
    setDeviceModeSX1231H(TX);                                             //Start the transmission by putting the transceiver into TX mode
9d000c80:	24040003 	li	a0,3
9d000c84:	0f401167 	jal	9d00459c <setDeviceModeSX1231H>
9d000c88:	00000000 	nop
    txAttempts--;  //Decrement the retransmission counter by 1
9d000c8c:	8f82804c 	lw	v0,-32692(gp)
9d000c90:	2442ffff 	addiu	v0,v0,-1
9d000c94:	af82804c 	sw	v0,-32692(gp)
    radioThreadState = RADIO_SLEEP_TX;  //Next state of the thread is RADIO_SLEEP_TX
9d000c98:	24020001 	li	v0,1
9d000c9c:	af82803c 	sw	v0,-32708(gp)
}
9d000ca0:	00000000 	nop
9d000ca4:	03c0e825 	move	sp,s8
9d000ca8:	8fbf0014 	lw	ra,20(sp)
9d000cac:	8fbe0010 	lw	s8,16(sp)
9d000cb0:	27bd0018 	addiu	sp,sp,24
9d000cb4:	03e00008 	jr	ra
9d000cb8:	00000000 	nop

9d000cbc <radioGetPayload>:

//TX Done Function, event handler for 

//Get Payload Function, reads the newly received packet from the radio's FIFO buffer
void radioGetPayload()
{
9d000cbc:	27bdffe0 	addiu	sp,sp,-32
9d000cc0:	afbf001c 	sw	ra,28(sp)
9d000cc4:	afbe0018 	sw	s8,24(sp)
9d000cc8:	03a0f025 	move	s8,sp
    LATACLR = 0x00000001;
9d000ccc:	3c02bf88 	lui	v0,0xbf88
9d000cd0:	24030001 	li	v1,1
9d000cd4:	ac436034 	sw	v1,24628(v0)

    interactWithRegistersSX1231H(REGADDR_PAYLOADLENGTH, rxBuffer, 0x00000001, 0xFFFFFFFF);  //Determine the size of the received payload and write it to the first byte of the rxBuffer array
9d000cd8:	2407ffff 	li	a3,-1
9d000cdc:	24060001 	li	a2,1
9d000ce0:	3c02a000 	lui	v0,0xa000
9d000ce4:	244503cc 	addiu	a1,v0,972
9d000ce8:	24040038 	li	a0,56
9d000cec:	0f400aa2 	jal	9d002a88 <interactWithRegistersSX1231H>
9d000cf0:	00000000 	nop
    interactWithRegistersSX1231H(REGADDR_FIFO, rxBuffer, *rxBuffer, 0xFFFFFFFF);            //Read the desired number of bytes from the FIFO into the rxBuffer array
9d000cf4:	3c02a000 	lui	v0,0xa000
9d000cf8:	904203cc 	lbu	v0,972(v0)
9d000cfc:	2407ffff 	li	a3,-1
9d000d00:	00403025 	move	a2,v0
9d000d04:	3c02a000 	lui	v0,0xa000
9d000d08:	244503cc 	addiu	a1,v0,972
9d000d0c:	00002025 	move	a0,zero
9d000d10:	0f400aa2 	jal	9d002a88 <interactWithRegistersSX1231H>
9d000d14:	00000000 	nop

    packetHeader_t *receivedHeader = (packetHeader_t *) rxBuffer;  //Create a packetHeader_t pointer from the contents of rxBuffer
9d000d18:	3c02a000 	lui	v0,0xa000
9d000d1c:	244203cc 	addiu	v0,v0,972
9d000d20:	afc20010 	sw	v0,16(s8)

    //Determine if we're accepting an ACKNOWLEDGE
    if (receivedHeader->payloadType == ACKNOWLEDGE)
9d000d24:	8fc20010 	lw	v0,16(s8)
9d000d28:	90420002 	lbu	v0,2(v0)
9d000d2c:	14400005 	bnez	v0,9d000d44 <radioGetPayload+0x88>
9d000d30:	00000000 	nop
    {
        txAttempts = 0x00000000;  //Clear txAttempts to reset the transmission retry counter
9d000d34:	af80804c 	sw	zero,-32692(gp)

        radioThreadState = RADIO_SLEEP;  //Next state of the thread is RADIO_SLEEP
9d000d38:	af80803c 	sw	zero,-32708(gp)
#ifdef __BUILD_DEVELOPMENT__
//    stringLength = constructMeasurementLog((uint8_t *) dmaBufferTxUART, &decodedTemperature, &decodedHumidity, &decodedPressure);
//    stringLength = constructRssiLog((uint8_t *) dmaBufferTxUART, &mostRecentRSSI);
//    startTxUART((uint8_t *) dmaBufferTxUART, &stringLength);                                                      //Start the transmission of the log message over UART
#endif
}
9d000d3c:	1000000a 	b	9d000d68 <radioGetPayload+0xac>
9d000d40:	00000000 	nop
        if (!TMR1)
9d000d44:	3c02bf80 	lui	v0,0xbf80
9d000d48:	8c420610 	lw	v0,1552(v0)
9d000d4c:	14400005 	bnez	v0,9d000d64 <radioGetPayload+0xa8>
9d000d50:	00000000 	nop
            radioThreadState = RADIO_START_RX;  //Next state of the thread is RADIO_START_RX
9d000d54:	24020006 	li	v0,6
9d000d58:	af82803c 	sw	v0,-32708(gp)
}
9d000d5c:	10000002 	b	9d000d68 <radioGetPayload+0xac>
9d000d60:	00000000 	nop
            radioThreadState = RADIO_SLEEP;  //Next state of the thread is RADIO_SLEEP
9d000d64:	af80803c 	sw	zero,-32708(gp)
}
9d000d68:	00000000 	nop
9d000d6c:	03c0e825 	move	sp,s8
9d000d70:	8fbf001c 	lw	ra,28(sp)
9d000d74:	8fbe0018 	lw	s8,24(sp)
9d000d78:	27bd0020 	addiu	sp,sp,32
9d000d7c:	03e00008 	jr	ra
9d000d80:	00000000 	nop

9d000d84 <radioTimeoutRX>:

//Radio Receive Timeout Function, handles timeout events for the radio while in receive mode
void radioTimeoutRX()
{
9d000d84:	27bdffe8 	addiu	sp,sp,-24
9d000d88:	afbf0014 	sw	ra,20(sp)
9d000d8c:	afbe0010 	sw	s8,16(sp)
9d000d90:	03a0f025 	move	s8,sp
    LATACLR = 0x00000001;
9d000d94:	3c02bf88 	lui	v0,0xbf88
9d000d98:	24030001 	li	v1,1
9d000d9c:	ac436034 	sw	v1,24628(v0)

    setDeviceModeSX1231H(SLEEP);  //Put the radio into sleep mode now that the receive window has closed
9d000da0:	00002025 	move	a0,zero
9d000da4:	0f401167 	jal	9d00459c <setDeviceModeSX1231H>
9d000da8:	00000000 	nop

    //Check if we're allowed to try sending the packet again
    if (txAttempts)
9d000dac:	8f82804c 	lw	v0,-32692(gp)
9d000db0:	10400005 	beqz	v0,9d000dc8 <radioTimeoutRX+0x44>
9d000db4:	00000000 	nop
    {
        radioThreadState = RADIO_START_TX;  //Next state of the thread is RADIO_START_TX
9d000db8:	24020005 	li	v0,5
9d000dbc:	af82803c 	sw	v0,-32708(gp)
    }
    else
    {
        radioThreadState = RADIO_SLEEP;  //Next state of the thread is RADIO_SLEEP
    }
}
9d000dc0:	10000002 	b	9d000dcc <radioTimeoutRX+0x48>
9d000dc4:	00000000 	nop
        radioThreadState = RADIO_SLEEP;  //Next state of the thread is RADIO_SLEEP
9d000dc8:	af80803c 	sw	zero,-32708(gp)
}
9d000dcc:	00000000 	nop
9d000dd0:	03c0e825 	move	sp,s8
9d000dd4:	8fbf0014 	lw	ra,20(sp)
9d000dd8:	8fbe0010 	lw	s8,16(sp)
9d000ddc:	27bd0018 	addiu	sp,sp,24
9d000de0:	03e00008 	jr	ra
9d000de4:	00000000 	nop

9d000de8 <threadSleep>:
 *  Utility Handlers  *
 **********************/

//Thread Sleep Function, provides a blank handler function to use when a thread is asleep
void threadSleep()
{
9d000de8:	27bdfff8 	addiu	sp,sp,-8
9d000dec:	afbe0004 	sw	s8,4(sp)
9d000df0:	03a0f025 	move	s8,sp
    //Literally do nothing lol
}
9d000df4:	00000000 	nop
9d000df8:	03c0e825 	move	sp,s8
9d000dfc:	8fbe0004 	lw	s8,4(sp)
9d000e00:	27bd0008 	addiu	sp,sp,8
9d000e04:	03e00008 	jr	ra
9d000e08:	00000000 	nop

Disassembly of section .text.readCalCoeffsDPS368:

9d000e0c <readCalCoeffsDPS368>:
 ***********************/


//Get Calibration Coefficients Function, reads the calibration coefficients from the sensor to use for processing the results
uint32_t readCalCoeffsDPS368()
{
9d000e0c:	27bdffd0 	addiu	sp,sp,-48
9d000e10:	afbf002c 	sw	ra,44(sp)
9d000e14:	afbe0028 	sw	s8,40(sp)
9d000e18:	03a0f025 	move	s8,sp
    uint8_t dataBuffer[0x00000012];  //Create an array of 18 bytes to use as a buffer for reading data from the sensor

    //Verify that the calibration coefficients are ready to be retrieved from the sensor
    *dataBuffer = 0x08;                                                      //Select the MEAS_CFG register on the sensor
9d000e1c:	24020008 	li	v0,8
9d000e20:	a3c20014 	sb	v0,20(s8)
    if (!readFromI2C(DPS368_I2C_ADDR, dataBuffer, 0x00000001, 0x00000001));  //Attempt to read the contents of the MEAS_CFG register on the sensor, leave if no response is received
9d000e24:	27c20014 	addiu	v0,s8,20
9d000e28:	24070001 	li	a3,1
9d000e2c:	24060001 	li	a2,1
9d000e30:	00402825 	move	a1,v0
9d000e34:	24040076 	li	a0,118
9d000e38:	0f4008bd 	jal	9d0022f4 <readFromI2C>
9d000e3c:	00000000 	nop

    if (!(*dataBuffer & 0x80)) return 0x00;  //Leave the function if the coefficients aren't available yet
9d000e40:	93c20014 	lbu	v0,20(s8)
9d000e44:	7c021420 	seb	v0,v0
9d000e48:	04400004 	bltz	v0,9d000e5c <readCalCoeffsDPS368+0x50>
9d000e4c:	00000000 	nop
9d000e50:	00001025 	move	v0,zero
9d000e54:	100000a8 	b	9d0010f8 <readCalCoeffsDPS368+0x2ec>
9d000e58:	00000000 	nop

    //Read the calibration coefficients from the sensor
    *dataBuffer = 0x10;                                                                        //Set the start address of the read sequence to the first byte of the calibration coefficients
9d000e5c:	24020010 	li	v0,16
9d000e60:	a3c20014 	sb	v0,20(s8)
    if (!readFromI2C(DPS368_I2C_ADDR, dataBuffer, 0x00000012, 0x00000001)) return 0x00000000;  //Read the memory space in which the calibration data lives in from the sensor into the dataBuffer array
9d000e64:	27c20014 	addiu	v0,s8,20
9d000e68:	24070001 	li	a3,1
9d000e6c:	24060012 	li	a2,18
9d000e70:	00402825 	move	a1,v0
9d000e74:	24040076 	li	a0,118
9d000e78:	0f4008bd 	jal	9d0022f4 <readFromI2C>
9d000e7c:	00000000 	nop
9d000e80:	14400004 	bnez	v0,9d000e94 <readCalCoeffsDPS368+0x88>
9d000e84:	00000000 	nop
9d000e88:	00001025 	move	v0,zero
9d000e8c:	1000009a 	b	9d0010f8 <readCalCoeffsDPS368+0x2ec>
9d000e90:	00000000 	nop

    uint8_t *arrayPointer = dataBuffer;  //Declare a pointer to the dataBuffer array to use for iterating through each index of the array while extracting the coefficients
9d000e94:	27c20014 	addiu	v0,s8,20
9d000e98:	afc20010 	sw	v0,16(s8)

    //Extract the data from the byte array into their respective variables
    dps368Cal_c0 = (*arrayPointer++ << 0x00000004) | ((*arrayPointer & 0xF0) >> 0x00000004);
9d000e9c:	8fc20010 	lw	v0,16(s8)
9d000ea0:	24430001 	addiu	v1,v0,1
9d000ea4:	afc30010 	sw	v1,16(s8)
9d000ea8:	90420000 	lbu	v0,0(v0)
9d000eac:	00021100 	sll	v0,v0,0x4
9d000eb0:	7c021e20 	seh	v1,v0
9d000eb4:	8fc20010 	lw	v0,16(s8)
9d000eb8:	90420000 	lbu	v0,0(v0)
9d000ebc:	00021102 	srl	v0,v0,0x4
9d000ec0:	304200ff 	andi	v0,v0,0xff
9d000ec4:	7c021620 	seh	v0,v0
9d000ec8:	00621025 	or	v0,v1,v0
9d000ecc:	7c021620 	seh	v0,v0
9d000ed0:	a7828018 	sh	v0,-32744(gp)
    dps368Cal_c1 = ((*arrayPointer++ & 0x0F) << 0x00000008) | (*arrayPointer++);
9d000ed4:	8fc20010 	lw	v0,16(s8)
9d000ed8:	24430001 	addiu	v1,v0,1
9d000edc:	afc30010 	sw	v1,16(s8)
9d000ee0:	90420000 	lbu	v0,0(v0)
9d000ee4:	00021200 	sll	v0,v0,0x8
9d000ee8:	7c021620 	seh	v0,v0
9d000eec:	30420f00 	andi	v0,v0,0xf00
9d000ef0:	7c021e20 	seh	v1,v0
9d000ef4:	8fc20010 	lw	v0,16(s8)
9d000ef8:	24440001 	addiu	a0,v0,1
9d000efc:	afc40010 	sw	a0,16(s8)
9d000f00:	90420000 	lbu	v0,0(v0)
9d000f04:	7c021620 	seh	v0,v0
9d000f08:	00621025 	or	v0,v1,v0
9d000f0c:	7c021620 	seh	v0,v0
9d000f10:	a782801a 	sh	v0,-32742(gp)
    dps368Cal_c00 = (*arrayPointer++ << 0x0000000C) | (*arrayPointer++ << 0x00000004) | ((*arrayPointer & 0xF0) >> 0x00000004);
9d000f14:	8fc20010 	lw	v0,16(s8)
9d000f18:	24430001 	addiu	v1,v0,1
9d000f1c:	afc30010 	sw	v1,16(s8)
9d000f20:	90420000 	lbu	v0,0(v0)
9d000f24:	00021b00 	sll	v1,v0,0xc
9d000f28:	8fc20010 	lw	v0,16(s8)
9d000f2c:	24440001 	addiu	a0,v0,1
9d000f30:	afc40010 	sw	a0,16(s8)
9d000f34:	90420000 	lbu	v0,0(v0)
9d000f38:	00021100 	sll	v0,v0,0x4
9d000f3c:	00621025 	or	v0,v1,v0
9d000f40:	8fc30010 	lw	v1,16(s8)
9d000f44:	90630000 	lbu	v1,0(v1)
9d000f48:	00031902 	srl	v1,v1,0x4
9d000f4c:	306300ff 	andi	v1,v1,0xff
9d000f50:	00431025 	or	v0,v0,v1
9d000f54:	af82801c 	sw	v0,-32740(gp)
    dps368Cal_c10 = ((*arrayPointer++ & 0x0F) << 0x00000010) | (*arrayPointer++ << 0x00000008) | (*arrayPointer++);
9d000f58:	8fc20010 	lw	v0,16(s8)
9d000f5c:	24430001 	addiu	v1,v0,1
9d000f60:	afc30010 	sw	v1,16(s8)
9d000f64:	90420000 	lbu	v0,0(v0)
9d000f68:	00021c00 	sll	v1,v0,0x10
9d000f6c:	3c02000f 	lui	v0,0xf
9d000f70:	00621824 	and	v1,v1,v0
9d000f74:	8fc20010 	lw	v0,16(s8)
9d000f78:	24440001 	addiu	a0,v0,1
9d000f7c:	afc40010 	sw	a0,16(s8)
9d000f80:	90420000 	lbu	v0,0(v0)
9d000f84:	00021200 	sll	v0,v0,0x8
9d000f88:	00621825 	or	v1,v1,v0
9d000f8c:	8fc20010 	lw	v0,16(s8)
9d000f90:	24440001 	addiu	a0,v0,1
9d000f94:	afc40010 	sw	a0,16(s8)
9d000f98:	90420000 	lbu	v0,0(v0)
9d000f9c:	00621025 	or	v0,v1,v0
9d000fa0:	af828020 	sw	v0,-32736(gp)
    dps368Cal_c01 = (*arrayPointer++ << 0x00000008) | (*arrayPointer++);
9d000fa4:	8fc20010 	lw	v0,16(s8)
9d000fa8:	24430001 	addiu	v1,v0,1
9d000fac:	afc30010 	sw	v1,16(s8)
9d000fb0:	90420000 	lbu	v0,0(v0)
9d000fb4:	00021200 	sll	v0,v0,0x8
9d000fb8:	7c021e20 	seh	v1,v0
9d000fbc:	8fc20010 	lw	v0,16(s8)
9d000fc0:	24440001 	addiu	a0,v0,1
9d000fc4:	afc40010 	sw	a0,16(s8)
9d000fc8:	90420000 	lbu	v0,0(v0)
9d000fcc:	7c021620 	seh	v0,v0
9d000fd0:	00621025 	or	v0,v1,v0
9d000fd4:	7c021620 	seh	v0,v0
9d000fd8:	a7828024 	sh	v0,-32732(gp)
    dps368Cal_c11 = (*arrayPointer++ << 0x00000008) | (*arrayPointer++);
9d000fdc:	8fc20010 	lw	v0,16(s8)
9d000fe0:	24430001 	addiu	v1,v0,1
9d000fe4:	afc30010 	sw	v1,16(s8)
9d000fe8:	90420000 	lbu	v0,0(v0)
9d000fec:	00021200 	sll	v0,v0,0x8
9d000ff0:	7c021e20 	seh	v1,v0
9d000ff4:	8fc20010 	lw	v0,16(s8)
9d000ff8:	24440001 	addiu	a0,v0,1
9d000ffc:	afc40010 	sw	a0,16(s8)
9d001000:	90420000 	lbu	v0,0(v0)
9d001004:	7c021620 	seh	v0,v0
9d001008:	00621025 	or	v0,v1,v0
9d00100c:	7c021620 	seh	v0,v0
9d001010:	a7828026 	sh	v0,-32730(gp)
    dps368Cal_c20 = (*arrayPointer++ << 0x00000008) | (*arrayPointer++);
9d001014:	8fc20010 	lw	v0,16(s8)
9d001018:	24430001 	addiu	v1,v0,1
9d00101c:	afc30010 	sw	v1,16(s8)
9d001020:	90420000 	lbu	v0,0(v0)
9d001024:	00021200 	sll	v0,v0,0x8
9d001028:	7c021e20 	seh	v1,v0
9d00102c:	8fc20010 	lw	v0,16(s8)
9d001030:	24440001 	addiu	a0,v0,1
9d001034:	afc40010 	sw	a0,16(s8)
9d001038:	90420000 	lbu	v0,0(v0)
9d00103c:	7c021620 	seh	v0,v0
9d001040:	00621025 	or	v0,v1,v0
9d001044:	7c021620 	seh	v0,v0
9d001048:	a7828028 	sh	v0,-32728(gp)
    dps368Cal_c21 = (*arrayPointer++ << 0x00000008) | (*arrayPointer++);
9d00104c:	8fc20010 	lw	v0,16(s8)
9d001050:	24430001 	addiu	v1,v0,1
9d001054:	afc30010 	sw	v1,16(s8)
9d001058:	90420000 	lbu	v0,0(v0)
9d00105c:	00021200 	sll	v0,v0,0x8
9d001060:	7c021e20 	seh	v1,v0
9d001064:	8fc20010 	lw	v0,16(s8)
9d001068:	24440001 	addiu	a0,v0,1
9d00106c:	afc40010 	sw	a0,16(s8)
9d001070:	90420000 	lbu	v0,0(v0)
9d001074:	7c021620 	seh	v0,v0
9d001078:	00621025 	or	v0,v1,v0
9d00107c:	7c021620 	seh	v0,v0
9d001080:	a782802a 	sh	v0,-32726(gp)
    dps368Cal_c30 = (*arrayPointer++ << 0x00000008) | (*arrayPointer);
9d001084:	8fc20010 	lw	v0,16(s8)
9d001088:	24430001 	addiu	v1,v0,1
9d00108c:	afc30010 	sw	v1,16(s8)
9d001090:	90420000 	lbu	v0,0(v0)
9d001094:	00021200 	sll	v0,v0,0x8
9d001098:	7c021e20 	seh	v1,v0
9d00109c:	8fc20010 	lw	v0,16(s8)
9d0010a0:	90420000 	lbu	v0,0(v0)
9d0010a4:	7c021620 	seh	v0,v0
9d0010a8:	00621025 	or	v0,v1,v0
9d0010ac:	7c021620 	seh	v0,v0
9d0010b0:	a782802c 	sh	v0,-32724(gp)

    //Correct the sign of the values stored in the variables when required
    forceSign16(&dps368Cal_c0, 0x0000000C);   //Apply 12-bit 2's complements to the number to correct the sign
9d0010b4:	2405000c 	li	a1,12
9d0010b8:	27848018 	addiu	a0,gp,-32744
9d0010bc:	0f401085 	jal	9d004214 <forceSign16>
9d0010c0:	00000000 	nop
    forceSign16(&dps368Cal_c1, 0x0000000C);   //Apply 12-bit 2's complements to the number to correct the sign
9d0010c4:	2405000c 	li	a1,12
9d0010c8:	2784801a 	addiu	a0,gp,-32742
9d0010cc:	0f401085 	jal	9d004214 <forceSign16>
9d0010d0:	00000000 	nop
    forceSign32(&dps368Cal_c00, 0x00000014);  //Apply 20-bit 2's complements to the number to correct the sign
9d0010d4:	24050014 	li	a1,20
9d0010d8:	2784801c 	addiu	a0,gp,-32740
9d0010dc:	0f4010c9 	jal	9d004324 <forceSign32>
9d0010e0:	00000000 	nop
    forceSign32(&dps368Cal_c10, 0x00000014);  //Apply 20-bit 2's complements to the number to correct the sign
9d0010e4:	24050014 	li	a1,20
9d0010e8:	27848020 	addiu	a0,gp,-32736
9d0010ec:	0f4010c9 	jal	9d004324 <forceSign32>
9d0010f0:	00000000 	nop

    return 0xFFFFFFFF;  //Return a non-negative value to indicate the coefficients were read successfully
9d0010f4:	2402ffff 	li	v0,-1
}
9d0010f8:	03c0e825 	move	sp,s8
9d0010fc:	8fbf002c 	lw	ra,44(sp)
9d001100:	8fbe0028 	lw	s8,40(sp)
9d001104:	27bd0030 	addiu	sp,sp,48
9d001108:	03e00008 	jr	ra
9d00110c:	00000000 	nop

Disassembly of section .text.constructMeasurementLog:

9d001110 <constructMeasurementLog>:
 ****************************/


//Construct Measurement Log Function, constructs a new string to log the provided measurement results
uint32_t constructMeasurementLog(uint8_t *stringBuffer, const float *temperature, const float *humidity, const float *pressure)
{
9d001110:	27bdffe0 	addiu	sp,sp,-32
9d001114:	afbf001c 	sw	ra,28(sp)
9d001118:	afbe0018 	sw	s8,24(sp)
9d00111c:	03a0f025 	move	s8,sp
9d001120:	afc40020 	sw	a0,32(s8)
9d001124:	afc50024 	sw	a1,36(s8)
9d001128:	afc60028 	sw	a2,40(s8)
9d00112c:	afc7002c 	sw	a3,44(s8)
    int32_t dataBuffer;     //Reserve a new 32-bit variable in RAM to use for doing number manipulation while creating the measurement report
    uint32_t stringLength;  //Create a new variable to use for tracking the length of the string being constructed

    memcpy(stringBuffer, logConstants_measurementReport, 0x00000020);  //Copy the first part of the measurement report string into the string buffer
9d001130:	24060020 	li	a2,32
9d001134:	3c029d00 	lui	v0,0x9d00
9d001138:	24453474 	addiu	a1,v0,13428
9d00113c:	8fc40020 	lw	a0,32(s8)
9d001140:	0f4009ee 	jal	9d0027b8 <memcpy>
9d001144:	00000000 	nop
    stringLength = 0x00000020;                                         //Set the starting length of the string to 32 characters
9d001148:	24020020 	li	v0,32
9d00114c:	afc20014 	sw	v0,20(s8)
    dataBuffer = (*temperature * 100.0F);                              //Multiply the most recent temperature measurement by 100, then store it in dataBuffer with no decimal
9d001150:	8fc20024 	lw	v0,36(s8)
9d001154:	8c430000 	lw	v1,0(v0)
9d001158:	3c029d00 	lui	v0,0x9d00
9d00115c:	8c454c80 	lw	a1,19584(v0)
9d001160:	00602025 	move	a0,v1
9d001164:	0f40084e 	jal	9d002138 <__mulsf3>
9d001168:	00000000 	nop
9d00116c:	00402025 	move	a0,v0
9d001170:	0f401109 	jal	9d004424 <__fixsfsi>
9d001174:	00000000 	nop
9d001178:	afc20010 	sw	v0,16(s8)

    //Handle scenarios where the value of dataBuffer is actually a negative
    if (dataBuffer < 0x00000000)
9d00117c:	8fc20010 	lw	v0,16(s8)
9d001180:	0441000b 	bgez	v0,9d0011b0 <constructMeasurementLog+0xa0>
9d001184:	00000000 	nop
    {
        stringBuffer[stringLength++] = 0x2D;  //Add a minus character to the string buffer to indicate the negative number
9d001188:	8fc20014 	lw	v0,20(s8)
9d00118c:	24430001 	addiu	v1,v0,1
9d001190:	afc30014 	sw	v1,20(s8)
9d001194:	8fc30020 	lw	v1,32(s8)
9d001198:	00621021 	addu	v0,v1,v0
9d00119c:	2403002d 	li	v1,45
9d0011a0:	a0430000 	sb	v1,0(v0)
        dataBuffer = -dataBuffer;             //Force the contents of dataBuffer back into the positives again
9d0011a4:	8fc20010 	lw	v0,16(s8)
9d0011a8:	00021023 	negu	v0,v0
9d0011ac:	afc20010 	sw	v0,16(s8)
    }

    uintToDecString(dataBuffer / 0x00000064, stringBuffer + stringLength);  //Convert the whole number portion of the temperature into a string and put it into the string buffer
9d0011b0:	8fc20010 	lw	v0,16(s8)
9d0011b4:	3c0351eb 	lui	v1,0x51eb
9d0011b8:	3463851f 	ori	v1,v1,0x851f
9d0011bc:	00430018 	mult	v0,v1
9d0011c0:	00001810 	mfhi	v1
9d0011c4:	00031943 	sra	v1,v1,0x5
9d0011c8:	000217c3 	sra	v0,v0,0x1f
9d0011cc:	00621023 	subu	v0,v1,v0
9d0011d0:	00402025 	move	a0,v0
9d0011d4:	8fc30020 	lw	v1,32(s8)
9d0011d8:	8fc20014 	lw	v0,20(s8)
9d0011dc:	00621021 	addu	v0,v1,v0
9d0011e0:	00402825 	move	a1,v0
9d0011e4:	0f400be9 	jal	9d002fa4 <uintToDecString>
9d0011e8:	00000000 	nop
    stringLength = strlen(stringBuffer);                                    //Find the new length of the string with the whole number added into it
9d0011ec:	8fc40020 	lw	a0,32(s8)
9d0011f0:	0f400a48 	jal	9d002920 <strlen>
9d0011f4:	00000000 	nop
9d0011f8:	afc20014 	sw	v0,20(s8)
    dataBuffer %= 0x00000064;                                               //Modulo the contents of dataBuffer by 100, storing the result back into the dataBuffer variable
9d0011fc:	8fc30010 	lw	v1,16(s8)
9d001200:	3c0251eb 	lui	v0,0x51eb
9d001204:	3442851f 	ori	v0,v0,0x851f
9d001208:	00620018 	mult	v1,v0
9d00120c:	00001010 	mfhi	v0
9d001210:	00022143 	sra	a0,v0,0x5
9d001214:	000317c3 	sra	v0,v1,0x1f
9d001218:	00822023 	subu	a0,a0,v0
9d00121c:	00801025 	move	v0,a0
9d001220:	00021040 	sll	v0,v0,0x1
9d001224:	00441021 	addu	v0,v0,a0
9d001228:	000210c0 	sll	v0,v0,0x3
9d00122c:	00441021 	addu	v0,v0,a0
9d001230:	00021080 	sll	v0,v0,0x2
9d001234:	00621023 	subu	v0,v1,v0
9d001238:	afc20010 	sw	v0,16(s8)

    //Only add the decimal point and digits when actually required, otherwise don't bother
    if (dataBuffer)
9d00123c:	8fc20010 	lw	v0,16(s8)
9d001240:	10400022 	beqz	v0,9d0012cc <constructMeasurementLog+0x1bc>
9d001244:	00000000 	nop
    {
        stringBuffer[stringLength++] = 0x2E;                                    //Place the decimal point right after the whole number portion
9d001248:	8fc20014 	lw	v0,20(s8)
9d00124c:	24430001 	addiu	v1,v0,1
9d001250:	afc30014 	sw	v1,20(s8)
9d001254:	8fc30020 	lw	v1,32(s8)
9d001258:	00621021 	addu	v0,v1,v0
9d00125c:	2403002e 	li	v1,46
9d001260:	a0430000 	sb	v1,0(v0)
        uintToDecString(dataBuffer % 0x00000064, stringBuffer + stringLength);  //Convert the decimal portion of the temperature into a string and put it into the string buffer
9d001264:	8fc40010 	lw	a0,16(s8)
9d001268:	3c0251eb 	lui	v0,0x51eb
9d00126c:	3442851f 	ori	v0,v0,0x851f
9d001270:	00820018 	mult	a0,v0
9d001274:	00001010 	mfhi	v0
9d001278:	00021943 	sra	v1,v0,0x5
9d00127c:	000417c3 	sra	v0,a0,0x1f
9d001280:	00621823 	subu	v1,v1,v0
9d001284:	00601025 	move	v0,v1
9d001288:	00021040 	sll	v0,v0,0x1
9d00128c:	00431021 	addu	v0,v0,v1
9d001290:	000210c0 	sll	v0,v0,0x3
9d001294:	00431021 	addu	v0,v0,v1
9d001298:	00021080 	sll	v0,v0,0x2
9d00129c:	00821823 	subu	v1,a0,v0
9d0012a0:	00602025 	move	a0,v1
9d0012a4:	8fc30020 	lw	v1,32(s8)
9d0012a8:	8fc20014 	lw	v0,20(s8)
9d0012ac:	00621021 	addu	v0,v1,v0
9d0012b0:	00402825 	move	a1,v0
9d0012b4:	0f400be9 	jal	9d002fa4 <uintToDecString>
9d0012b8:	00000000 	nop
        stringLength = strlen(stringBuffer);                                    //Find the new length of the string with the decimal places added into it
9d0012bc:	8fc40020 	lw	a0,32(s8)
9d0012c0:	0f400a48 	jal	9d002920 <strlen>
9d0012c4:	00000000 	nop
9d0012c8:	afc20014 	sw	v0,20(s8)
    }

    memcpy(stringBuffer + stringLength, logConstants_measurementReport + 0x00000020, 0x00000013);  //Load the next segment of the report string into the buffer
9d0012cc:	8fc30020 	lw	v1,32(s8)
9d0012d0:	8fc20014 	lw	v0,20(s8)
9d0012d4:	00621821 	addu	v1,v1,v0
9d0012d8:	3c029d00 	lui	v0,0x9d00
9d0012dc:	24423494 	addiu	v0,v0,13460
9d0012e0:	24060013 	li	a2,19
9d0012e4:	00402825 	move	a1,v0
9d0012e8:	00602025 	move	a0,v1
9d0012ec:	0f4009ee 	jal	9d0027b8 <memcpy>
9d0012f0:	00000000 	nop
    stringLength += 0x00000013;                                                                    //Add the appropriate amount to stringLength to compensate for the added characters
9d0012f4:	8fc20014 	lw	v0,20(s8)
9d0012f8:	24420013 	addiu	v0,v0,19
9d0012fc:	afc20014 	sw	v0,20(s8)
    uintToDecString((uint32_t) *humidity, stringBuffer + stringLength);                            //Convert the measured RH into it's string equivalent and append it to the string buffer
9d001300:	8fc20028 	lw	v0,40(s8)
9d001304:	8c420000 	lw	v0,0(v0)
9d001308:	00402025 	move	a0,v0
9d00130c:	0f401148 	jal	9d004520 <__fixunssfsi>
9d001310:	00000000 	nop
9d001314:	00402025 	move	a0,v0
9d001318:	8fc30020 	lw	v1,32(s8)
9d00131c:	8fc20014 	lw	v0,20(s8)
9d001320:	00621021 	addu	v0,v1,v0
9d001324:	00402825 	move	a1,v0
9d001328:	0f400be9 	jal	9d002fa4 <uintToDecString>
9d00132c:	00000000 	nop
    stringLength = strlen(stringBuffer);                                                           //Find the new length of the string with the humidity measurement added in
9d001330:	8fc40020 	lw	a0,32(s8)
9d001334:	0f400a48 	jal	9d002920 <strlen>
9d001338:	00000000 	nop
9d00133c:	afc20014 	sw	v0,20(s8)

    memcpy(stringBuffer + stringLength, logConstants_measurementReport + 0x00000033, 0x00000013);  //Load the next segment of the report string into the buffer
9d001340:	8fc30020 	lw	v1,32(s8)
9d001344:	8fc20014 	lw	v0,20(s8)
9d001348:	00621821 	addu	v1,v1,v0
9d00134c:	3c029d00 	lui	v0,0x9d00
9d001350:	244234a7 	addiu	v0,v0,13479
9d001354:	24060013 	li	a2,19
9d001358:	00402825 	move	a1,v0
9d00135c:	00602025 	move	a0,v1
9d001360:	0f4009ee 	jal	9d0027b8 <memcpy>
9d001364:	00000000 	nop
    stringLength += 0x00000013;                                                                    //Add the appropriate amount to stringLength to compensate for the added characters
9d001368:	8fc20014 	lw	v0,20(s8)
9d00136c:	24420013 	addiu	v0,v0,19
9d001370:	afc20014 	sw	v0,20(s8)
    uintToDecString((uint32_t) *pressure, stringBuffer + stringLength);                            //Convert the measured pressure into a string and append it to the string buffer
9d001374:	8fc2002c 	lw	v0,44(s8)
9d001378:	8c420000 	lw	v0,0(v0)
9d00137c:	00402025 	move	a0,v0
9d001380:	0f401148 	jal	9d004520 <__fixunssfsi>
9d001384:	00000000 	nop
9d001388:	00402025 	move	a0,v0
9d00138c:	8fc30020 	lw	v1,32(s8)
9d001390:	8fc20014 	lw	v0,20(s8)
9d001394:	00621021 	addu	v0,v1,v0
9d001398:	00402825 	move	a1,v0
9d00139c:	0f400be9 	jal	9d002fa4 <uintToDecString>
9d0013a0:	00000000 	nop
    stringLength = strlen(stringBuffer);                                                           //Find the new length of the string with the barometric pressure value added
9d0013a4:	8fc40020 	lw	a0,32(s8)
9d0013a8:	0f400a48 	jal	9d002920 <strlen>
9d0013ac:	00000000 	nop
9d0013b0:	afc20014 	sw	v0,20(s8)

    memcpy(stringBuffer + stringLength, logConstants_measurementReport + 0x00000046, 0x00000004);  //Add the final part of the report string into the buffer
9d0013b4:	8fc30020 	lw	v1,32(s8)
9d0013b8:	8fc20014 	lw	v0,20(s8)
9d0013bc:	00621821 	addu	v1,v1,v0
9d0013c0:	3c029d00 	lui	v0,0x9d00
9d0013c4:	244234ba 	addiu	v0,v0,13498
9d0013c8:	24060004 	li	a2,4
9d0013cc:	00402825 	move	a1,v0
9d0013d0:	00602025 	move	a0,v1
9d0013d4:	0f4009ee 	jal	9d0027b8 <memcpy>
9d0013d8:	00000000 	nop
    stringLength += 0x00000004;                                                                    //Add the appropriate amount to stringLength to compensate for the added characters
9d0013dc:	8fc20014 	lw	v0,20(s8)
9d0013e0:	24420004 	addiu	v0,v0,4
9d0013e4:	afc20014 	sw	v0,20(s8)

    return stringLength;  //Leave the function returning the final length of the constructed string
9d0013e8:	8fc20014 	lw	v0,20(s8)
}
9d0013ec:	03c0e825 	move	sp,s8
9d0013f0:	8fbf001c 	lw	ra,28(sp)
9d0013f4:	8fbe0018 	lw	s8,24(sp)
9d0013f8:	27bd0020 	addiu	sp,sp,32
9d0013fc:	03e00008 	jr	ra
9d001400:	00000000 	nop

Disassembly of section .text.fpsubadd:

9d001404 <__subsf3>:
9d001404:	3c018000 00a12826                       ...<&(..

9d00140c <__addsf3>:
9d00140c:	00044dc2 312900ff 00055dc2 316b00ff     .M....)1.]....k1
9d00141c:	3c078000 00044200 01074025 00055200     ...<.B..%@...R..
9d00142c:	01475025 252dffff 2da100fe 10200061     %PG...-%...-a. .
9d00143c:	00000000                                ....

9d001440 <Blab1>:
9d001440:	256dffff 	addiu	t5,t3,-1
9d001444:	2da100fe 	sltiu	at,t5,254
9d001448:	10200077 	beqz	at,9d001628 <BspecB>
9d00144c:	00000000 	nop

9d001450 <Blab2>:
9d001450:	012b6023 	subu	t4,t1,t3
9d001454:	0580000d 	bltz	t4,9d00148c <i1>
9d001458:	00000000 	nop
9d00145c:	29810020 	slti	at,t4,32
9d001460:	14200003 	bnez	at,9d001470 <i2>
9d001464:	00000000 	nop
9d001468:	10000015 	b	9d0014c0 <e1>
9d00146c:	240a0002 	li	t2,2

9d001470 <i2>:
9d001470:	000a3025 	or	a2,zero,t2
9d001474:	018a5006 	srlv	t2,t2,t4
9d001478:	018a6804 	sllv	t5,t2,t4
9d00147c:	11a60010 	beq	t5,a2,9d0014c0 <e1>
9d001480:	00000000 	nop
9d001484:	1000000e 	b	9d0014c0 <e1>
9d001488:	354a0002 	ori	t2,t2,0x2

9d00148c <i1>:
9d00148c:	000b4825 	or	t1,zero,t3
9d001490:	000c6023 	negu	t4,t4
9d001494:	29810020 	slti	at,t4,32
9d001498:	14200003 	bnez	at,9d0014a8 <i4>
9d00149c:	00000000 	nop
9d0014a0:	10000007 	b	9d0014c0 <e1>
9d0014a4:	24080002 	li	t0,2

9d0014a8 <i4>:
9d0014a8:	00083025 	or	a2,zero,t0
9d0014ac:	01884006 	srlv	t0,t0,t4
9d0014b0:	01886804 	sllv	t5,t0,t4
9d0014b4:	11a60002 	beq	t5,a2,9d0014c0 <e1>
9d0014b8:	00000000 	nop
9d0014bc:	35080002 	ori	t0,t0,0x2

9d0014c0 <e1>:
9d0014c0:	00876024 	and	t4,a0,a3
9d0014c4:	01856826 	xor	t5,t4,a1
9d0014c8:	05a00010 	bltz	t5,9d00150c <Bsub1>
9d0014cc:	00000000 	nop
9d0014d0:	010a4021 	addu	t0,t0,t2
9d0014d4:	010a682b 	sltu	t5,t0,t2
9d0014d8:	11a00017 	beqz	t5,9d001538 <Bres>
9d0014dc:	00000000 	nop
9d0014e0:	310d0001 	andi	t5,t0,0x1
9d0014e4:	11a00002 	beqz	t5,9d0014f0 <i7>
9d0014e8:	00000000 	nop
9d0014ec:	35080002 	ori	t0,t0,0x2

9d0014f0 <i7>:
9d0014f0:	00084042 	srl	t0,t0,0x1
9d0014f4:	25290001 	addiu	t1,t1,1
9d0014f8:	240100ff 	li	at,255
9d0014fc:	1521000e 	bne	t1,at,9d001538 <Bres>
9d001500:	00000000 	nop
9d001504:	1000000c 	b	9d001538 <Bres>
9d001508:	24080000 	li	t0,0

9d00150c <Bsub1>:
9d00150c:	010a682b 	sltu	t5,t0,t2
9d001510:	11a00004 	beqz	t5,9d001524 <i9>
9d001514:	010a4023 	subu	t0,t0,t2
9d001518:	00084023 	negu	t0,t0
9d00151c:	10000003 	b	9d00152c <e9>
9d001520:	01876026 	xor	t4,t4,a3

9d001524 <i9>:
9d001524:	11000050 	beqz	t0,9d001668 <Bzer>
9d001528:	00000000 	nop

9d00152c <e9>:
9d00152c:	71063020 	clz	a2,t0
9d001530:	01264823 	subu	t1,t1,a2
9d001534:	00c84004 	sllv	t0,t0,a2

9d001538 <Bres>:
9d001538:	1920000e 	blez	t1,9d001574 <Bund>
9d00153c:	00000000 	nop

9d001540 <Blab12>:
9d001540:	25080080 	addiu	t0,t0,128
9d001544:	2d0d0080 	sltiu	t5,t0,128
9d001548:	012d4821 	addu	t1,t1,t5
9d00154c:	00086a02 	srl	t5,t0,0x8
9d001550:	31ad0001 	andi	t5,t5,0x1
9d001554:	010d4023 	subu	t0,t0,t5
9d001558:	00084040 	sll	t0,t0,0x1
9d00155c:	00084242 	srl	t0,t0,0x9
9d001560:	00096dc0 	sll	t5,t1,0x17
9d001564:	010d4025 	or	t0,t0,t5
9d001568:	010c1025 	or	v0,t0,t4

9d00156c <B999>:
9d00156c:	03e00008 	jr	ra
9d001570:	00000000 	nop

9d001574 <Bund>:
9d001574:	24060001 	li	a2,1
9d001578:	00c93023 	subu	a2,a2,t1
9d00157c:	2cc10020 	sltiu	at,a2,32
9d001580:	10200039 	beqz	at,9d001668 <Bzer>
9d001584:	00000000 	nop
9d001588:	3c018000 	lui	at,0x8000
9d00158c:	01014025 	or	t0,t0,at
9d001590:	240d0020 	li	t5,32
9d001594:	01a66823 	subu	t5,t5,a2
9d001598:	01a84804 	sllv	t1,t0,t5
9d00159c:	11200002 	beqz	t1,9d0015a8 <i10>
9d0015a0:	00c84006 	srlv	t0,t0,a2
9d0015a4:	35080001 	ori	t0,t0,0x1

9d0015a8 <i10>:
9d0015a8:	24090000 	li	t1,0
9d0015ac:	250d0080 	addiu	t5,t0,128
9d0015b0:	05a1ffe3 	bgez	t5,9d001540 <Blab12>
9d0015b4:	00000000 	nop
9d0015b8:	1000ffe1 	b	9d001540 <Blab12>
9d0015bc:	24090001 	li	t1,1

9d0015c0 <BspecA>:
9d0015c0:	1520000e 	bnez	t1,9d0015fc <i12>
9d0015c4:	00000000 	nop
9d0015c8:	01084021 	addu	t0,t0,t0
9d0015cc:	11000005 	beqz	t0,9d0015e4 <i13>
9d0015d0:	00000000 	nop
9d0015d4:	710c6020 	clz	t4,t0
9d0015d8:	012c4823 	subu	t1,t1,t4
9d0015dc:	1000ff98 	b	9d001440 <Blab1>
9d0015e0:	01884004 	sllv	t0,t0,t4

9d0015e4 <i13>:
9d0015e4:	240100ff 	li	at,255
9d0015e8:	1161000f 	beq	t3,at,9d001628 <BspecB>
9d0015ec:	00000000 	nop
9d0015f0:	3c018000 	lui	at,0x8000
9d0015f4:	14a10018 	bne	a1,at,9d001658 <BretB>
9d0015f8:	00000000 	nop

9d0015fc <i12>:
9d0015fc:	01086821 	addu	t5,t0,t0
9d001600:	15a0001b 	bnez	t5,9d001670 <Bnan>
9d001604:	00000000 	nop
9d001608:	240100ff 	li	at,255
9d00160c:	15610014 	bne	t3,at,9d001660 <BretA>
9d001610:	00000000 	nop
9d001614:	00856826 	xor	t5,a0,a1
9d001618:	05a00015 	bltz	t5,9d001670 <Bnan>
9d00161c:	00000000 	nop
9d001620:	1000000d 	b	9d001658 <BretB>
9d001624:	00000000 	nop

9d001628 <BspecB>:
9d001628:	15600008 	bnez	t3,9d00164c <i15>
9d00162c:	00000000 	nop
9d001630:	014a5021 	addu	t2,t2,t2
9d001634:	1140000a 	beqz	t2,9d001660 <BretA>
9d001638:	00000000 	nop
9d00163c:	714c6020 	clz	t4,t2
9d001640:	016c5823 	subu	t3,t3,t4
9d001644:	1000ff82 	b	9d001450 <Blab2>
9d001648:	018a5004 	sllv	t2,t2,t4

9d00164c <i15>:
9d00164c:	014a6821 	addu	t5,t2,t2
9d001650:	15a00007 	bnez	t5,9d001670 <Bnan>
9d001654:	00000000 	nop

9d001658 <BretB>:
9d001658:	1000ffc4 	b	9d00156c <B999>
9d00165c:	00051025 	or	v0,zero,a1

9d001660 <BretA>:
9d001660:	1000ffc2 	b	9d00156c <B999>
9d001664:	00041025 	or	v0,zero,a0

9d001668 <Bzer>:
9d001668:	1000ffc0 	b	9d00156c <B999>
9d00166c:	24020000 	li	v0,0

9d001670 <Bnan>:
9d001670:	1000ffbe 	b	9d00156c <B999>
9d001674:	3c02ffc0 	lui	v0,0xffc0
9d001678:	00000000 	nop

Disassembly of section .text.convertToPressureFromDPS368:

9d00167c <convertToPressureFromDPS368>:
{
9d00167c:	27bdffd0 	addiu	sp,sp,-48
9d001680:	afbf002c 	sw	ra,44(sp)
9d001684:	afbe0028 	sw	s8,40(sp)
9d001688:	afb10024 	sw	s1,36(sp)
9d00168c:	afb00020 	sw	s0,32(sp)
9d001690:	03a0f025 	move	s8,sp
9d001694:	afc40030 	sw	a0,48(s8)
9d001698:	afc50034 	sw	a1,52(s8)
    forceSign32(&rawPressure, 0x00000018);     //Convert the provided 24-bit unsigned 2's complemented pressure value into a signed 32-bit integer
9d00169c:	24050018 	li	a1,24
9d0016a0:	27c40030 	addiu	a0,s8,48
9d0016a4:	0f4010c9 	jal	9d004324 <forceSign32>
9d0016a8:	00000000 	nop
    forceSign32(&rawTemperature, 0x00000018);  //Convert the provided 24-bit unsigned 2's complemented temperature value into a signed 32-bit integer
9d0016ac:	27c20034 	addiu	v0,s8,52
9d0016b0:	24050018 	li	a1,24
9d0016b4:	00402025 	move	a0,v0
9d0016b8:	0f4010c9 	jal	9d004324 <forceSign32>
9d0016bc:	00000000 	nop
    float scaledPres = (float) (int32_t) rawPressure / presScalingFactorDPS368;     //Calculate the scaled pressure result based on the pressure oversampling configuration
9d0016c0:	8fc20030 	lw	v0,48(s8)
9d0016c4:	00402025 	move	a0,v0
9d0016c8:	0f401228 	jal	9d0048a0 <__floatsisf>
9d0016cc:	00000000 	nop
9d0016d0:	00408025 	move	s0,v0
9d0016d4:	8f828010 	lw	v0,-32752(gp)
9d0016d8:	00402025 	move	a0,v0
9d0016dc:	0f401255 	jal	9d004954 <__floatunsisf>
9d0016e0:	00000000 	nop
9d0016e4:	00402825 	move	a1,v0
9d0016e8:	02002025 	move	a0,s0
9d0016ec:	0f40062c 	jal	9d0018b0 <__divsf3>
9d0016f0:	00000000 	nop
9d0016f4:	afc20010 	sw	v0,16(s8)
    float scaledTemp = (float) (int32_t) rawTemperature / tempScalingFactorDPS368;  //Calculate the scaled temperature result based on the temperature oversampling configuration
9d0016f8:	8fc20034 	lw	v0,52(s8)
9d0016fc:	00402025 	move	a0,v0
9d001700:	0f401228 	jal	9d0048a0 <__floatsisf>
9d001704:	00000000 	nop
9d001708:	00408025 	move	s0,v0
9d00170c:	8f828014 	lw	v0,-32748(gp)
9d001710:	00402025 	move	a0,v0
9d001714:	0f401255 	jal	9d004954 <__floatunsisf>
9d001718:	00000000 	nop
9d00171c:	00402825 	move	a1,v0
9d001720:	02002025 	move	a0,s0
9d001724:	0f40062c 	jal	9d0018b0 <__divsf3>
9d001728:	00000000 	nop
9d00172c:	afc20014 	sw	v0,20(s8)
    float compensatedPres = (((scaledPres * dps368Cal_c30 + dps368Cal_c20) * scaledPres + dps368Cal_c10) * scaledPres) +
9d001730:	8782802c 	lh	v0,-32724(gp)
9d001734:	00402025 	move	a0,v0
9d001738:	0f401228 	jal	9d0048a0 <__floatsisf>
9d00173c:	00000000 	nop
9d001740:	8fc50010 	lw	a1,16(s8)
9d001744:	00402025 	move	a0,v0
9d001748:	0f40084e 	jal	9d002138 <__mulsf3>
9d00174c:	00000000 	nop
9d001750:	00408025 	move	s0,v0
9d001754:	87828028 	lh	v0,-32728(gp)
9d001758:	00402025 	move	a0,v0
9d00175c:	0f401228 	jal	9d0048a0 <__floatsisf>
9d001760:	00000000 	nop
9d001764:	00402825 	move	a1,v0
9d001768:	02002025 	move	a0,s0
9d00176c:	0f400503 	jal	9d00140c <__addsf3>
9d001770:	00000000 	nop
9d001774:	8fc50010 	lw	a1,16(s8)
9d001778:	00402025 	move	a0,v0
9d00177c:	0f40084e 	jal	9d002138 <__mulsf3>
9d001780:	00000000 	nop
9d001784:	00408025 	move	s0,v0
9d001788:	8f828020 	lw	v0,-32736(gp)
9d00178c:	00402025 	move	a0,v0
9d001790:	0f401228 	jal	9d0048a0 <__floatsisf>
9d001794:	00000000 	nop
9d001798:	00402825 	move	a1,v0
9d00179c:	02002025 	move	a0,s0
9d0017a0:	0f400503 	jal	9d00140c <__addsf3>
9d0017a4:	00000000 	nop
9d0017a8:	8fc50010 	lw	a1,16(s8)
9d0017ac:	00402025 	move	a0,v0
9d0017b0:	0f40084e 	jal	9d002138 <__mulsf3>
9d0017b4:	00000000 	nop
9d0017b8:	00408025 	move	s0,v0
                            ((scaledPres * dps368Cal_c21 + dps368Cal_c11) * scaledPres * scaledTemp) + (scaledTemp + dps368Cal_c01) + dps368Cal_c00;
9d0017bc:	8782802a 	lh	v0,-32726(gp)
9d0017c0:	00402025 	move	a0,v0
9d0017c4:	0f401228 	jal	9d0048a0 <__floatsisf>
9d0017c8:	00000000 	nop
9d0017cc:	8fc50010 	lw	a1,16(s8)
9d0017d0:	00402025 	move	a0,v0
9d0017d4:	0f40084e 	jal	9d002138 <__mulsf3>
9d0017d8:	00000000 	nop
9d0017dc:	00408825 	move	s1,v0
9d0017e0:	87828026 	lh	v0,-32730(gp)
9d0017e4:	00402025 	move	a0,v0
9d0017e8:	0f401228 	jal	9d0048a0 <__floatsisf>
9d0017ec:	00000000 	nop
9d0017f0:	00402825 	move	a1,v0
9d0017f4:	02202025 	move	a0,s1
9d0017f8:	0f400503 	jal	9d00140c <__addsf3>
9d0017fc:	00000000 	nop
9d001800:	8fc50010 	lw	a1,16(s8)
9d001804:	00402025 	move	a0,v0
9d001808:	0f40084e 	jal	9d002138 <__mulsf3>
9d00180c:	00000000 	nop
9d001810:	8fc50014 	lw	a1,20(s8)
9d001814:	00402025 	move	a0,v0
9d001818:	0f40084e 	jal	9d002138 <__mulsf3>
9d00181c:	00000000 	nop
    float compensatedPres = (((scaledPres * dps368Cal_c30 + dps368Cal_c20) * scaledPres + dps368Cal_c10) * scaledPres) +
9d001820:	00402825 	move	a1,v0
9d001824:	02002025 	move	a0,s0
9d001828:	0f400503 	jal	9d00140c <__addsf3>
9d00182c:	00000000 	nop
9d001830:	00408025 	move	s0,v0
                            ((scaledPres * dps368Cal_c21 + dps368Cal_c11) * scaledPres * scaledTemp) + (scaledTemp + dps368Cal_c01) + dps368Cal_c00;
9d001834:	87828024 	lh	v0,-32732(gp)
9d001838:	00402025 	move	a0,v0
9d00183c:	0f401228 	jal	9d0048a0 <__floatsisf>
9d001840:	00000000 	nop
9d001844:	8fc50014 	lw	a1,20(s8)
9d001848:	00402025 	move	a0,v0
9d00184c:	0f400503 	jal	9d00140c <__addsf3>
9d001850:	00000000 	nop
9d001854:	00402825 	move	a1,v0
9d001858:	02002025 	move	a0,s0
9d00185c:	0f400503 	jal	9d00140c <__addsf3>
9d001860:	00000000 	nop
9d001864:	00408025 	move	s0,v0
9d001868:	8f82801c 	lw	v0,-32740(gp)
9d00186c:	00402025 	move	a0,v0
9d001870:	0f401228 	jal	9d0048a0 <__floatsisf>
9d001874:	00000000 	nop
    float compensatedPres = (((scaledPres * dps368Cal_c30 + dps368Cal_c20) * scaledPres + dps368Cal_c10) * scaledPres) +
9d001878:	00402825 	move	a1,v0
9d00187c:	02002025 	move	a0,s0
9d001880:	0f400503 	jal	9d00140c <__addsf3>
9d001884:	00000000 	nop
9d001888:	afc20018 	sw	v0,24(s8)
    return compensatedPres;  //Return the calculated compensated pressure
9d00188c:	8fc20018 	lw	v0,24(s8)
}
9d001890:	03c0e825 	move	sp,s8
9d001894:	8fbf002c 	lw	ra,44(sp)
9d001898:	8fbe0028 	lw	s8,40(sp)
9d00189c:	8fb10024 	lw	s1,36(sp)
9d0018a0:	8fb00020 	lw	s0,32(sp)
9d0018a4:	27bd0030 	addiu	sp,sp,48
9d0018a8:	03e00008 	jr	ra
9d0018ac:	00000000 	nop

Disassembly of section .text.fp32div:

9d0018b0 <__divsf3>:
9d0018b0:	3c0b8000 000445c2 310800ff 000555c2     ...<.E.....1.U..
9d0018c0:	314a00ff 00043a00 00eb3825 00054a00     ..J1.:..%8...J..
9d0018d0:	012b4825 00857026 016e5824 250effff     %H+.&p..$Xn....%
9d0018e0:	2dc100fe 1020003f 00000000              ...-?. .....

9d0018ec <Dlab1>:
9d0018ec:	254effff 	addiu	t6,t2,-1
9d0018f0:	2dc100fe 	sltiu	at,t6,254
9d0018f4:	10200053 	beqz	at,9d001a44 <DspecB>
9d0018f8:	00000000 	nop

9d0018fc <Dlab2>:
9d0018fc:	00e9082b 	sltu	at,a3,t1
9d001900:	14200003 	bnez	at,9d001910 <i27>
9d001904:	00000000 	nop
9d001908:	00073842 	srl	a3,a3,0x1
9d00190c:	25080001 	addiu	t0,t0,1

9d001910 <i27>:
9d001910:	00096382 	srl	t4,t1,0xe
9d001914:	018001f4 	teq	t4,zero,0x7
9d001918:	00ec001b 	divu	zero,a3,t4
9d00191c:	00002012 	mflo	a0
9d001920:	00003010 	mfhi	a2
9d001924:	312d3fff 	andi	t5,t1,0x3fff
9d001928:	01a40019 	multu	t5,a0
9d00192c:	00002812 	mflo	a1
9d001930:	00063380 	sll	a2,a2,0xe
9d001934:	00c5702b 	sltu	t6,a2,a1
9d001938:	11c00004 	beqz	t6,9d00194c <i28>
9d00193c:	00c53023 	subu	a2,a2,a1
9d001940:	2484ffff 	addiu	a0,a0,-1
9d001944:	00c93021 	addu	a2,a2,t1
9d001948:	00c9702b 	sltu	t6,a2,t1

9d00194c <i28>:
9d00194c:	018001f4 	teq	t4,zero,0x7
9d001950:	00cc001b 	divu	zero,a2,t4
9d001954:	00003812 	mflo	a3
9d001958:	00003010 	mfhi	a2
9d00195c:	01a70019 	multu	t5,a3
9d001960:	00002812 	mflo	a1
9d001964:	00063380 	sll	a2,a2,0xe
9d001968:	00c5702b 	sltu	t6,a2,a1
9d00196c:	11c00004 	beqz	t6,9d001980 <i29>
9d001970:	00c53023 	subu	a2,a2,a1
9d001974:	24e7ffff 	addiu	a3,a3,-1
9d001978:	00c93021 	addu	a2,a2,t1
9d00197c:	00c9702b 	sltu	t6,a2,t1

9d001980 <i29>:
9d001980:	00047380 	sll	t6,a0,0xe
9d001984:	00ee3821 	addu	a3,a3,t6
9d001988:	10c00002 	beqz	a2,9d001994 <i30>
9d00198c:	00073900 	sll	a3,a3,0x4
9d001990:	34e70001 	ori	a3,a3,0x1

9d001994 <i30>:
9d001994:	240e007e 	li	t6,126
9d001998:	01ca7023 	subu	t6,t6,t2
9d00199c:	010e4021 	addu	t0,t0,t6
9d0019a0:	250effff 	addiu	t6,t0,-1
9d0019a4:	2dc100fe 	sltiu	at,t6,254
9d0019a8:	10200034 	beqz	at,9d001a7c <Doveund>
9d0019ac:	00000000 	nop

9d0019b0 <Dlab8>:
9d0019b0:	24e70080 	addiu	a3,a3,128
9d0019b4:	2cee0080 	sltiu	t6,a3,128
9d0019b8:	010e4021 	addu	t0,t0,t6
9d0019bc:	00077202 	srl	t6,a3,0x8
9d0019c0:	31ce0001 	andi	t6,t6,0x1
9d0019c4:	00ee3823 	subu	a3,a3,t6
9d0019c8:	00073840 	sll	a3,a3,0x1
9d0019cc:	00073a42 	srl	a3,a3,0x9
9d0019d0:	000875c0 	sll	t6,t0,0x17
9d0019d4:	00ee3825 	or	a3,a3,t6
9d0019d8:	00eb1025 	or	v0,a3,t3

9d0019dc <D999>:
9d0019dc:	03e00008 	jr	ra
9d0019e0:	00000000 	nop

9d0019e4 <DspecA>:
9d0019e4:	15000008 	bnez	t0,9d001a08 <i31>
9d0019e8:	00000000 	nop
9d0019ec:	00e73821 	addu	a3,a3,a3
9d0019f0:	10e00005 	beqz	a3,9d001a08 <i31>
9d0019f4:	00000000 	nop
9d0019f8:	70ec6020 	clz	t4,a3
9d0019fc:	010c4023 	subu	t0,t0,t4
9d001a00:	1000ffba 	b	9d0018ec <Dlab1>
9d001a04:	01873804 	sllv	a3,a3,t4

9d001a08 <i31>:
9d001a08:	15480004 	bne	t2,t0,9d001a1c <i33>
9d001a0c:	00000000 	nop
9d001a10:	01297021 	addu	t6,t1,t1
9d001a14:	11c0002f 	beqz	t6,9d001ad4 <Dnan>
9d001a18:	00000000 	nop

9d001a1c <i33>:
9d001a1c:	240100ff 	li	at,255
9d001a20:	11410008 	beq	t2,at,9d001a44 <DspecB>
9d001a24:	00000000 	nop
9d001a28:	11000012 	beqz	t0,9d001a74 <Dzer>
9d001a2c:	00000000 	nop
9d001a30:	00e77021 	addu	t6,a3,a3
9d001a34:	15c00027 	bnez	t6,9d001ad4 <Dnan>
9d001a38:	00000000 	nop
9d001a3c:	10000022 	b	9d001ac8 <Dinf>
9d001a40:	00000000 	nop

9d001a44 <DspecB>:
9d001a44:	15400008 	bnez	t2,9d001a68 <i34>
9d001a48:	00000000 	nop
9d001a4c:	01294821 	addu	t1,t1,t1
9d001a50:	1120001d 	beqz	t1,9d001ac8 <Dinf>
9d001a54:	00000000 	nop
9d001a58:	712c6020 	clz	t4,t1
9d001a5c:	014c5023 	subu	t2,t2,t4
9d001a60:	1000ffa6 	b	9d0018fc <Dlab2>
9d001a64:	01894804 	sllv	t1,t1,t4

9d001a68 <i34>:
9d001a68:	01297021 	addu	t6,t1,t1
9d001a6c:	15c00019 	bnez	t6,9d001ad4 <Dnan>
9d001a70:	00000000 	nop

9d001a74 <Dzer>:
9d001a74:	1000ffd9 	b	9d0019dc <D999>
9d001a78:	000b1025 	or	v0,zero,t3

9d001a7c <Doveund>:
9d001a7c:	1d000012 	bgtz	t0,9d001ac8 <Dinf>
9d001a80:	00000000 	nop
9d001a84:	240c0001 	li	t4,1
9d001a88:	01886023 	subu	t4,t4,t0
9d001a8c:	2d810020 	sltiu	at,t4,32
9d001a90:	1020fff8 	beqz	at,9d001a74 <Dzer>
9d001a94:	00000000 	nop
9d001a98:	240e0020 	li	t6,32
9d001a9c:	01cc7023 	subu	t6,t6,t4
9d001aa0:	01c74004 	sllv	t0,a3,t6
9d001aa4:	11000002 	beqz	t0,9d001ab0 <i37>
9d001aa8:	01873806 	srlv	a3,a3,t4
9d001aac:	34e70002 	ori	a3,a3,0x2

9d001ab0 <i37>:
9d001ab0:	24080000 	li	t0,0
9d001ab4:	24ee0080 	addiu	t6,a3,128
9d001ab8:	05c1ffbd 	bgez	t6,9d0019b0 <Dlab8>
9d001abc:	00000000 	nop
9d001ac0:	1000ffbb 	b	9d0019b0 <Dlab8>
9d001ac4:	24080001 	li	t0,1

9d001ac8 <Dinf>:
9d001ac8:	3c017f80 	lui	at,0x7f80
9d001acc:	1000ffc3 	b	9d0019dc <D999>
9d001ad0:	01611025 	or	v0,t3,at

9d001ad4 <Dnan>:
9d001ad4:	1000ffc1 	b	9d0019dc <D999>
9d001ad8:	3c02ffc0 	lui	v0,0xffc0
9d001adc:	00000000 	nop

Disassembly of section .text.initializeSSD1803A:

9d001ae0 <initializeSSD1803A>:
 *  Initialization Functions  *
 ******************************/

//Initialize Function, configures the chipset for the desired operating mode for the application
uint32_t initializeSSD1803A(SSD1803A_orientation_t orientation, SSD1803A_lineCount_t lines, SSD1803A_vBias_t lcdBias, SSD1803A_regulatorGain_t lcdGain)
{
9d001ae0:	27bdffd8 	addiu	sp,sp,-40
9d001ae4:	afbf0024 	sw	ra,36(sp)
9d001ae8:	afbe0020 	sw	s8,32(sp)
9d001aec:	03a0f025 	move	s8,sp
9d001af0:	afc40028 	sw	a0,40(s8)
9d001af4:	afc5002c 	sw	a1,44(s8)
9d001af8:	afc60030 	sw	a2,48(s8)
9d001afc:	afc70034 	sw	a3,52(s8)

#if 1
    uint32_t counter = 0x00000008;               //Create a temporary variable to use for iterating through each byte of the sequence
9d001b00:	24020008 	li	v0,8
9d001b04:	afc20010 	sw	v0,16(s8)
    uint8_t calculatedCommands[0x00000005];      //Declare a 4 byte long array for generating the commands to apply the runtime configuration settings
    const uint8_t* bytePointer = SSD1803A_Init;  //Declare a pointer with the address of the first item in the SSD1803A_Init array
9d001b08:	3c029d00 	lui	v0,0x9d00
9d001b0c:	24424c68 	addiu	v0,v0,19560
9d001b10:	afc20014 	sw	v0,20(s8)

    statusRegister_SSD1803A = 0x00000000;  //Clear the state of the drivers status register
9d001b14:	af808030 	sw	zero,-32720(gp)

    //Send each command in the array to the LCD controller
    while (counter--)
9d001b18:	1000000e 	b	9d001b54 <initializeSSD1803A+0x74>
9d001b1c:	00000000 	nop
    {
        if (!sendCommandSSD1803A(*bytePointer)) return 0x00000000;  //Try sending the command to the LCD controller, returning if it fails
9d001b20:	8fc20014 	lw	v0,20(s8)
9d001b24:	90420000 	lbu	v0,0(v0)
9d001b28:	00402025 	move	a0,v0
9d001b2c:	0f401185 	jal	9d004614 <sendCommandSSD1803A>
9d001b30:	00000000 	nop
9d001b34:	14400004 	bnez	v0,9d001b48 <initializeSSD1803A+0x68>
9d001b38:	00000000 	nop
9d001b3c:	00001025 	move	v0,zero
9d001b40:	1000006c 	b	9d001cf4 <initializeSSD1803A+0x214>
9d001b44:	00000000 	nop
        bytePointer++;                                              //Increment the address of bytePointer by 1
9d001b48:	8fc20014 	lw	v0,20(s8)
9d001b4c:	24420001 	addiu	v0,v0,1
9d001b50:	afc20014 	sw	v0,20(s8)
    while (counter--)
9d001b54:	8fc20010 	lw	v0,16(s8)
9d001b58:	2443ffff 	addiu	v1,v0,-1
9d001b5c:	afc30010 	sw	v1,16(s8)
9d001b60:	1440ffef 	bnez	v0,9d001b20 <initializeSSD1803A+0x40>
9d001b64:	00000000 	nop
    }

    calculatedCommands[0x00000000] = ((lcdBias & 0x00000001) << 0x00000003) | 0x13;  //Calculate the appropriate Internal OSC Frequency/Bias command
9d001b68:	8fc20030 	lw	v0,48(s8)
9d001b6c:	304200ff 	andi	v0,v0,0xff
9d001b70:	000210c0 	sll	v0,v0,0x3
9d001b74:	304200ff 	andi	v0,v0,0xff
9d001b78:	30420008 	andi	v0,v0,0x8
9d001b7c:	304200ff 	andi	v0,v0,0xff
9d001b80:	34420013 	ori	v0,v0,0x13
9d001b84:	304200ff 	andi	v0,v0,0xff
9d001b88:	a3c20018 	sb	v0,24(s8)
    calculatedCommands[0x00000001] = lcdGain;                                        //Use the provided Follower Control command
9d001b8c:	8fc20034 	lw	v0,52(s8)
9d001b90:	304200ff 	andi	v0,v0,0xff
9d001b94:	a3c20019 	sb	v0,25(s8)
    calculatedCommands[0x00000002] = 0x3A;                                           //Function Set, RE = 1, IS = 0
9d001b98:	2402003a 	li	v0,58
9d001b9c:	a3c2001a 	sb	v0,26(s8)
    calculatedCommands[0x00000003] = orientation;                                    //Use the provided Entry Set command
9d001ba0:	8fc20028 	lw	v0,40(s8)
9d001ba4:	304200ff 	andi	v0,v0,0xff
9d001ba8:	a3c2001b 	sb	v0,27(s8)
    calculatedCommands[0x00000004] = (lines & 0x0000001C) | (lcdBias & 0x00000002);  //Calculate the appropriate Double Height/Bias commands
9d001bac:	8fc2002c 	lw	v0,44(s8)
9d001bb0:	304200ff 	andi	v0,v0,0xff
9d001bb4:	3042001c 	andi	v0,v0,0x1c
9d001bb8:	304300ff 	andi	v1,v0,0xff
9d001bbc:	8fc20030 	lw	v0,48(s8)
9d001bc0:	304200ff 	andi	v0,v0,0xff
9d001bc4:	30420002 	andi	v0,v0,0x2
9d001bc8:	304200ff 	andi	v0,v0,0xff
9d001bcc:	00621025 	or	v0,v1,v0
9d001bd0:	304200ff 	andi	v0,v0,0xff
9d001bd4:	a3c2001c 	sb	v0,28(s8)

    //Store the provided settings into the drivers status register to use during other function calls
    statusRegister_SSD1803A = (((lines & 0x0000000C) | (lcdBias & 0x00000002)) << 0x00000006) | ((lcdBias & 0x00000001) << 0x00000004) |
9d001bd8:	8fc2002c 	lw	v0,44(s8)
9d001bdc:	3043000c 	andi	v1,v0,0xc
9d001be0:	8fc20030 	lw	v0,48(s8)
9d001be4:	30420002 	andi	v0,v0,0x2
9d001be8:	00621025 	or	v0,v1,v0
9d001bec:	00021980 	sll	v1,v0,0x6
9d001bf0:	8fc20030 	lw	v0,48(s8)
9d001bf4:	00021100 	sll	v0,v0,0x4
9d001bf8:	30420010 	andi	v0,v0,0x10
9d001bfc:	00621825 	or	v1,v1,v0
                              ((lines & 0x00000001) << 0x00000002) | 0x00000001;
9d001c00:	8fc2002c 	lw	v0,44(s8)
9d001c04:	00021080 	sll	v0,v0,0x2
9d001c08:	30420004 	andi	v0,v0,0x4
    statusRegister_SSD1803A = (((lines & 0x0000000C) | (lcdBias & 0x00000002)) << 0x00000006) | ((lcdBias & 0x00000001) << 0x00000004) |
9d001c0c:	00621025 	or	v0,v1,v0
                              ((lines & 0x00000001) << 0x00000002) | 0x00000001;
9d001c10:	34420001 	ori	v0,v0,0x1
    statusRegister_SSD1803A = (((lines & 0x0000000C) | (lcdBias & 0x00000002)) << 0x00000006) | ((lcdBias & 0x00000001) << 0x00000004) |
9d001c14:	af828030 	sw	v0,-32720(gp)
    
    counter = 0x00000005;              //Start the counter with a value of 5 this time
9d001c18:	24020005 	li	v0,5
9d001c1c:	afc20010 	sw	v0,16(s8)
    bytePointer = calculatedCommands;  //Copy the address of the first element in calculatedCommands into bytePointer
9d001c20:	27c20018 	addiu	v0,s8,24
9d001c24:	afc20014 	sw	v0,20(s8)

    //Send each command in the array to the LCD controller
    while (counter--)
9d001c28:	1000000e 	b	9d001c64 <initializeSSD1803A+0x184>
9d001c2c:	00000000 	nop
    {
        if (!sendCommandSSD1803A(*bytePointer)) return 0x00000000;  //Try sending the command to the LCD controller, returning if it fails
9d001c30:	8fc20014 	lw	v0,20(s8)
9d001c34:	90420000 	lbu	v0,0(v0)
9d001c38:	00402025 	move	a0,v0
9d001c3c:	0f401185 	jal	9d004614 <sendCommandSSD1803A>
9d001c40:	00000000 	nop
9d001c44:	14400004 	bnez	v0,9d001c58 <initializeSSD1803A+0x178>
9d001c48:	00000000 	nop
9d001c4c:	00001025 	move	v0,zero
9d001c50:	10000028 	b	9d001cf4 <initializeSSD1803A+0x214>
9d001c54:	00000000 	nop
        bytePointer++;                                              //Increment the address of bytePointer by 1
9d001c58:	8fc20014 	lw	v0,20(s8)
9d001c5c:	24420001 	addiu	v0,v0,1
9d001c60:	afc20014 	sw	v0,20(s8)
    while (counter--)
9d001c64:	8fc20010 	lw	v0,16(s8)
9d001c68:	2443ffff 	addiu	v1,v0,-1
9d001c6c:	afc30010 	sw	v1,16(s8)
9d001c70:	1440ffef 	bnez	v0,9d001c30 <initializeSSD1803A+0x150>
9d001c74:	00000000 	nop
    }

    counter = 0x00000003 + (lines & 0x00000001);  //Set the counter to 4 or 5 depending if Bit-0 of the lines argument is set
9d001c78:	8fc2002c 	lw	v0,44(s8)
9d001c7c:	30420001 	andi	v0,v0,0x1
9d001c80:	24420003 	addiu	v0,v0,3
9d001c84:	afc20010 	sw	v0,16(s8)
    bytePointer = SSD1803A_Init + 0x00000008;     //Copy the address of the 11th index in the SSD1803A_Init array into bytePointer
9d001c88:	3c029d00 	lui	v0,0x9d00
9d001c8c:	24424c70 	addiu	v0,v0,19568
9d001c90:	afc20014 	sw	v0,20(s8)

    //Send each command in the array to the LCD controller
    while (counter--)
9d001c94:	1000000e 	b	9d001cd0 <initializeSSD1803A+0x1f0>
9d001c98:	00000000 	nop
    {
        if (!sendCommandSSD1803A(*bytePointer)) return 0x00000000;  //Try sending the command to the LCD controller, returning if it fails
9d001c9c:	8fc20014 	lw	v0,20(s8)
9d001ca0:	90420000 	lbu	v0,0(v0)
9d001ca4:	00402025 	move	a0,v0
9d001ca8:	0f401185 	jal	9d004614 <sendCommandSSD1803A>
9d001cac:	00000000 	nop
9d001cb0:	14400004 	bnez	v0,9d001cc4 <initializeSSD1803A+0x1e4>
9d001cb4:	00000000 	nop
9d001cb8:	00001025 	move	v0,zero
9d001cbc:	1000000d 	b	9d001cf4 <initializeSSD1803A+0x214>
9d001cc0:	00000000 	nop
        bytePointer++;                                              //Increment the address of bytePointer by 1
9d001cc4:	8fc20014 	lw	v0,20(s8)
9d001cc8:	24420001 	addiu	v0,v0,1
9d001ccc:	afc20014 	sw	v0,20(s8)
    while (counter--)
9d001cd0:	8fc20010 	lw	v0,16(s8)
9d001cd4:	2443ffff 	addiu	v1,v0,-1
9d001cd8:	afc30010 	sw	v1,16(s8)
9d001cdc:	1440ffef 	bnez	v0,9d001c9c <initializeSSD1803A+0x1bc>
9d001ce0:	00000000 	nop
    }

    statusRegister_SSD1803A &= 0xFFFFFFFFE;  //Update the driver status register to match
9d001ce4:	8f828030 	lw	v0,-32720(gp)
9d001ce8:	7c020004 	ins	v0,zero,0x0,0x1
9d001cec:	af828030 	sw	v0,-32720(gp)
    }

#endif


    return 0xFFFFFFFF;  //Return with all bits set to indicate the initialization procedure succeeded
9d001cf0:	2402ffff 	li	v0,-1
}
9d001cf4:	03c0e825 	move	sp,s8
9d001cf8:	8fbf0024 	lw	ra,36(sp)
9d001cfc:	8fbe0020 	lw	s8,32(sp)
9d001d00:	27bd0028 	addiu	sp,sp,40
9d001d04:	03e00008 	jr	ra
9d001d08:	00000000 	nop

Disassembly of section .text.setupMCU:

9d001d0c <setupMCU>:
 *  Main Program  *
 ******************/

//Setup MCU Function, sets the appropriate control registers on the MCU needed to make things work for the application
inline void setupMCU()
{
9d001d0c:	27bdffe8 	addiu	sp,sp,-24
9d001d10:	afbf0014 	sw	ra,20(sp)
9d001d14:	afbe0010 	sw	s8,16(sp)
9d001d18:	03a0f025 	move	s8,sp
    asm volatile ("di");  //Disable interrupts for the duration of the setup routine
9d001d1c:	41606000 	di

    //Configure Port A
    LATA = 0x00000000;   //Clear all of Port A to logic LOW
9d001d20:	3c02bf88 	lui	v0,0xbf88
9d001d24:	ac406030 	sw	zero,24624(v0)
    TRISA = 0x00000018;  //Set RA0 and RA1 to outputs
9d001d28:	3c02bf88 	lui	v0,0xbf88
9d001d2c:	24030018 	li	v1,24
9d001d30:	ac436010 	sw	v1,24592(v0)

    //Configure Port B
    ANSELB = 0x00006003;  //Force RB2, RB3, and RB15 to fully digital IO, allowing the I2C peripheral and external interrupt to function correctly
9d001d34:	3c02bf88 	lui	v0,0xbf88
9d001d38:	24036003 	li	v1,24579
9d001d3c:	ac436100 	sw	v1,24832(v0)
    LATB = 0x00001000;    //Clear all of Port B to logic LOW, setting RB12 to logic HIGH
9d001d40:	3c02bf88 	lui	v0,0xbf88
9d001d44:	24031000 	li	v1,4096
9d001d48:	ac436130 	sw	v1,24880(v0)
    ODCB = 0x00001000;    //Enable the open-drain function on RB12
9d001d4c:	3c02bf88 	lui	v0,0xbf88
9d001d50:	24031000 	li	v1,4096
9d001d54:	ac436140 	sw	v1,24896(v0)
    CNENB = 0x000003C0;   //Enable change notification interrupts on inputs RB6 through RB9
9d001d58:	3c02bf88 	lui	v0,0xbf88
9d001d5c:	240303c0 	li	v1,960
9d001d60:	ac436180 	sw	v1,24960(v0)
    TRISB = 0x0000EBFF;   //Set RB10 and RB12 to outputs
9d001d64:	3c02bf88 	lui	v0,0xbf88
9d001d68:	3403ebff 	li	v1,0xebff
9d001d6c:	ac436110 	sw	v1,24848(v0)

    //Configure PPS connections
    RPA3R = 0x00000002;   //Assign RA3 to the TX output of UART2
9d001d70:	3c02bf81 	lui	v0,0xbf81
9d001d74:	24030002 	li	v1,2
9d001d78:	ac43fb0c 	sw	v1,-1268(v0)
    U2RXR = 0x00000001;   //Assign RB5 to the RX input of UART2
9d001d7c:	3c02bf81 	lui	v0,0xbf81
9d001d80:	24030001 	li	v1,1
9d001d84:	ac43fa58 	sw	v1,-1448(v0)
    RPB13R = 0x00000003;  //Assign RB13 to the SDO output of SPI1
9d001d88:	3c02bf81 	lui	v0,0xbf81
9d001d8c:	24030003 	li	v1,3
9d001d90:	ac43fb60 	sw	v1,-1184(v0)
    SDI1R = 0x00000003;   //Assign RB11 to the SDI input of SPI1
9d001d94:	3c02bf81 	lui	v0,0xbf81
9d001d98:	24030003 	li	v1,3
9d001d9c:	ac43fa84 	sw	v1,-1404(v0)
    INT4R = 0x00000003;   //Assign RB15 to the 4th external interrupt
9d001da0:	3c02bf81 	lui	v0,0xbf81
9d001da4:	24030003 	li	v1,3
9d001da8:	ac43fa10 	sw	v1,-1520(v0)
    
    //Enable and configure the first SPI peripheral, SPI1
    SPI1BRG = 0x00000001;   //Set the clock frequency of SPI1 to operate at 4MHz
9d001dac:	3c02bf80 	lui	v0,0xbf80
9d001db0:	24030001 	li	v1,1
9d001db4:	ac435830 	sw	v1,22576(v0)
    SPI1CON2 = 0x00000C00;  //Disable all audio codec functionality of SPI1
9d001db8:	3c02bf80 	lui	v0,0xbf80
9d001dbc:	24030c00 	li	v1,3072
9d001dc0:	ac435840 	sw	v1,22592(v0)
    SPI1CON = 0x00008120;   //Enable SPI1 in master mode, configured for 8-bit words in standard buffer mode
9d001dc4:	3c02bf80 	lui	v0,0xbf80
9d001dc8:	34038120 	li	v1,0x8120
9d001dcc:	ac435800 	sw	v1,22528(v0)

    //Enable and configure the second I2C peripheral, I2C2
    I2C2BRG = 0x00000008;  //Set the bus speed of I2C2 to ~429kHz
9d001dd0:	3c02bf80 	lui	v0,0xbf80
9d001dd4:	24030008 	li	v1,8
9d001dd8:	ac435140 	sw	v1,20800(v0)
    I2C2CON = 0x0000A002;  //Enable I2C2 with the stop in idle mode active
9d001ddc:	3c02bf80 	lui	v0,0xbf80
9d001de0:	3403a002 	li	v1,0xa002
9d001de4:	ac435100 	sw	v1,20736(v0)

#ifdef __BUILD_DEVELOPMENT__
    //Enable and configure the second UART peripheral, UART2
    U2BRG = 0x00000019;   //Set the baud rate of UART2 to operate at roughly 19200bps
9d001de8:	3c02bf80 	lui	v0,0xbf80
9d001dec:	24030019 	li	v1,25
9d001df0:	ac436240 	sw	v1,25152(v0)
    U2STA = 0x00008400;   //Enable the transmitter with the interrupt asserted on an empty TX buffer
9d001df4:	3c02bf80 	lui	v0,0xbf80
9d001df8:	34038400 	li	v1,0x8400
9d001dfc:	ac436210 	sw	v1,25104(v0)
    U2MODE = 0x00008000;  //Enable UART2 in standard baud mode
9d001e00:	3c02bf80 	lui	v0,0xbf80
9d001e04:	34038000 	li	v1,0x8000
9d001e08:	ac436200 	sw	v1,25088(v0)

    //Enable the DMA peripheral
    DMACON = 0x00008000;
9d001e0c:	3c02bf88 	lui	v0,0xbf88
9d001e10:	34038000 	li	v1,0x8000
9d001e14:	ac433000 	sw	v1,12288(v0)

    //Configure DMA 1 for SPI TX transfers

    //Configure DMA 2 for UART TX transfers
    DCH2DSIZ = 0x00000001;          //Destination pointer has a size of 1 byte
9d001e18:	3c02bf88 	lui	v0,0xbf88
9d001e1c:	24030001 	li	v1,1
9d001e20:	ac433240 	sw	v1,12864(v0)
    DCH2CSIZ = 0x00000001;          //Use a cell size of 1, ensuring only 1 byte is transfered at a time
9d001e24:	3c02bf88 	lui	v0,0xbf88
9d001e28:	24030001 	li	v1,1
9d001e2c:	ac433270 	sw	v1,12912(v0)
    DCH2DSA = KVA_TO_PA(&U2TXREG);  //Assign the destination address of DMA2 to the transmit buffer of UART2
9d001e30:	3c02bf80 	lui	v0,0xbf80
9d001e34:	24426220 	addiu	v0,v0,25120
9d001e38:	7c43e000 	ext	v1,v0,0x0,0x1d
9d001e3c:	3c02bf88 	lui	v0,0xbf88
9d001e40:	ac433220 	sw	v1,12832(v0)
    DCH2DAT = 0x00000000;           //Use a NULL character as the termination byte for the transfer sequence
9d001e44:	3c02bf88 	lui	v0,0xbf88
9d001e48:	ac403290 	sw	zero,12944(v0)
    DCH2CON = 0x00000000;           //Setup DMA2 for pattern matching with the lowest DMA priority
9d001e4c:	3c02bf88 	lui	v0,0xbf88
9d001e50:	ac4031e0 	sw	zero,12768(v0)
    DCH2ECON = 0x00003730;          //Using pattern match mode, allow start events from IRQ 55 (UART2 TX interrupt)
9d001e54:	3c02bf88 	lui	v0,0xbf88
9d001e58:	24033730 	li	v1,14128
9d001e5c:	ac4331f0 	sw	v1,12784(v0)
    DCH2INT = 0x00080000;           //Enable block transfer complete interrupts for DMA 2
9d001e60:	3c02bf88 	lui	v0,0xbf88
9d001e64:	3c030008 	lui	v1,0x8
9d001e68:	ac433200 	sw	v1,12800(v0)
#endif

    //Prepare for configuration of the RTCC peripheral
    SYSKEY = 0x00000000;  //Reset the register lock state machine by writing a 0 to it
9d001e6c:	3c02bf81 	lui	v0,0xbf81
9d001e70:	ac40f230 	sw	zero,-3536(v0)
    SYSKEY = 0xAA996655;  //Write the first unlock key to the SYSKEY register
9d001e74:	3c02bf81 	lui	v0,0xbf81
9d001e78:	3c03aa99 	lui	v1,0xaa99
9d001e7c:	34636655 	ori	v1,v1,0x6655
9d001e80:	ac43f230 	sw	v1,-3536(v0)
    SYSKEY = 0x556699AA;  //Write the second unlock key to the register to finally unlock all protected registers
9d001e84:	3c02bf81 	lui	v0,0xbf81
9d001e88:	3c035566 	lui	v1,0x5566
9d001e8c:	346399aa 	ori	v1,v1,0x99aa
9d001e90:	ac43f230 	sw	v1,-3536(v0)
    RTCCON = 0x00000008;  //Set Bit-3 of RTCCON to enable writes to all RTCC related registers
9d001e94:	3c02bf80 	lui	v0,0xbf80
9d001e98:	24030008 	li	v1,8
9d001e9c:	ac430200 	sw	v1,512(v0)
    SYSKEY = 0x00000000;  //Lock the protected registers now that we're done writing to protected registers
9d001ea0:	3c02bf81 	lui	v0,0xbf81
9d001ea4:	ac40f230 	sw	zero,-3536(v0)

    //Configure the RTCC
    ALRMTIME = configSampleInterval;  //Set the alarm time of the RTCC to the application configured sample interval
9d001ea8:	24031500 	li	v1,5376
9d001eac:	3c02bf80 	lui	v0,0xbf80
9d001eb0:	ac430240 	sw	v1,576(v0)
    ALRMDATE = 0x00000000;            //Set the desired RTCC alarm date
9d001eb4:	3c02bf80 	lui	v0,0xbf80
9d001eb8:	ac400250 	sw	zero,592(v0)
    RTCCON = 0x00002208;              //Configure the RTCC to use SOSC as the source clock with stop-in-idle mode active
9d001ebc:	3c02bf80 	lui	v0,0xbf80
9d001ec0:	24032208 	li	v1,8712
9d001ec4:	ac430200 	sw	v1,512(v0)

    //Configure Timer 1
    PR1 = 0x00004FFF;    //Use a period of 0x0FFF for Timer 1
9d001ec8:	3c02bf80 	lui	v0,0xbf80
9d001ecc:	24034fff 	li	v1,20479
9d001ed0:	ac430620 	sw	v1,1568(v0)
    T1CON = 0x00000002;  //Enable Timer 1 using the secondary oscillator as the clock source with a 1:1 pre-scaler
9d001ed4:	3c02bf80 	lui	v0,0xbf80
9d001ed8:	24030002 	li	v1,2
9d001edc:	ac430600 	sw	v1,1536(v0)
    TMR1 = 0x00000000;   //Clear the contents of the Timer 1 count register
9d001ee0:	3c02bf80 	lui	v0,0xbf80
9d001ee4:	ac400610 	sw	zero,1552(v0)

    //Configure Timer 2
    PR2 = 0x0000FFFF;    //Use a period of 0xFFFF for Timer 2
9d001ee8:	3c02bf80 	lui	v0,0xbf80
9d001eec:	3403ffff 	li	v1,0xffff
9d001ef0:	ac430820 	sw	v1,2080(v0)
    T2CON = 0x00000000;  //Enable Timer 2 using PBCLK as the source with no pre-scalar
9d001ef4:	3c02bf80 	lui	v0,0xbf80
9d001ef8:	ac400800 	sw	zero,2048(v0)
    TMR2 = 0x00000000;   //Clear the contents of the Timer 2 count register
9d001efc:	3c02bf80 	lui	v0,0xbf80

    setupInterrupts();               //Setup the interrupt controller of the MCU and enable interrupts
9d001f00:	0f400e0a 	jal	9d003828 <setupInterrupts>
9d001f04:	ac400810 	sw	zero,2064(v0)
}
9d001f08:	00000000 	nop
9d001f0c:	03c0e825 	move	sp,s8
9d001f10:	8fbf0014 	lw	ra,20(sp)
9d001f14:	8fbe0010 	lw	s8,16(sp)
9d001f18:	27bd0018 	addiu	sp,sp,24
9d001f1c:	03e00008 	jr	ra
9d001f20:	00000000 	nop

Disassembly of section .text.initializeDPS368:

9d001f24 <initializeDPS368>:
{
9d001f24:	27bdffd8 	addiu	sp,sp,-40
9d001f28:	afbf0024 	sw	ra,36(sp)
9d001f2c:	afbe0020 	sw	s8,32(sp)
9d001f30:	03a0f025 	move	s8,sp
9d001f34:	afc40028 	sw	a0,40(s8)
9d001f38:	afc5002c 	sw	a1,44(s8)
9d001f3c:	afc60030 	sw	a2,48(s8)
9d001f40:	afc70034 	sw	a3,52(s8)
    presOversample &= 0x00000007;  //Keep only the 3 least significant bits of the provided pressure oversampling setting
9d001f44:	8fc20028 	lw	v0,40(s8)
9d001f48:	30420007 	andi	v0,v0,0x7
9d001f4c:	afc20028 	sw	v0,40(s8)
    tempOversample &= 0x00000007;  //Keep only the 3 least significant bits of the provided temperature oversampling setting
9d001f50:	8fc20030 	lw	v0,48(s8)
9d001f54:	30420007 	andi	v0,v0,0x7
9d001f58:	afc20030 	sw	v0,48(s8)
    presScalingFactorDPS368 = dps368Cal_scalingFactors[presOversample];  //Use the lookup table to set the scaling factor for pressure results based on the given oversampling setting
9d001f5c:	3c029d00 	lui	v0,0x9d00
9d001f60:	8fc30028 	lw	v1,40(s8)
9d001f64:	00031880 	sll	v1,v1,0x2
9d001f68:	24424b6c 	addiu	v0,v0,19308
9d001f6c:	00621021 	addu	v0,v1,v0
9d001f70:	8c420000 	lw	v0,0(v0)
9d001f74:	af828010 	sw	v0,-32752(gp)
    tempScalingFactorDPS368 = dps368Cal_scalingFactors[tempOversample];  //Use the lookup table to set the scaling factor for temperature results based on the given oversampling setting
9d001f78:	3c029d00 	lui	v0,0x9d00
9d001f7c:	8fc30030 	lw	v1,48(s8)
9d001f80:	00031880 	sll	v1,v1,0x2
9d001f84:	24424b6c 	addiu	v0,v0,19308
9d001f88:	00621021 	addu	v0,v1,v0
9d001f8c:	8c420000 	lw	v0,0(v0)
9d001f90:	af828014 	sw	v0,-32748(gp)
    uint8_t *arrayPointer = dataBuffer + 0x00000002;  //Declare a pointer that points to the array
9d001f94:	27c20014 	addiu	v0,s8,20
9d001f98:	24420002 	addiu	v0,v0,2
9d001f9c:	afc20010 	sw	v0,16(s8)
    *arrayPointer = 0x28;  //Write the address of the COEF_SRCE register on the sensor into the array
9d001fa0:	8fc20010 	lw	v0,16(s8)
9d001fa4:	24030028 	li	v1,40
9d001fa8:	a0430000 	sb	v1,0(v0)
    if (!readFromI2C(DPS368_I2C_ADDR, arrayPointer, 0x00000001, 0x01)) return 0x00000000;  //Attempt to read the contents of the register, exiting the function when no response is obtained
9d001fac:	24070001 	li	a3,1
9d001fb0:	24060001 	li	a2,1
9d001fb4:	8fc50010 	lw	a1,16(s8)
9d001fb8:	24040076 	li	a0,118
9d001fbc:	0f4008bd 	jal	9d0022f4 <readFromI2C>
9d001fc0:	00000000 	nop
9d001fc4:	14400004 	bnez	v0,9d001fd8 <initializeDPS368+0xb4>
9d001fc8:	00000000 	nop
9d001fcc:	00001025 	move	v0,zero
9d001fd0:	10000053 	b	9d002120 <initializeDPS368+0x1fc>
9d001fd4:	00000000 	nop
    arrayPointer = dataBuffer;  //Re-point arrayPointer back to the first index of the dataBuffer array
9d001fd8:	27c20014 	addiu	v0,s8,20
9d001fdc:	afc20010 	sw	v0,16(s8)
    *arrayPointer++ = 0x06;     //Write the address of the PRS_CFG register in the sensor to the first index of the configuration bytes
9d001fe0:	8fc20010 	lw	v0,16(s8)
9d001fe4:	24430001 	addiu	v1,v0,1
9d001fe8:	afc30010 	sw	v1,16(s8)
9d001fec:	24030006 	li	v1,6
9d001ff0:	a0430000 	sb	v1,0(v0)
    *arrayPointer++ = ((presMeasureRate & 0x00000007) << 0x00000004) | (presOversample);                           //Form the configuration byte for the PRS_CFG register
9d001ff4:	8fc2002c 	lw	v0,44(s8)
9d001ff8:	304200ff 	andi	v0,v0,0xff
9d001ffc:	00021100 	sll	v0,v0,0x4
9d002000:	304200ff 	andi	v0,v0,0xff
9d002004:	30420070 	andi	v0,v0,0x70
9d002008:	304400ff 	andi	a0,v0,0xff
9d00200c:	8fc20028 	lw	v0,40(s8)
9d002010:	304300ff 	andi	v1,v0,0xff
9d002014:	8fc20010 	lw	v0,16(s8)
9d002018:	24450001 	addiu	a1,v0,1
9d00201c:	afc50010 	sw	a1,16(s8)
9d002020:	00831825 	or	v1,a0,v1
9d002024:	306300ff 	andi	v1,v1,0xff
9d002028:	a0430000 	sb	v1,0(v0)
    *arrayPointer++ = ((tempMeasureRate & 0x00000007) << 0x00000004) | (tempOversample) | (*arrayPointer & 0x80);  //Form the configuration byte for the TMP_CFG register
9d00202c:	8fc20034 	lw	v0,52(s8)
9d002030:	304200ff 	andi	v0,v0,0xff
9d002034:	00021100 	sll	v0,v0,0x4
9d002038:	304200ff 	andi	v0,v0,0xff
9d00203c:	30420070 	andi	v0,v0,0x70
9d002040:	304300ff 	andi	v1,v0,0xff
9d002044:	8fc20030 	lw	v0,48(s8)
9d002048:	304200ff 	andi	v0,v0,0xff
9d00204c:	00621025 	or	v0,v1,v0
9d002050:	304400ff 	andi	a0,v0,0xff
9d002054:	8fc20010 	lw	v0,16(s8)
9d002058:	90420000 	lbu	v0,0(v0)
9d00205c:	7c023004 	ins	v0,zero,0x0,0x7
9d002060:	304300ff 	andi	v1,v0,0xff
9d002064:	8fc20010 	lw	v0,16(s8)
9d002068:	24450001 	addiu	a1,v0,1
9d00206c:	afc50010 	sw	a1,16(s8)
9d002070:	00831825 	or	v1,a0,v1
9d002074:	306300ff 	andi	v1,v1,0xff
9d002078:	a0430000 	sb	v1,0(v0)
    *arrayPointer++ = 0x00;                                                                                        //Form the configuration byte for the MEAS_CFG register
9d00207c:	8fc20010 	lw	v0,16(s8)
9d002080:	24430001 	addiu	v1,v0,1
9d002084:	afc30010 	sw	v1,16(s8)
9d002088:	a0400000 	sb	zero,0(v0)
    *arrayPointer = 0x00;                                                                                          //Form the starting configuration byte for the CFG_REG register
9d00208c:	8fc20010 	lw	v0,16(s8)
9d002090:	a0400000 	sb	zero,0(v0)
    if (enableFIFO) *arrayPointer |= 0x02;                    //Set Bit-1 in CFG_REG to enable the use of the FIFO buffer
9d002094:	8fc20038 	lw	v0,56(s8)
9d002098:	10400007 	beqz	v0,9d0020b8 <initializeDPS368+0x194>
9d00209c:	00000000 	nop
9d0020a0:	8fc20010 	lw	v0,16(s8)
9d0020a4:	90420000 	lbu	v0,0(v0)
9d0020a8:	34420002 	ori	v0,v0,0x2
9d0020ac:	304300ff 	andi	v1,v0,0xff
9d0020b0:	8fc20010 	lw	v0,16(s8)
9d0020b4:	a0430000 	sb	v1,0(v0)
    if (presOversample >= 0x00000004) *arrayPointer |= 0x04;  //Set Bit-2 in CFG_REG to activate the pressure result bit-shift mode when oversampling 8 or more times per measurement
9d0020b8:	8fc20028 	lw	v0,40(s8)
9d0020bc:	2c420004 	sltiu	v0,v0,4
9d0020c0:	14400007 	bnez	v0,9d0020e0 <initializeDPS368+0x1bc>
9d0020c4:	00000000 	nop
9d0020c8:	8fc20010 	lw	v0,16(s8)
9d0020cc:	90420000 	lbu	v0,0(v0)
9d0020d0:	34420004 	ori	v0,v0,0x4
9d0020d4:	304300ff 	andi	v1,v0,0xff
9d0020d8:	8fc20010 	lw	v0,16(s8)
9d0020dc:	a0430000 	sb	v1,0(v0)
    if (tempOversample >= 0x00000004) *arrayPointer |= 0x08;  //Set Bit-3 in CFG_REG to activate the temperature result bit-shift mode when oversampling 8 or more times per measurement
9d0020e0:	8fc20030 	lw	v0,48(s8)
9d0020e4:	2c420004 	sltiu	v0,v0,4
9d0020e8:	14400007 	bnez	v0,9d002108 <initializeDPS368+0x1e4>
9d0020ec:	00000000 	nop
9d0020f0:	8fc20010 	lw	v0,16(s8)
9d0020f4:	90420000 	lbu	v0,0(v0)
9d0020f8:	34420008 	ori	v0,v0,0x8
9d0020fc:	304300ff 	andi	v1,v0,0xff
9d002100:	8fc20010 	lw	v0,16(s8)
9d002104:	a0430000 	sb	v1,0(v0)
    return writeToI2C(DPS368_I2C_ADDR, dataBuffer, 0x00000005);  //Send the configuration data to the sensor returning whether the I2C write operation was successful or not
9d002108:	27c20014 	addiu	v0,s8,20
9d00210c:	24060005 	li	a2,5
9d002110:	00402825 	move	a1,v0
9d002114:	24040076 	li	a0,118
9d002118:	0f400b9f 	jal	9d002e7c <writeToI2C>
9d00211c:	00000000 	nop
}
9d002120:	03c0e825 	move	sp,s8
9d002124:	8fbf0024 	lw	ra,36(sp)
9d002128:	8fbe0020 	lw	s8,32(sp)
9d00212c:	27bd0028 	addiu	sp,sp,40
9d002130:	03e00008 	jr	ra
9d002134:	00000000 	nop

Disassembly of section .text.fp32mul:

9d002138 <__mulsf3>:
9d002138:	00043dc2 30e700ff 00054dc2 312900ff     .=.....0.M....)1
9d002148:	3c0a8000 00043200 00ca3025 00054200     ...<.2..%0...B..
9d002158:	010a4025 00856026 014c5024 24ecffff     %@..&`..$PL....$
9d002168:	2d8100fe 10200021 00000000              ...-!. .....

9d002174 <Clab1>:
9d002174:	252cffff 	addiu	t4,t1,-1
9d002178:	2d8100fe 	sltiu	at,t4,254
9d00217c:	10200036 	beqz	at,9d002258 <CspecB>
9d002180:	00000000 	nop

9d002184 <Clab2>:
9d002184:	00c80019 	multu	a2,t0
9d002188:	00005812 	mflo	t3
9d00218c:	11600002 	beqz	t3,9d002198 <i17>
9d002190:	00003010 	mfhi	a2
9d002194:	34c60001 	ori	a2,a2,0x1

9d002198 <i17>:
9d002198:	04c00003 	bltz	a2,9d0021a8 <i18>
9d00219c:	00000000 	nop
9d0021a0:	00063040 	sll	a2,a2,0x1
9d0021a4:	24e7ffff 	addiu	a3,a3,-1

9d0021a8 <i18>:
9d0021a8:	252cff82 	addiu	t4,t1,-126
9d0021ac:	00ec3821 	addu	a3,a3,t4
9d0021b0:	24ecffff 	addiu	t4,a3,-1
9d0021b4:	2d8100fe 	sltiu	at,t4,254
9d0021b8:	1020003a 	beqz	at,9d0022a4 <Coveund>
9d0021bc:	00000000 	nop

9d0021c0 <Clab8>:
9d0021c0:	24c60080 	addiu	a2,a2,128
9d0021c4:	2ccc0080 	sltiu	t4,a2,128
9d0021c8:	00ec3821 	addu	a3,a3,t4
9d0021cc:	00066202 	srl	t4,a2,0x8
9d0021d0:	318c0001 	andi	t4,t4,0x1
9d0021d4:	00cc3023 	subu	a2,a2,t4
9d0021d8:	00063040 	sll	a2,a2,0x1
9d0021dc:	00063242 	srl	a2,a2,0x9
9d0021e0:	000765c0 	sll	t4,a3,0x17
9d0021e4:	00cc3025 	or	a2,a2,t4
9d0021e8:	00ca1025 	or	v0,a2,t2

9d0021ec <C999>:
9d0021ec:	03e00008 	jr	ra
9d0021f0:	00000000 	nop

9d0021f4 <CspecA>:
9d0021f4:	14e0000d 	bnez	a3,9d00222c <i19>
9d0021f8:	00000000 	nop
9d0021fc:	00c63021 	addu	a2,a2,a2
9d002200:	10c00005 	beqz	a2,9d002218 <i20>
9d002204:	00000000 	nop
9d002208:	70cb5820 	clz	t3,a2
9d00220c:	00eb3823 	subu	a3,a3,t3
9d002210:	1000ffd8 	b	9d002174 <Clab1>
9d002214:	01663004 	sllv	a2,a2,t3

9d002218 <i20>:
9d002218:	240100ff 	li	at,255
9d00221c:	1121001f 	beq	t1,at,9d00229c <Cnan>
9d002220:	00000000 	nop
9d002224:	10000015 	b	9d00227c <Czer>
9d002228:	00000000 	nop

9d00222c <i19>:
9d00222c:	00c66021 	addu	t4,a2,a2
9d002230:	1580001a 	bnez	t4,9d00229c <Cnan>
9d002234:	00000000 	nop
9d002238:	15200004 	bnez	t1,9d00224c <i21>
9d00223c:	00000000 	nop
9d002240:	01086021 	addu	t4,t0,t0
9d002244:	11800015 	beqz	t4,9d00229c <Cnan>
9d002248:	00000000 	nop

9d00224c <i21>:
9d00224c:	240100ff 	li	at,255
9d002250:	1521000f 	bne	t1,at,9d002290 <Cinf>
9d002254:	00000000 	nop

9d002258 <CspecB>:
9d002258:	1520000a 	bnez	t1,9d002284 <i22>
9d00225c:	00000000 	nop
9d002260:	01084021 	addu	t0,t0,t0
9d002264:	11000005 	beqz	t0,9d00227c <Czer>
9d002268:	00000000 	nop
9d00226c:	710b5820 	clz	t3,t0
9d002270:	012b4823 	subu	t1,t1,t3
9d002274:	1000ffc3 	b	9d002184 <Clab2>
9d002278:	01684004 	sllv	t0,t0,t3

9d00227c <Czer>:
9d00227c:	1000ffdb 	b	9d0021ec <C999>
9d002280:	000a1025 	or	v0,zero,t2

9d002284 <i22>:
9d002284:	01086021 	addu	t4,t0,t0
9d002288:	15800004 	bnez	t4,9d00229c <Cnan>
9d00228c:	00000000 	nop

9d002290 <Cinf>:
9d002290:	3c017f80 	lui	at,0x7f80
9d002294:	1000ffd5 	b	9d0021ec <C999>
9d002298:	01411025 	or	v0,t2,at

9d00229c <Cnan>:
9d00229c:	1000ffd3 	b	9d0021ec <C999>
9d0022a0:	3c02ffc0 	lui	v0,0xffc0

9d0022a4 <Coveund>:
9d0022a4:	1ce0fffa 	bgtz	a3,9d002290 <Cinf>
9d0022a8:	00000000 	nop
9d0022ac:	240b0001 	li	t3,1
9d0022b0:	01675823 	subu	t3,t3,a3
9d0022b4:	2d610020 	sltiu	at,t3,32
9d0022b8:	1020fff0 	beqz	at,9d00227c <Czer>
9d0022bc:	00000000 	nop
9d0022c0:	240c0020 	li	t4,32
9d0022c4:	018b6023 	subu	t4,t4,t3
9d0022c8:	01863804 	sllv	a3,a2,t4
9d0022cc:	10e00002 	beqz	a3,9d0022d8 <i25>
9d0022d0:	01663006 	srlv	a2,a2,t3
9d0022d4:	34c60002 	ori	a2,a2,0x2

9d0022d8 <i25>:
9d0022d8:	24070000 	li	a3,0
9d0022dc:	24cc0080 	addiu	t4,a2,128
9d0022e0:	0581ffb7 	bgez	t4,9d0021c0 <Clab8>
9d0022e4:	00000000 	nop
9d0022e8:	1000ffb5 	b	9d0021c0 <Clab8>
9d0022ec:	24070001 	li	a3,1
9d0022f0:	00000000 	nop

Disassembly of section .text.readFromI2C:

9d0022f4 <readFromI2C>:
    return 0xFFFFFFFF;  //Return a non-zero value to indicate a successful transmission
}

//Read from I2C Function, reads the desired number of bytes from the slave device at the provided address using the I2C2 peripheral
uint32_t readFromI2C(uint32_t address, uint8_t *bytes, uint32_t readLength, uint32_t addressLength)
{
9d0022f4:	27bdffe0 	addiu	sp,sp,-32
9d0022f8:	afbf001c 	sw	ra,28(sp)
9d0022fc:	afbe0018 	sw	s8,24(sp)
9d002300:	03a0f025 	move	s8,sp
9d002304:	afc40020 	sw	a0,32(s8)
9d002308:	afc50024 	sw	a1,36(s8)
9d00230c:	afc60028 	sw	a2,40(s8)
9d002310:	afc7002c 	sw	a3,44(s8)
    //Determine whether or not an address shall be requested first prior to reading
    if (addressLength)
9d002314:	8fc2002c 	lw	v0,44(s8)
9d002318:	1040000b 	beqz	v0,9d002348 <readFromI2C+0x54>
9d00231c:	00000000 	nop
    {
        if (!writeToI2C(address, bytes, addressLength)) return 0x00000000;  //Inform the device of the desired register address to read from using the address passed through *bytes
9d002320:	8fc6002c 	lw	a2,44(s8)
9d002324:	8fc50024 	lw	a1,36(s8)
9d002328:	8fc40020 	lw	a0,32(s8)
9d00232c:	0f400b9f 	jal	9d002e7c <writeToI2C>
9d002330:	00000000 	nop
9d002334:	14400004 	bnez	v0,9d002348 <readFromI2C+0x54>
9d002338:	00000000 	nop
9d00233c:	00001025 	move	v0,zero
9d002340:	10000054 	b	9d002494 <readFromI2C+0x1a0>
9d002344:	00000000 	nop
    }

    //Start condition generation
    I2C2CONSET = 0x00000001;       //Generate a start condition on the I2C bus, this signals that new data is about to be sent to all slaves on the line
9d002348:	3c02bf80 	lui	v0,0xbf80
9d00234c:	24030001 	li	v1,1
9d002350:	ac435108 	sw	v1,20744(v0)
    while (I2C2CON & 0x00000001);  //Wait until the start condition is done sending to conform to I2C timing specifications
9d002354:	00000000 	nop
9d002358:	3c02bf80 	lui	v0,0xbf80
9d00235c:	8c425100 	lw	v0,20736(v0)
9d002360:	30420001 	andi	v0,v0,0x1
9d002364:	1440fffc 	bnez	v0,9d002358 <readFromI2C+0x64>
9d002368:	00000000 	nop

    //Sending address and read request flag
    I2C2TRN = (address << 0x00000001) | 0x00000001;  //Shift the address byte to the left by 1 bit, forcing setting Bit-0 to indicate a read request, finally writing it all to the transmit register
9d00236c:	8fc20020 	lw	v0,32(s8)
9d002370:	00021040 	sll	v0,v0,0x1
9d002374:	34430001 	ori	v1,v0,0x1
9d002378:	3c02bf80 	lui	v0,0xbf80
9d00237c:	ac435150 	sw	v1,20816(v0)
    while (I2C2STAT & 0x00004000);                   //Wait until the address and read request flag have finished being sent, and the ACK flag has been read by the master
9d002380:	00000000 	nop
9d002384:	3c02bf80 	lui	v0,0xbf80
9d002388:	8c425110 	lw	v0,20752(v0)
9d00238c:	30424000 	andi	v0,v0,0x4000
9d002390:	1440fffc 	bnez	v0,9d002384 <readFromI2C+0x90>
9d002394:	00000000 	nop
    if (I2C2STAT & 0x00008000) return 0x00000000;    //Leave the function early in cases where no acknowledge is returned by the slave device
9d002398:	3c02bf80 	lui	v0,0xbf80
9d00239c:	8c425110 	lw	v0,20752(v0)
9d0023a0:	30428000 	andi	v0,v0,0x8000
9d0023a4:	10400004 	beqz	v0,9d0023b8 <readFromI2C+0xc4>
9d0023a8:	00000000 	nop
9d0023ac:	00001025 	move	v0,zero
9d0023b0:	10000038 	b	9d002494 <readFromI2C+0x1a0>
9d0023b4:	00000000 	nop

    uint8_t *ptrStop = bytes + readLength;  //Calculate the address of the bytes pointer to stop the read process at
9d0023b8:	8fc30024 	lw	v1,36(s8)
9d0023bc:	8fc20028 	lw	v0,40(s8)
9d0023c0:	00621021 	addu	v0,v1,v0
9d0023c4:	afc20010 	sw	v0,16(s8)

    //Read the next byte from the slave and store it in the provided buffer
    while (bytes != ptrStop)
9d0023c8:	10000021 	b	9d002450 <readFromI2C+0x15c>
9d0023cc:	00000000 	nop
    {
        I2C2CONSET = 0x00000008;       //Start the receive process by setting the RCEN bit
9d0023d0:	3c02bf80 	lui	v0,0xbf80
9d0023d4:	24030008 	li	v1,8
9d0023d8:	ac435108 	sw	v1,20744(v0)
        while (I2C2CON & 0x00000008);  //Wait until the receive process has completed
9d0023dc:	00000000 	nop
9d0023e0:	3c02bf80 	lui	v0,0xbf80
9d0023e4:	8c425100 	lw	v0,20736(v0)
9d0023e8:	30420008 	andi	v0,v0,0x8
9d0023ec:	1440fffc 	bnez	v0,9d0023e0 <readFromI2C+0xec>
9d0023f0:	00000000 	nop

        *bytes++ = I2C2RCV;  //Write the byte received from the slave device into the next available byte of the provided buffer array
9d0023f4:	3c02bf80 	lui	v0,0xbf80
9d0023f8:	8c445160 	lw	a0,20832(v0)
9d0023fc:	8fc20024 	lw	v0,36(s8)
9d002400:	24430001 	addiu	v1,v0,1
9d002404:	afc30024 	sw	v1,36(s8)
9d002408:	308300ff 	andi	v1,a0,0xff
9d00240c:	a0430000 	sb	v1,0(v0)

        if (bytes == ptrStop) I2C2CONSET = 0x00000020;  //Configure the I2C peripheral to send an NACK response next if we've just received the last byte
9d002410:	8fc30024 	lw	v1,36(s8)
9d002414:	8fc20010 	lw	v0,16(s8)
9d002418:	14620004 	bne	v1,v0,9d00242c <readFromI2C+0x138>
9d00241c:	00000000 	nop
9d002420:	3c02bf80 	lui	v0,0xbf80
9d002424:	24030020 	li	v1,32
9d002428:	ac435108 	sw	v1,20744(v0)

        I2C2CONSET = 0x00000010;       //Send an ACK response to the slave device on the I2C bus to confirm that the byte was received
9d00242c:	3c02bf80 	lui	v0,0xbf80
9d002430:	24030010 	li	v1,16
9d002434:	ac435108 	sw	v1,20744(v0)
        while (I2C2CON & 0x00000010);  //Wait until the ACK condition is done sending
9d002438:	00000000 	nop
9d00243c:	3c02bf80 	lui	v0,0xbf80
9d002440:	8c425100 	lw	v0,20736(v0)
9d002444:	30420010 	andi	v0,v0,0x10
9d002448:	1440fffc 	bnez	v0,9d00243c <readFromI2C+0x148>
9d00244c:	00000000 	nop
    while (bytes != ptrStop)
9d002450:	8fc30024 	lw	v1,36(s8)
9d002454:	8fc20010 	lw	v0,16(s8)
9d002458:	1462ffdd 	bne	v1,v0,9d0023d0 <readFromI2C+0xdc>
9d00245c:	00000000 	nop
    }

    I2C2CONCLR = 0x00000020;  //Clear the ACKDT bit of the I2C control register now that sending NACK responses is no longer required
9d002460:	3c02bf80 	lui	v0,0xbf80
9d002464:	24030020 	li	v1,32
9d002468:	ac435104 	sw	v1,20740(v0)

    //Stop condition generation
    I2C2CONSET = 0x00000004;       //Generate a stop condition on the I2C bus, this signals the end of transmission to the slave device
9d00246c:	3c02bf80 	lui	v0,0xbf80
9d002470:	24030004 	li	v1,4
9d002474:	ac435108 	sw	v1,20744(v0)
    while (I2C2CON & 0x00000004);  //Wait until the stop condition is done sending
9d002478:	00000000 	nop
9d00247c:	3c02bf80 	lui	v0,0xbf80
9d002480:	8c425100 	lw	v0,20736(v0)
9d002484:	30420004 	andi	v0,v0,0x4
9d002488:	1440fffc 	bnez	v0,9d00247c <readFromI2C+0x188>
9d00248c:	00000000 	nop

    return 0xFFFFFFFF;  //Return a non-zero value to indicate a successful reception
9d002490:	2402ffff 	li	v0,-1
}
9d002494:	03c0e825 	move	sp,s8
9d002498:	8fbf001c 	lw	ra,28(sp)
9d00249c:	8fbe0018 	lw	s8,24(sp)
9d0024a0:	27bd0020 	addiu	sp,sp,32
9d0024a4:	03e00008 	jr	ra
9d0024a8:	00000000 	nop

Disassembly of section .text.functionSetSSD1803A:

9d0024ac <functionSetSSD1803A>:
//           8           6          4          2         0
//    UD2 | UD1 | BS1 | DH` | BE | BS0 | REV | DH | RE | IS

//Function Set Function, selects what function registers the LCD controller is to respond to
uint32_t functionSetSSD1803A(SSD1803A_registers_t registerSelect)
{
9d0024ac:	27bdffe0 	addiu	sp,sp,-32
9d0024b0:	afbf001c 	sw	ra,28(sp)
9d0024b4:	afbe0018 	sw	s8,24(sp)
9d0024b8:	03a0f025 	move	s8,sp
9d0024bc:	afc40020 	sw	a0,32(s8)
    //Don't do anything if the controller already has the desired register set selected
    if (((statusRegister_SSD1803A & 0x00000001) ^ (registerSelect & 0x00000003)) && (statusRegister_SSD1803A & 0x00000002))
9d0024c0:	8f828030 	lw	v0,-32720(gp)
9d0024c4:	30430001 	andi	v1,v0,0x1
9d0024c8:	8fc20020 	lw	v0,32(s8)
9d0024cc:	30420003 	andi	v0,v0,0x3
9d0024d0:	10620055 	beq	v1,v0,9d002628 <functionSetSSD1803A+0x17c>
9d0024d4:	00000000 	nop
9d0024d8:	8f828030 	lw	v0,-32720(gp)
9d0024dc:	30420002 	andi	v0,v0,0x2
9d0024e0:	10400051 	beqz	v0,9d002628 <functionSetSSD1803A+0x17c>
9d0024e4:	00000000 	nop
    {
        uint8_t commandByte = ((statusRegister_SSD1803A & 0x00000028) >> 0x00000003) | 0x00000038;  //Calculate the first expected output command and store it in a new buffer
9d0024e8:	8f828030 	lw	v0,-32720(gp)
9d0024ec:	000210c2 	srl	v0,v0,0x3
9d0024f0:	304200ff 	andi	v0,v0,0xff
9d0024f4:	30420005 	andi	v0,v0,0x5
9d0024f8:	304200ff 	andi	v0,v0,0xff
9d0024fc:	34420038 	ori	v0,v0,0x38
9d002500:	a3c20010 	sb	v0,16(s8)

        //Determine if we need to leave the extended register selection first when the requested IS bit is different from it's current state on the LCD controller
        // if ((statusRegister_SSD1803A & 0x00000002) == 0x00000002 && (statusRegister_SSD1803A & 0x00000001 ^ specialRegisters) == 0x00000000)
        if (((statusRegister_SSD1803A & 0x00000003) ^ (registerSelect & 0x00000001)) ^ 0x00000002)
9d002504:	8f828030 	lw	v0,-32720(gp)
9d002508:	30430003 	andi	v1,v0,0x3
9d00250c:	8fc20020 	lw	v0,32(s8)
9d002510:	30420001 	andi	v0,v0,0x1
9d002514:	00621826 	xor	v1,v1,v0
9d002518:	24020002 	li	v0,2
9d00251c:	1062000d 	beq	v1,v0,9d002554 <functionSetSSD1803A+0xa8>
9d002520:	00000000 	nop
        {
            if (!sendCommandSSD1803A(commandByte)) return 0x00000000;  //Try to take the LCD controller out of the extended registers
9d002524:	93c20010 	lbu	v0,16(s8)
9d002528:	00402025 	move	a0,v0
9d00252c:	0f401185 	jal	9d004614 <sendCommandSSD1803A>
9d002530:	00000000 	nop
9d002534:	14400004 	bnez	v0,9d002548 <functionSetSSD1803A+0x9c>
9d002538:	00000000 	nop
9d00253c:	00001025 	move	v0,zero
9d002540:	1000003a 	b	9d00262c <functionSetSSD1803A+0x180>
9d002544:	00000000 	nop
            statusRegister_SSD1803A &= 0xFFFFFFFD;                     //Clear the RE bit in the driver status register to match
9d002548:	8f828030 	lw	v0,-32720(gp)
9d00254c:	7c020844 	ins	v0,zero,0x1,0x1
9d002550:	af828030 	sw	v0,-32720(gp)
        }

        //Determine how to handle this based on the requested changes based on the current state of the LCD controller
        if (statusRegister_SSD1803A & 0x00000002)
9d002554:	8f828030 	lw	v0,-32720(gp)
9d002558:	30420002 	andi	v0,v0,0x2
9d00255c:	10400019 	beqz	v0,9d0025c4 <functionSetSSD1803A+0x118>
9d002560:	00000000 	nop
        {
            if (!sendCommandSSD1803A((registerSelect & 0x00000002) | commandByte)) return 0x00000000;          //Attempt to select the desired registers on the LCD controller chipset
9d002564:	8fc20020 	lw	v0,32(s8)
9d002568:	304200ff 	andi	v0,v0,0xff
9d00256c:	30420002 	andi	v0,v0,0x2
9d002570:	304300ff 	andi	v1,v0,0xff
9d002574:	93c20010 	lbu	v0,16(s8)
9d002578:	00621025 	or	v0,v1,v0
9d00257c:	304200ff 	andi	v0,v0,0xff
9d002580:	00402025 	move	a0,v0
9d002584:	0f401185 	jal	9d004614 <sendCommandSSD1803A>
9d002588:	00000000 	nop
9d00258c:	14400004 	bnez	v0,9d0025a0 <functionSetSSD1803A+0xf4>
9d002590:	00000000 	nop
9d002594:	00001025 	move	v0,zero
9d002598:	10000024 	b	9d00262c <functionSetSSD1803A+0x180>
9d00259c:	00000000 	nop
            statusRegister_SSD1803A = (statusRegister_SSD1803A & 0xFFFFFFFD) | (registerSelect & 0x00000002);  //Update the RE bit of the drivers status register to match the new value
9d0025a0:	8f828030 	lw	v0,-32720(gp)
9d0025a4:	7c020844 	ins	v0,zero,0x1,0x1
9d0025a8:	00401825 	move	v1,v0
9d0025ac:	8fc20020 	lw	v0,32(s8)
9d0025b0:	30420002 	andi	v0,v0,0x2
9d0025b4:	00621025 	or	v0,v1,v0
9d0025b8:	af828030 	sw	v0,-32720(gp)
9d0025bc:	1000001a 	b	9d002628 <functionSetSSD1803A+0x17c>
9d0025c0:	00000000 	nop
        }
        else
        {
            commandByte = (statusRegister_SSD1803A & 0x00000004) | registerSelect | 0x00000038;  //Form the correct command byte to send to the LCD controller
9d0025c4:	8f828030 	lw	v0,-32720(gp)
9d0025c8:	304200ff 	andi	v0,v0,0xff
9d0025cc:	30420004 	andi	v0,v0,0x4
9d0025d0:	304300ff 	andi	v1,v0,0xff
9d0025d4:	8fc20020 	lw	v0,32(s8)
9d0025d8:	304200ff 	andi	v0,v0,0xff
9d0025dc:	00621025 	or	v0,v1,v0
9d0025e0:	304200ff 	andi	v0,v0,0xff
9d0025e4:	34420038 	ori	v0,v0,0x38
9d0025e8:	a3c20010 	sb	v0,16(s8)
            if (!sendCommandSSD1803A(commandByte)) return 0x00000000;                            //Try sending the command to the LCD controller
9d0025ec:	93c20010 	lbu	v0,16(s8)
9d0025f0:	00402025 	move	a0,v0
9d0025f4:	0f401185 	jal	9d004614 <sendCommandSSD1803A>
9d0025f8:	00000000 	nop
9d0025fc:	14400004 	bnez	v0,9d002610 <functionSetSSD1803A+0x164>
9d002600:	00000000 	nop
9d002604:	00001025 	move	v0,zero
9d002608:	10000008 	b	9d00262c <functionSetSSD1803A+0x180>
9d00260c:	00000000 	nop
            statusRegister_SSD1803A = statusRegister_SSD1803A & 0xFFFFFFFC | registerSelect;     //Update the RE and IS bits of the drivers status register to match the new values
9d002610:	8f828030 	lw	v0,-32720(gp)
9d002614:	7c020804 	ins	v0,zero,0x0,0x2
9d002618:	00401825 	move	v1,v0
9d00261c:	8fc20020 	lw	v0,32(s8)
9d002620:	00621025 	or	v0,v1,v0
9d002624:	af828030 	sw	v0,-32720(gp)
        }
    }

    return 0xFFFFFFFF;  //Return a value of true to indicate that operation completed successfully
9d002628:	2402ffff 	li	v0,-1
}
9d00262c:	03c0e825 	move	sp,s8
9d002630:	8fbf001c 	lw	ra,28(sp)
9d002634:	8fbe0018 	lw	s8,24(sp)
9d002638:	27bd0020 	addiu	sp,sp,32
9d00263c:	03e00008 	jr	ra
9d002640:	00000000 	nop

Disassembly of section .text.getResultsAtAddressDPS368:

9d002644 <getResultsAtAddressDPS368>:

//Get Results At Address Function, obtains the requested number of 24-bit results from the sensor at the provided start address
uint32_t getResultsAtAddressDPS368(uint32_t address, uint32_t *results, uint32_t count)
{
9d002644:	27bdffd0 	addiu	sp,sp,-48
9d002648:	afbf002c 	sw	ra,44(sp)
9d00264c:	afbe0028 	sw	s8,40(sp)
9d002650:	afb00024 	sw	s0,36(sp)
9d002654:	03a0f025 	move	s8,sp
9d002658:	afc40030 	sw	a0,48(s8)
9d00265c:	afc50034 	sw	a1,52(s8)
9d002660:	afc60038 	sw	a2,56(s8)
9d002664:	03a02025 	move	a0,sp
9d002668:	00808025 	move	s0,a0
    uint32_t byteCount = count * 0x00000003;  //Calculate the number of bytes that need to be read to obtain the requested result count
9d00266c:	8fc50038 	lw	a1,56(s8)
9d002670:	00a02025 	move	a0,a1
9d002674:	00042040 	sll	a0,a0,0x1
9d002678:	00852021 	addu	a0,a0,a1
9d00267c:	afc40014 	sw	a0,20(s8)
    uint8_t dataBuffer[byteCount];            //Create an array containing 3 bytes for every result requested to retrieve
9d002680:	8fc40014 	lw	a0,20(s8)
9d002684:	00802825 	move	a1,a0
9d002688:	24a5ffff 	addiu	a1,a1,-1
9d00268c:	afc50018 	sw	a1,24(s8)
9d002690:	00806025 	move	t4,a0
9d002694:	00006825 	move	t5,zero
9d002698:	000c2f42 	srl	a1,t4,0x1d
9d00269c:	000d48c0 	sll	t1,t5,0x3
9d0026a0:	00a94825 	or	t1,a1,t1
9d0026a4:	000c40c0 	sll	t0,t4,0x3
9d0026a8:	00805025 	move	t2,a0
9d0026ac:	00005825 	move	t3,zero
9d0026b0:	000a2f42 	srl	a1,t2,0x1d
9d0026b4:	000b18c0 	sll	v1,t3,0x3
9d0026b8:	00a31825 	or	v1,a1,v1
9d0026bc:	000a10c0 	sll	v0,t2,0x3
9d0026c0:	24820007 	addiu	v0,a0,7
9d0026c4:	000210c2 	srl	v0,v0,0x3
9d0026c8:	000210c0 	sll	v0,v0,0x3
9d0026cc:	03a2e823 	subu	sp,sp,v0
9d0026d0:	27a20010 	addiu	v0,sp,16
9d0026d4:	24420000 	addiu	v0,v0,0
9d0026d8:	afc2001c 	sw	v0,28(s8)

    *dataBuffer = address;  //Begin the read process at the provided start address
9d0026dc:	8fc20030 	lw	v0,48(s8)
9d0026e0:	304300ff 	andi	v1,v0,0xff
9d0026e4:	8fc2001c 	lw	v0,28(s8)
9d0026e8:	a0430000 	sb	v1,0(v0)
    if (!readFromI2C(DPS368_I2C_ADDR, dataBuffer, byteCount, 0x00000001)) return 0x00000000;  //Attempt to read the contents of result registers on the sensor
9d0026ec:	8fc2001c 	lw	v0,28(s8)
9d0026f0:	24070001 	li	a3,1
9d0026f4:	8fc60014 	lw	a2,20(s8)
9d0026f8:	00402825 	move	a1,v0
9d0026fc:	24040076 	li	a0,118
9d002700:	0f4008bd 	jal	9d0022f4 <readFromI2C>
9d002704:	00000000 	nop
9d002708:	14400004 	bnez	v0,9d00271c <getResultsAtAddressDPS368+0xd8>
9d00270c:	00000000 	nop
9d002710:	00001025 	move	v0,zero
9d002714:	10000020 	b	9d002798 <getResultsAtAddressDPS368+0x154>
9d002718:	00000000 	nop

    uint8_t *arrayPointer = dataBuffer;  //Declare a pointer to the dataBuffer array to use for iterating through each index of the array while extracting the measurement results
9d00271c:	8fc2001c 	lw	v0,28(s8)
9d002720:	afc20010 	sw	v0,16(s8)

    //Extract each individual result from the obtained byte array and store them into the array provided
    while (count--)
9d002724:	10000016 	b	9d002780 <getResultsAtAddressDPS368+0x13c>
9d002728:	00000000 	nop
    {
        *results++ = (*arrayPointer++ << 0x00000010) | (*arrayPointer++ << 0x00000008) | (*arrayPointer++);  //Combine the next 3 bytes in the dataBuffer array to form a new 24-bit measurement
9d00272c:	8fc20010 	lw	v0,16(s8)
9d002730:	24430001 	addiu	v1,v0,1
9d002734:	afc30010 	sw	v1,16(s8)
9d002738:	90420000 	lbu	v0,0(v0)
9d00273c:	00021c00 	sll	v1,v0,0x10
9d002740:	8fc20010 	lw	v0,16(s8)
9d002744:	24440001 	addiu	a0,v0,1
9d002748:	afc40010 	sw	a0,16(s8)
9d00274c:	90420000 	lbu	v0,0(v0)
9d002750:	00021200 	sll	v0,v0,0x8
9d002754:	00621825 	or	v1,v1,v0
9d002758:	8fc20010 	lw	v0,16(s8)
9d00275c:	24440001 	addiu	a0,v0,1
9d002760:	afc40010 	sw	a0,16(s8)
9d002764:	90420000 	lbu	v0,0(v0)
9d002768:	00622025 	or	a0,v1,v0
9d00276c:	8fc20034 	lw	v0,52(s8)
9d002770:	24430004 	addiu	v1,v0,4
9d002774:	afc30034 	sw	v1,52(s8)
9d002778:	00801825 	move	v1,a0
9d00277c:	ac430000 	sw	v1,0(v0)
    while (count--)
9d002780:	8fc20038 	lw	v0,56(s8)
9d002784:	2443ffff 	addiu	v1,v0,-1
9d002788:	afc30038 	sw	v1,56(s8)
9d00278c:	1440ffe7 	bnez	v0,9d00272c <getResultsAtAddressDPS368+0xe8>
9d002790:	00000000 	nop
    }

    return 0xFFFFFFFF;  //Return a non-negative value to indicate the results were obtained successfully
9d002794:	2402ffff 	li	v0,-1
9d002798:	0200e825 	move	sp,s0
}
9d00279c:	03c0e825 	move	sp,s8
9d0027a0:	8fbf002c 	lw	ra,44(sp)
9d0027a4:	8fbe0028 	lw	s8,40(sp)
9d0027a8:	8fb00024 	lw	s0,36(sp)
9d0027ac:	27bd0030 	addiu	sp,sp,48
9d0027b0:	03e00008 	jr	ra
9d0027b4:	00000000 	nop

Disassembly of section .text:

9d0027b8 <memcpy>:
9d0027b8:	00801025 	move	v0,a0
9d0027bc:	10c00056 	beqz	a2,9d002918 <memcpy+0x160>
9d0027c0:	2cca000c 	sltiu	t2,a2,12
9d0027c4:	1540004d 	bnez	t2,9d0028fc <memcpy+0x144>
9d0027c8:	00a41826 	xor	v1,a1,a0
9d0027cc:	30630003 	andi	v1,v1,0x3
9d0027d0:	00043823 	negu	a3,a0
9d0027d4:	10600029 	beqz	v1,9d00287c <memcpy+0xc4>
9d0027d8:	30e70003 	andi	a3,a3,0x3
9d0027dc:	10e00006 	beqz	a3,9d0027f8 <memcpy+0x40>
9d0027e0:	00c73023 	subu	a2,a2,a3
9d0027e4:	98a30000 	lwr	v1,0(a1)
9d0027e8:	88a30003 	lwl	v1,3(a1)
9d0027ec:	00a72821 	addu	a1,a1,a3
9d0027f0:	b8830000 	swr	v1,0(a0)
9d0027f4:	00872021 	addu	a0,a0,a3
9d0027f8:	30c3000f 	andi	v1,a2,0xf
9d0027fc:	00c33823 	subu	a3,a2,v1
9d002800:	10e00011 	beqz	a3,9d002848 <memcpy+0x90>
9d002804:	00603025 	move	a2,v1
9d002808:	00e53821 	addu	a3,a3,a1
9d00280c:	98a30000 	lwr	v1,0(a1)
9d002810:	88a30003 	lwl	v1,3(a1)
9d002814:	98a80004 	lwr	t0,4(a1)
9d002818:	88a80007 	lwl	t0,7(a1)
9d00281c:	98a90008 	lwr	t1,8(a1)
9d002820:	88a9000b 	lwl	t1,11(a1)
9d002824:	98aa000c 	lwr	t2,12(a1)
9d002828:	88aa000f 	lwl	t2,15(a1)
9d00282c:	ac830000 	sw	v1,0(a0)
9d002830:	ac880004 	sw	t0,4(a0)
9d002834:	ac890008 	sw	t1,8(a0)
9d002838:	24a50010 	addiu	a1,a1,16
9d00283c:	24840010 	addiu	a0,a0,16
9d002840:	14a7fff2 	bne	a1,a3,9d00280c <memcpy+0x54>
9d002844:	ac8afffc 	sw	t2,-4(a0)
9d002848:	30c30003 	andi	v1,a2,0x3
9d00284c:	00c33823 	subu	a3,a2,v1
9d002850:	10e0002a 	beqz	a3,9d0028fc <memcpy+0x144>
9d002854:	00603025 	move	a2,v1
9d002858:	00e53821 	addu	a3,a3,a1
9d00285c:	98a30000 	lwr	v1,0(a1)
9d002860:	88a30003 	lwl	v1,3(a1)
9d002864:	24a50004 	addiu	a1,a1,4
9d002868:	24840004 	addiu	a0,a0,4
9d00286c:	14a7fffb 	bne	a1,a3,9d00285c <memcpy+0xa4>
9d002870:	ac83fffc 	sw	v1,-4(a0)
9d002874:	10000021 	b	9d0028fc <memcpy+0x144>
9d002878:	00000000 	nop
9d00287c:	10e00005 	beqz	a3,9d002894 <memcpy+0xdc>
9d002880:	00c73023 	subu	a2,a2,a3
9d002884:	98a30000 	lwr	v1,0(a1)
9d002888:	00a72821 	addu	a1,a1,a3
9d00288c:	b8830000 	swr	v1,0(a0)
9d002890:	00872021 	addu	a0,a0,a3
9d002894:	30c3000f 	andi	v1,a2,0xf
9d002898:	00c33823 	subu	a3,a2,v1
9d00289c:	10e0000d 	beqz	a3,9d0028d4 <memcpy+0x11c>
9d0028a0:	00603025 	move	a2,v1
9d0028a4:	00e53821 	addu	a3,a3,a1
9d0028a8:	8ca30000 	lw	v1,0(a1)
9d0028ac:	8ca80004 	lw	t0,4(a1)
9d0028b0:	8ca90008 	lw	t1,8(a1)
9d0028b4:	8caa000c 	lw	t2,12(a1)
9d0028b8:	ac830000 	sw	v1,0(a0)
9d0028bc:	ac880004 	sw	t0,4(a0)
9d0028c0:	ac890008 	sw	t1,8(a0)
9d0028c4:	24a50010 	addiu	a1,a1,16
9d0028c8:	24840010 	addiu	a0,a0,16
9d0028cc:	14a7fff6 	bne	a1,a3,9d0028a8 <memcpy+0xf0>
9d0028d0:	ac8afffc 	sw	t2,-4(a0)
9d0028d4:	30c30003 	andi	v1,a2,0x3
9d0028d8:	00c33823 	subu	a3,a2,v1
9d0028dc:	10e00007 	beqz	a3,9d0028fc <memcpy+0x144>
9d0028e0:	00603025 	move	a2,v1
9d0028e4:	00e53821 	addu	a3,a3,a1
9d0028e8:	8ca30000 	lw	v1,0(a1)
9d0028ec:	24a50004 	addiu	a1,a1,4
9d0028f0:	24840004 	addiu	a0,a0,4
9d0028f4:	14a7fffc 	bne	a1,a3,9d0028e8 <memcpy+0x130>
9d0028f8:	ac83fffc 	sw	v1,-4(a0)
9d0028fc:	10c00006 	beqz	a2,9d002918 <memcpy+0x160>
9d002900:	00c53821 	addu	a3,a2,a1
9d002904:	90a30000 	lbu	v1,0(a1)
9d002908:	24a50001 	addiu	a1,a1,1
9d00290c:	24840001 	addiu	a0,a0,1
9d002910:	14a7fffc 	bne	a1,a3,9d002904 <memcpy+0x14c>
9d002914:	a083ffff 	sb	v1,-1(a0)
9d002918:	03e00008 	jr	ra
9d00291c:	00000000 	nop

9d002920 <strlen>:
9d002920:	908a0000 	lbu	t2,0(a0)
9d002924:	00801025 	move	v0,a0
9d002928:	15400003 	bnez	t2,9d002938 <strlen+0x18>
9d00292c:	00000000 	nop
9d002930:	03e00008 	jr	ra
9d002934:	24020000 	li	v0,0
9d002938:	908a0001 	lbu	t2,1(a0)
9d00293c:	15400003 	bnez	t2,9d00294c <strlen+0x2c>
9d002940:	00000000 	nop
9d002944:	03e00008 	jr	ra
9d002948:	24020001 	li	v0,1
9d00294c:	908a0002 	lbu	t2,2(a0)
9d002950:	15400003 	bnez	t2,9d002960 <strlen+0x40>
9d002954:	00000000 	nop
9d002958:	03e00008 	jr	ra
9d00295c:	24020002 	li	v0,2
9d002960:	908a0003 	lbu	t2,3(a0)
9d002964:	15400003 	bnez	t2,9d002974 <strlen+0x54>
9d002968:	00042082 	srl	a0,a0,0x2
9d00296c:	03e00008 	jr	ra
9d002970:	24020003 	li	v0,3
9d002974:	24840001 	addiu	a0,a0,1
9d002978:	00042080 	sll	a0,a0,0x2
9d00297c:	8c8a0000 	lw	t2,0(a0)
9d002980:	3c090101 	lui	t1,0x101
9d002984:	35290101 	ori	t1,t1,0x101
9d002988:	000979c0 	sll	t7,t1,0x7
9d00298c:	01494023 	subu	t0,t2,t1
9d002990:	010f4024 	and	t0,t0,t7
9d002994:	11000006 	beqz	t0,9d0029b0 <strlen+0x90>
9d002998:	010a6024 	and	t4,t0,t2
9d00299c:	11880004 	beq	t4,t0,9d0029b0 <strlen+0x90>
9d0029a0:	00000000 	nop
9d0029a4:	908a0000 	lbu	t2,0(a0)
9d0029a8:	10000022 	b	9d002a34 <strlen+0x114>
9d0029ac:	24840000 	addiu	a0,a0,0
9d0029b0:	8c8b0004 	lw	t3,4(a0)
9d0029b4:	01694023 	subu	t0,t3,t1
9d0029b8:	010f4024 	and	t0,t0,t7
9d0029bc:	11000006 	beqz	t0,9d0029d8 <strlen+0xb8>
9d0029c0:	010b6024 	and	t4,t0,t3
9d0029c4:	11880004 	beq	t4,t0,9d0029d8 <strlen+0xb8>
9d0029c8:	00000000 	nop
9d0029cc:	908a0004 	lbu	t2,4(a0)
9d0029d0:	10000018 	b	9d002a34 <strlen+0x114>
9d0029d4:	24840004 	addiu	a0,a0,4
9d0029d8:	8c8a0008 	lw	t2,8(a0)
9d0029dc:	01494023 	subu	t0,t2,t1
9d0029e0:	010f4024 	and	t0,t0,t7
9d0029e4:	11000006 	beqz	t0,9d002a00 <strlen+0xe0>
9d0029e8:	010a6024 	and	t4,t0,t2
9d0029ec:	11880004 	beq	t4,t0,9d002a00 <strlen+0xe0>
9d0029f0:	00000000 	nop
9d0029f4:	908a0008 	lbu	t2,8(a0)
9d0029f8:	1000000e 	b	9d002a34 <strlen+0x114>
9d0029fc:	24840008 	addiu	a0,a0,8
9d002a00:	8c8b000c 	lw	t3,12(a0)
9d002a04:	01694023 	subu	t0,t3,t1
9d002a08:	010f4024 	and	t0,t0,t7
9d002a0c:	11000006 	beqz	t0,9d002a28 <strlen+0x108>
9d002a10:	010b6024 	and	t4,t0,t3
9d002a14:	11880004 	beq	t4,t0,9d002a28 <strlen+0x108>
9d002a18:	00000000 	nop
9d002a1c:	908a000c 	lbu	t2,12(a0)
9d002a20:	10000004 	b	9d002a34 <strlen+0x114>
9d002a24:	2484000c 	addiu	a0,a0,12
9d002a28:	8c8a0010 	lw	t2,16(a0)
9d002a2c:	1000ffd7 	b	9d00298c <strlen+0x6c>
9d002a30:	24840010 	addiu	a0,a0,16
9d002a34:	15400004 	bnez	t2,9d002a48 <strlen+0x128>
9d002a38:	00000000 	nop
9d002a3c:	24840000 	addiu	a0,a0,0
9d002a40:	03e00008 	jr	ra
9d002a44:	00821023 	subu	v0,a0,v0
9d002a48:	908a0001 	lbu	t2,1(a0)
9d002a4c:	15400004 	bnez	t2,9d002a60 <strlen+0x140>
9d002a50:	00000000 	nop
9d002a54:	24840001 	addiu	a0,a0,1
9d002a58:	03e00008 	jr	ra
9d002a5c:	00821023 	subu	v0,a0,v0
9d002a60:	908a0002 	lbu	t2,2(a0)
9d002a64:	15400004 	bnez	t2,9d002a78 <strlen+0x158>
9d002a68:	00000000 	nop
9d002a6c:	24840002 	addiu	a0,a0,2
9d002a70:	03e00008 	jr	ra
9d002a74:	00821023 	subu	v0,a0,v0
9d002a78:	908a0003 	lbu	t2,3(a0)
9d002a7c:	24840003 	addiu	a0,a0,3
9d002a80:	03e00008 	jr	ra
9d002a84:	00821023 	subu	v0,a0,v0

Disassembly of section .text.interactWithRegistersSX1231H:

9d002a88 <interactWithRegistersSX1231H>:
 *  Transceiver Data Exchange Functions  *
 *****************************************/

//Interact With Registers Functions, reads/writes to the registers in the transceiver at the given start address using/into dataBytes 
void interactWithRegistersSX1231H(uint32_t startAddress, uint8_t *dataBytes, uint32_t bufferLength, uint32_t readMode)
{
9d002a88:	27bdfff8 	addiu	sp,sp,-8
9d002a8c:	afbe0004 	sw	s8,4(sp)
9d002a90:	03a0f025 	move	s8,sp
9d002a94:	afc40008 	sw	a0,8(s8)
9d002a98:	afc5000c 	sw	a1,12(s8)
9d002a9c:	afc60010 	sw	a2,16(s8)
9d002aa0:	afc70014 	sw	a3,20(s8)
    while (SPI1CON & 0x00000800);  //Wait until the SPI1 peripheral is in idle mode before starting the data transaction
9d002aa4:	00000000 	nop
9d002aa8:	3c02bf80 	lui	v0,0xbf80
9d002aac:	8c425800 	lw	v0,22528(v0)
9d002ab0:	30420800 	andi	v0,v0,0x800
9d002ab4:	1440fffc 	bnez	v0,9d002aa8 <interactWithRegistersSX1231H+0x20>
9d002ab8:	00000000 	nop

    startAddress |= 0x00000080;                //Force-set Bit-7 of the startAddress variable to indicate the assumed write operation
9d002abc:	8fc20008 	lw	v0,8(s8)
9d002ac0:	34420080 	ori	v0,v0,0x80
9d002ac4:	afc20008 	sw	v0,8(s8)
    if (readMode) startAddress &= 0x0000007F;  //Clear Bit-7 of startAddress when the readMode parameter is not 0
9d002ac8:	8fc20014 	lw	v0,20(s8)
9d002acc:	10400004 	beqz	v0,9d002ae0 <interactWithRegistersSX1231H+0x58>
9d002ad0:	00000000 	nop
9d002ad4:	8fc20008 	lw	v0,8(s8)
9d002ad8:	3042007f 	andi	v0,v0,0x7f
9d002adc:	afc20008 	sw	v0,8(s8)

    LATBCLR = 0x00001000;    //Clear RB12 to pull the SS line down to logic LOW
9d002ae0:	3c02bf88 	lui	v0,0xbf88
9d002ae4:	24031000 	li	v1,4096
9d002ae8:	ac436134 	sw	v1,24884(v0)
    SPI1BUF = startAddress;  //Begin the transaction by writing the contents of the startAddress variable to the data buffer of SPI2
9d002aec:	3c02bf80 	lui	v0,0xbf80
9d002af0:	8fc30008 	lw	v1,8(s8)
9d002af4:	ac435820 	sw	v1,22560(v0)

    while (SPI1STAT & 0x00000800);  //Wait until the SPI2 peripheral is no longer busy before continuing
9d002af8:	00000000 	nop
9d002afc:	3c02bf80 	lui	v0,0xbf80
9d002b00:	8c425810 	lw	v0,22544(v0)
9d002b04:	30420800 	andi	v0,v0,0x800
9d002b08:	1440fffc 	bnez	v0,9d002afc <interactWithRegistersSX1231H+0x74>
9d002b0c:	00000000 	nop
    SPI1BUF;                        //Read from the SPI2 peripherals input buffer to clear it
9d002b10:	3c02bf80 	lui	v0,0xbf80
9d002b14:	8c425820 	lw	v0,22560(v0)
    SPI1STATCLR = 0x00000040;       //Clear the Read Buffer Overflow flag in the SPI1 status register
9d002b18:	3c02bf80 	lui	v0,0xbf80
9d002b1c:	24030040 	li	v1,64
9d002b20:	ac435814 	sw	v1,22548(v0)

    //Perform the data exchange for the size of the provided buffer
    while (bufferLength--)
9d002b24:	10000023 	b	9d002bb4 <interactWithRegistersSX1231H+0x12c>
9d002b28:	00000000 	nop
    {
        //Determine what data to send based on what operation is being performed
        if (readMode)
9d002b2c:	8fc20014 	lw	v0,20(s8)
9d002b30:	10400005 	beqz	v0,9d002b48 <interactWithRegistersSX1231H+0xc0>
9d002b34:	00000000 	nop
        {
            SPI1BUF = 0x00;  //Send a series of blank of 0's when performing a read operation
9d002b38:	3c02bf80 	lui	v0,0xbf80
9d002b3c:	ac405820 	sw	zero,22560(v0)
9d002b40:	10000008 	b	9d002b64 <interactWithRegistersSX1231H+0xdc>
9d002b44:	00000000 	nop
        }
        else
        {
            SPI1BUF = *(dataBytes++);  //Transmit the value stored at the address given by the dataBytes pointer, incrementing the pointer address by 1 afterwards
9d002b48:	8fc2000c 	lw	v0,12(s8)
9d002b4c:	24430001 	addiu	v1,v0,1
9d002b50:	afc3000c 	sw	v1,12(s8)
9d002b54:	90420000 	lbu	v0,0(v0)
9d002b58:	00401825 	move	v1,v0
9d002b5c:	3c02bf80 	lui	v0,0xbf80
9d002b60:	ac435820 	sw	v1,22560(v0)
        }

        while (SPI1STAT & 0x00000800);  //Wait until the SPI1 peripheral is no longer busy before continuing
9d002b64:	00000000 	nop
9d002b68:	3c02bf80 	lui	v0,0xbf80
9d002b6c:	8c425810 	lw	v0,22544(v0)
9d002b70:	30420800 	andi	v0,v0,0x800
9d002b74:	1440fffc 	bnez	v0,9d002b68 <interactWithRegistersSX1231H+0xe0>
9d002b78:	00000000 	nop

        //Collect the obtained data byte when in read mode from the SPI1 peripheral, ignoring the first byte in the sequence
        if (readMode)
9d002b7c:	8fc20014 	lw	v0,20(s8)
9d002b80:	1040000a 	beqz	v0,9d002bac <interactWithRegistersSX1231H+0x124>
9d002b84:	00000000 	nop
        {
            *(dataBytes++) = (SPI1BUF & 0x000000FF);  //Write the contents of the SPI1 receive buffer into the address specified by the dataBytes pointer
9d002b88:	3c02bf80 	lui	v0,0xbf80
9d002b8c:	8c445820 	lw	a0,22560(v0)
9d002b90:	8fc2000c 	lw	v0,12(s8)
9d002b94:	24430001 	addiu	v1,v0,1
9d002b98:	afc3000c 	sw	v1,12(s8)
9d002b9c:	308300ff 	andi	v1,a0,0xff
9d002ba0:	a0430000 	sb	v1,0(v0)
9d002ba4:	10000003 	b	9d002bb4 <interactWithRegistersSX1231H+0x12c>
9d002ba8:	00000000 	nop
        }
        else
        {
            SPI1BUF;  //Clear the SPI1 receive buffer and its associated flags by reading from the SPI1BUF register
9d002bac:	3c02bf80 	lui	v0,0xbf80
9d002bb0:	8c425820 	lw	v0,22560(v0)
    while (bufferLength--)
9d002bb4:	8fc20010 	lw	v0,16(s8)
9d002bb8:	2443ffff 	addiu	v1,v0,-1
9d002bbc:	afc30010 	sw	v1,16(s8)
9d002bc0:	1440ffda 	bnez	v0,9d002b2c <interactWithRegistersSX1231H+0xa4>
9d002bc4:	00000000 	nop
        }
    }

    LATBSET = 0x00001000;  //Clear RB12 to bring the SS line back up to its idle state of logic HIGH
9d002bc8:	3c02bf88 	lui	v0,0xbf88
9d002bcc:	24031000 	li	v1,4096
9d002bd0:	ac436138 	sw	v1,24888(v0)
}
9d002bd4:	00000000 	nop
9d002bd8:	03c0e825 	move	sp,s8
9d002bdc:	8fbe0004 	lw	s8,4(sp)
9d002be0:	27bd0008 	addiu	sp,sp,8
9d002be4:	03e00008 	jr	ra
9d002be8:	00000000 	nop

Disassembly of section .text.setPowerLevelSX1231H:

9d002bec <setPowerLevelSX1231H>:
{
9d002bec:	27bdffe0 	addiu	sp,sp,-32
9d002bf0:	afbf001c 	sw	ra,28(sp)
9d002bf4:	afbe0018 	sw	s8,24(sp)
9d002bf8:	03a0f025 	move	s8,sp
9d002bfc:	afc40020 	sw	a0,32(s8)
    uint8_t paLevel = 0x00;               //Create a buffer variable to use for storing the value that will be written to RegPaLevel
9d002c00:	a3c00010 	sb	zero,16(s8)
    uint8_t overcurrentRegister = 0x19;   //Create another buffer for storing the value to be written to the overcurrent settings register
9d002c04:	24020019 	li	v0,25
9d002c08:	a3c20011 	sb	v0,17(s8)
    uint8_t pa1HighPowerRegister = 0x55;  //Make a buffer for the high power settings register of PA1, defaulting to disabling high power mode
9d002c0c:	24020055 	li	v0,85
9d002c10:	a3c20012 	sb	v0,18(s8)
    uint8_t pa2HighPowerRegister = 0x70;  //Make a buffer for the high power settings register of PA2, defaulting to disabling high power mode
9d002c14:	24020070 	li	v0,112
9d002c18:	a3c20013 	sb	v0,19(s8)
    if (txPower > 0x00000017) txPower = 0x00000017;  //Force any value of txPower greater than 0x17 back to 0x17 to prevent the offsets from messing up
9d002c1c:	8fc20020 	lw	v0,32(s8)
9d002c20:	2c420018 	sltiu	v0,v0,24
9d002c24:	14400003 	bnez	v0,9d002c34 <setPowerLevelSX1231H+0x48>
9d002c28:	00000000 	nop
9d002c2c:	24020017 	li	v0,23
9d002c30:	afc20020 	sw	v0,32(s8)
    if (txPower >= 0x000000008)
9d002c34:	8fc20020 	lw	v0,32(s8)
9d002c38:	2c420008 	sltiu	v0,v0,8
9d002c3c:	1440000c 	bnez	v0,9d002c70 <setPowerLevelSX1231H+0x84>
9d002c40:	00000000 	nop
        paLevel = 0x68 + txPower;  //Enable both PA1 and PA2 when operating in high power mode, setting the output level as requested
9d002c44:	8fc20020 	lw	v0,32(s8)
9d002c48:	304200ff 	andi	v0,v0,0xff
9d002c4c:	24420068 	addiu	v0,v0,104
9d002c50:	304200ff 	andi	v0,v0,0xff
9d002c54:	a3c20010 	sb	v0,16(s8)
        pa1HighPowerRegister = 0x5D;  //Put PA1 into high power mode
9d002c58:	2402005d 	li	v0,93
9d002c5c:	a3c20012 	sb	v0,18(s8)
        pa2HighPowerRegister = 0x7C;  //Put PA2 into high power mode
9d002c60:	2402007c 	li	v0,124
9d002c64:	a3c20013 	sb	v0,19(s8)
9d002c68:	10000014 	b	9d002cbc <setPowerLevelSX1231H+0xd0>
9d002c6c:	00000000 	nop
    else if (txPower >= 0x00000005)
9d002c70:	8fc20020 	lw	v0,32(s8)
9d002c74:	2c420005 	sltiu	v0,v0,5
9d002c78:	14400008 	bnez	v0,9d002c9c <setPowerLevelSX1231H+0xb0>
9d002c7c:	00000000 	nop
        paLevel = 0x6B + txPower;  //Enable both PA1 and PA2, setting the output accordingly
9d002c80:	8fc20020 	lw	v0,32(s8)
9d002c84:	304200ff 	andi	v0,v0,0xff
9d002c88:	2442006b 	addiu	v0,v0,107
9d002c8c:	304200ff 	andi	v0,v0,0xff
9d002c90:	a3c20010 	sb	v0,16(s8)
9d002c94:	10000009 	b	9d002cbc <setPowerLevelSX1231H+0xd0>
9d002c98:	00000000 	nop
    else if (txPower)
9d002c9c:	8fc20020 	lw	v0,32(s8)
9d002ca0:	10400006 	beqz	v0,9d002cbc <setPowerLevelSX1231H+0xd0>
9d002ca4:	00000000 	nop
        paLevel = 0x4F + txPower;  //Enable PA1, and set the output level accordingly
9d002ca8:	8fc20020 	lw	v0,32(s8)
9d002cac:	304200ff 	andi	v0,v0,0xff
9d002cb0:	2442004f 	addiu	v0,v0,79
9d002cb4:	304200ff 	andi	v0,v0,0xff
9d002cb8:	a3c20010 	sb	v0,16(s8)
    interactWithRegistersSX1231H(REGADDR_PALEVEL, &paLevel, 0x00000001, 0x00000000);               //Write the value of paLevel to the RegPaLevel register on the transceiver IC
9d002cbc:	00003825 	move	a3,zero
9d002cc0:	24060001 	li	a2,1
9d002cc4:	27c20010 	addiu	v0,s8,16
9d002cc8:	00402825 	move	a1,v0
9d002ccc:	24040011 	li	a0,17
9d002cd0:	0f400aa2 	jal	9d002a88 <interactWithRegistersSX1231H>
9d002cd4:	00000000 	nop
    interactWithRegistersSX1231H(REGADDR_OCP, &overcurrentRegister, 0x00000001, 0x00000000);       //Write the value of overcurrentRegister to the RegOcp register on the transceiver IC
9d002cd8:	27c20011 	addiu	v0,s8,17
9d002cdc:	00003825 	move	a3,zero
9d002ce0:	24060001 	li	a2,1
9d002ce4:	00402825 	move	a1,v0
9d002ce8:	24040013 	li	a0,19
9d002cec:	0f400aa2 	jal	9d002a88 <interactWithRegistersSX1231H>
9d002cf0:	00000000 	nop
    interactWithRegistersSX1231H(REGADDR_TESTPA1, &pa1HighPowerRegister, 0x00000001, 0x00000000);  //Write the value of pa1HighPowerRegister to the RegTestPa1 register on the transceiver IC
9d002cf4:	27c20012 	addiu	v0,s8,18
9d002cf8:	00003825 	move	a3,zero
9d002cfc:	24060001 	li	a2,1
9d002d00:	00402825 	move	a1,v0
9d002d04:	2404005a 	li	a0,90
9d002d08:	0f400aa2 	jal	9d002a88 <interactWithRegistersSX1231H>
9d002d0c:	00000000 	nop
    interactWithRegistersSX1231H(REGADDR_TESTPA2, &pa2HighPowerRegister, 0x00000001, 0x00000000);  //Write the value of pa2HighPowerRegister to the RegTestPa2 register on the transceiver IC
9d002d10:	27c20013 	addiu	v0,s8,19
9d002d14:	00003825 	move	a3,zero
9d002d18:	24060001 	li	a2,1
9d002d1c:	00402825 	move	a1,v0
9d002d20:	2404005c 	li	a0,92
9d002d24:	0f400aa2 	jal	9d002a88 <interactWithRegistersSX1231H>
9d002d28:	00000000 	nop
}
9d002d2c:	00000000 	nop
9d002d30:	03c0e825 	move	sp,s8
9d002d34:	8fbf001c 	lw	ra,28(sp)
9d002d38:	8fbe0018 	lw	s8,24(sp)
9d002d3c:	27bd0020 	addiu	sp,sp,32
9d002d40:	03e00008 	jr	ra
9d002d44:	00000000 	nop

Disassembly of section .text.newMeasureReportPacket:

9d002d48 <newMeasureReportPacket>:
    packetBuffer->auxArgument = argument;  //Set the auxArgument value of the packet to the argument provided
}

//New Measure Report Packet Function, generates a new measurement report packet at the provided address
void newMeasureReportPacket(packetMeasureReport_t *packetBuffer, const float *temperature, const float *humidity, const float *pressure)
{
9d002d48:	27bdffe0 	addiu	sp,sp,-32
9d002d4c:	afbf001c 	sw	ra,28(sp)
9d002d50:	afbe0018 	sw	s8,24(sp)
9d002d54:	03a0f025 	move	s8,sp
9d002d58:	afc40020 	sw	a0,32(s8)
9d002d5c:	afc50024 	sw	a1,36(s8)
9d002d60:	afc60028 	sw	a2,40(s8)
9d002d64:	afc7002c 	sw	a3,44(s8)
    generateHeader(&packetBuffer->packetHeader, MEASURE_REPORT, PACKET_LENGTH_MEASUREREPORT);  //Generate a new packet header for the MEASURE_REPORT type
9d002d68:	8fc20020 	lw	v0,32(s8)
9d002d6c:	2406000b 	li	a2,11
9d002d70:	24050002 	li	a1,2
9d002d74:	00402025 	move	a0,v0
9d002d78:	0f400e60 	jal	9d003980 <generateHeader>
9d002d7c:	00000000 	nop
    
    //Prepare the data to use in the payload
    uint32_t dataBuffer;  //Create a temporary 32-bit unsigned variable to use for data manipulation while constructing the payload

    //Put the temperature value into the payload
    dataBuffer = (int32_t) (*temperature * 100.0F);
9d002d80:	8fc20024 	lw	v0,36(s8)
9d002d84:	8c430000 	lw	v1,0(v0)
9d002d88:	3c029d00 	lui	v0,0x9d00
9d002d8c:	8c454c98 	lw	a1,19608(v0)
9d002d90:	00602025 	move	a0,v1
9d002d94:	0f40084e 	jal	9d002138 <__mulsf3>
9d002d98:	00000000 	nop
9d002d9c:	00402025 	move	a0,v0
9d002da0:	0f401109 	jal	9d004424 <__fixsfsi>
9d002da4:	00000000 	nop
9d002da8:	afc20010 	sw	v0,16(s8)
    packetBuffer->reportedTempLSB = dataBuffer & 0x000000FF;  //Store the first byte of dataBuffer in the reportedTempLSB part of the packet
9d002dac:	8fc20010 	lw	v0,16(s8)
9d002db0:	304300ff 	andi	v1,v0,0xff
9d002db4:	8fc20020 	lw	v0,32(s8)
9d002db8:	a0430006 	sb	v1,6(v0)
    dataBuffer >>= 0x00000008;                                //Shift the contents of dataBuffer over to the right by 8 bits
9d002dbc:	8fc20010 	lw	v0,16(s8)
9d002dc0:	00021202 	srl	v0,v0,0x8
9d002dc4:	afc20010 	sw	v0,16(s8)
    packetBuffer->reportedTempMSB = dataBuffer & 0x000000FF;  //Write the remaining byte of dataBuffer into the reportedTempMSB portion of the packet
9d002dc8:	8fc20010 	lw	v0,16(s8)
9d002dcc:	304300ff 	andi	v1,v0,0xff
9d002dd0:	8fc20020 	lw	v0,32(s8)
9d002dd4:	a0430005 	sb	v1,5(v0)

    //Put the relative humidity value into the payload
    dataBuffer = (uint32_t) *humidity;
9d002dd8:	8fc20028 	lw	v0,40(s8)
9d002ddc:	8c420000 	lw	v0,0(v0)
9d002de0:	00402025 	move	a0,v0
9d002de4:	0f401148 	jal	9d004520 <__fixunssfsi>
9d002de8:	00000000 	nop
9d002dec:	afc20010 	sw	v0,16(s8)
    packetBuffer->reportedRH = dataBuffer;  //Copy the contents of dataBuffer into the reportedRH part of the packet
9d002df0:	8fc20010 	lw	v0,16(s8)
9d002df4:	304300ff 	andi	v1,v0,0xff
9d002df8:	8fc20020 	lw	v0,32(s8)
9d002dfc:	a0430007 	sb	v1,7(v0)

    //Put the barometric pressure value into the payload
    dataBuffer = (uint32_t) *pressure;
9d002e00:	8fc2002c 	lw	v0,44(s8)
9d002e04:	8c420000 	lw	v0,0(v0)
9d002e08:	00402025 	move	a0,v0
9d002e0c:	0f401148 	jal	9d004520 <__fixunssfsi>
9d002e10:	00000000 	nop
9d002e14:	afc20010 	sw	v0,16(s8)
    packetBuffer->reportedPresLSB = dataBuffer & 0x000000FF;  //Store the first byte of dataBuffer in the reportedPresLSB part of the packet
9d002e18:	8fc20010 	lw	v0,16(s8)
9d002e1c:	304300ff 	andi	v1,v0,0xff
9d002e20:	8fc20020 	lw	v0,32(s8)
9d002e24:	a043000a 	sb	v1,10(v0)
    dataBuffer >>= 0x00000008;                                //Shift the contents of dataBuffer over to the right by 8 bits
9d002e28:	8fc20010 	lw	v0,16(s8)
9d002e2c:	00021202 	srl	v0,v0,0x8
9d002e30:	afc20010 	sw	v0,16(s8)
    packetBuffer->reportedPresMSB = dataBuffer & 0x000000FF;  //Write the second byte of dataBuffer into the reportedPresMSB portion of the packet
9d002e34:	8fc20010 	lw	v0,16(s8)
9d002e38:	304300ff 	andi	v1,v0,0xff
9d002e3c:	8fc20020 	lw	v0,32(s8)
9d002e40:	a0430009 	sb	v1,9(v0)
    dataBuffer >>= 0x00000008;                                //Shift the contents of dataBuffer over to the right by 8 bits
9d002e44:	8fc20010 	lw	v0,16(s8)
9d002e48:	00021202 	srl	v0,v0,0x8
9d002e4c:	afc20010 	sw	v0,16(s8)
    packetBuffer->reportedPresHSB = dataBuffer & 0x000000FF;  //Write the third byte of dataBuffer into the reportedPresHSB portion of the packed
9d002e50:	8fc20010 	lw	v0,16(s8)
9d002e54:	304300ff 	andi	v1,v0,0xff
9d002e58:	8fc20020 	lw	v0,32(s8)
9d002e5c:	a0430008 	sb	v1,8(v0)
}
9d002e60:	00000000 	nop
9d002e64:	03c0e825 	move	sp,s8
9d002e68:	8fbf001c 	lw	ra,28(sp)
9d002e6c:	8fbe0018 	lw	s8,24(sp)
9d002e70:	27bd0020 	addiu	sp,sp,32
9d002e74:	03e00008 	jr	ra
9d002e78:	00000000 	nop

Disassembly of section .text.writeToI2C:

9d002e7c <writeToI2C>:
{
9d002e7c:	27bdfff8 	addiu	sp,sp,-8
9d002e80:	afbe0004 	sw	s8,4(sp)
9d002e84:	03a0f025 	move	s8,sp
9d002e88:	afc40008 	sw	a0,8(s8)
9d002e8c:	afc5000c 	sw	a1,12(s8)
9d002e90:	afc60010 	sw	a2,16(s8)
    I2C2CONSET = 0x00000001;       //Generate a start condition on the I2C bus, this signals that new data is about to be sent to all slaves on the line
9d002e94:	3c02bf80 	lui	v0,0xbf80
9d002e98:	24030001 	li	v1,1
9d002e9c:	ac435108 	sw	v1,20744(v0)
    while (I2C2CON & 0x00000001);  //Wait until the start condition is done sending to conform to I2C timing specifications
9d002ea0:	00000000 	nop
9d002ea4:	3c02bf80 	lui	v0,0xbf80
9d002ea8:	8c425100 	lw	v0,20736(v0)
9d002eac:	30420001 	andi	v0,v0,0x1
9d002eb0:	1440fffc 	bnez	v0,9d002ea4 <writeToI2C+0x28>
9d002eb4:	00000000 	nop
    I2C2TRN = (address << 0x00000001);             //Shift the value of the address over to the left by 1 bit, then write it to the transmit register
9d002eb8:	8fc20008 	lw	v0,8(s8)
9d002ebc:	00021840 	sll	v1,v0,0x1
9d002ec0:	3c02bf80 	lui	v0,0xbf80
9d002ec4:	ac435150 	sw	v1,20816(v0)
    while (I2C2STAT & 0x00004000);                 //Wait until the address and write flag have finished being sent, and the ACK flag has been read by the master.
9d002ec8:	00000000 	nop
9d002ecc:	3c02bf80 	lui	v0,0xbf80
9d002ed0:	8c425110 	lw	v0,20752(v0)
9d002ed4:	30424000 	andi	v0,v0,0x4000
9d002ed8:	1440fffc 	bnez	v0,9d002ecc <writeToI2C+0x50>
9d002edc:	00000000 	nop
    if (I2C2STAT & 0x00008000) return 0x00000000;  //Leave the function early in cases where no acknowledge is returned by the slave device
9d002ee0:	3c02bf80 	lui	v0,0xbf80
9d002ee4:	8c425110 	lw	v0,20752(v0)
9d002ee8:	30428000 	andi	v0,v0,0x8000
9d002eec:	10400019 	beqz	v0,9d002f54 <writeToI2C+0xd8>
9d002ef0:	00000000 	nop
9d002ef4:	00001025 	move	v0,zero
9d002ef8:	10000025 	b	9d002f90 <writeToI2C+0x114>
9d002efc:	00000000 	nop
        I2C2TRN = *bytes++;                            //Send the next byte in the array out to the I2C bus
9d002f00:	8fc2000c 	lw	v0,12(s8)
9d002f04:	24430001 	addiu	v1,v0,1
9d002f08:	afc3000c 	sw	v1,12(s8)
9d002f0c:	90420000 	lbu	v0,0(v0)
9d002f10:	00401825 	move	v1,v0
9d002f14:	3c02bf80 	lui	v0,0xbf80
9d002f18:	ac435150 	sw	v1,20816(v0)
        while (I2C2STAT & 0x00004000);                 //Wait until the byte has finished transmitting before checking for acknowledgement
9d002f1c:	00000000 	nop
9d002f20:	3c02bf80 	lui	v0,0xbf80
9d002f24:	8c425110 	lw	v0,20752(v0)
9d002f28:	30424000 	andi	v0,v0,0x4000
9d002f2c:	1440fffc 	bnez	v0,9d002f20 <writeToI2C+0xa4>
9d002f30:	00000000 	nop
        if (I2C2STAT & 0x00008000) return 0x00000000;  //Leave the function early, the acknowledge bit was not received from the slave device
9d002f34:	3c02bf80 	lui	v0,0xbf80
9d002f38:	8c425110 	lw	v0,20752(v0)
9d002f3c:	30428000 	andi	v0,v0,0x8000
9d002f40:	10400004 	beqz	v0,9d002f54 <writeToI2C+0xd8>
9d002f44:	00000000 	nop
9d002f48:	00001025 	move	v0,zero
9d002f4c:	10000010 	b	9d002f90 <writeToI2C+0x114>
9d002f50:	00000000 	nop
    while (length--)
9d002f54:	8fc20010 	lw	v0,16(s8)
9d002f58:	2443ffff 	addiu	v1,v0,-1
9d002f5c:	afc30010 	sw	v1,16(s8)
9d002f60:	1440ffe7 	bnez	v0,9d002f00 <writeToI2C+0x84>
9d002f64:	00000000 	nop
    I2C2CONSET = 0x00000004;       //Generate a stop condition on the I2C bus, this signals the end of the transmission to the slave device
9d002f68:	3c02bf80 	lui	v0,0xbf80
9d002f6c:	24030004 	li	v1,4
9d002f70:	ac435108 	sw	v1,20744(v0)
    while (I2C2CON & 0x00000004);  //Wait until the stop condition is done sending
9d002f74:	00000000 	nop
9d002f78:	3c02bf80 	lui	v0,0xbf80
9d002f7c:	8c425100 	lw	v0,20736(v0)
9d002f80:	30420004 	andi	v0,v0,0x4
9d002f84:	1440fffc 	bnez	v0,9d002f78 <writeToI2C+0xfc>
9d002f88:	00000000 	nop
    return 0xFFFFFFFF;  //Return a non-zero value to indicate a successful transmission
9d002f8c:	2402ffff 	li	v0,-1
}
9d002f90:	03c0e825 	move	sp,s8
9d002f94:	8fbe0004 	lw	s8,4(sp)
9d002f98:	27bd0008 	addiu	sp,sp,8
9d002f9c:	03e00008 	jr	ra
9d002fa0:	00000000 	nop

Disassembly of section .text.uintToDecString:

9d002fa4 <uintToDecString>:
 ***********************/


//Unsigned Integer To Decimal String, converts the provided unsigned integer into it's string representation
void uintToDecString(uint32_t numberToConvert, uint8_t *stringBuffer)
{
9d002fa4:	27bdffe0 	addiu	sp,sp,-32
9d002fa8:	afbe001c 	sw	s8,28(sp)
9d002fac:	03a0f025 	move	s8,sp
9d002fb0:	afc40020 	sw	a0,32(s8)
9d002fb4:	afc50024 	sw	a1,36(s8)
	uint32_t counter = 0x00000000;      //Create a variable to use for tracking the digit that's being converted
9d002fb8:	afc00000 	sw	zero,0(s8)
    uint8_t tempBuffer[0x0000000B];     //Create an array of 11 bytes to use for storing the generated ASCII digits before copying them into the main byte 
    uint8_t *tempPointer = tempBuffer;  //Initialize a new pointer that points at the tempBuffer array
9d002fbc:	27c20008 	addiu	v0,s8,8
9d002fc0:	afc20004 	sw	v0,4(s8)

    //Perform digit separation for the size of the provided buffer
	while (counter++ <= 0x0000000B)
9d002fc4:	1000001d 	b	9d00303c <uintToDecString+0x98>
9d002fc8:	00000000 	nop
    {
    	*(tempPointer++) = (numberToConvert % 0x0000000A) | 0x00000030;  //Modulo the contents of numberToConvert by 10, ORing 0x30 to the result to convert the digit into an ASCII character
9d002fcc:	8fc40020 	lw	a0,32(s8)
9d002fd0:	3c02cccc 	lui	v0,0xcccc
9d002fd4:	3442cccd 	ori	v0,v0,0xcccd
9d002fd8:	00820019 	multu	a0,v0
9d002fdc:	00001010 	mfhi	v0
9d002fe0:	000218c2 	srl	v1,v0,0x3
9d002fe4:	00601025 	move	v0,v1
9d002fe8:	00021080 	sll	v0,v0,0x2
9d002fec:	00431021 	addu	v0,v0,v1
9d002ff0:	00021040 	sll	v0,v0,0x1
9d002ff4:	00821823 	subu	v1,a0,v0
9d002ff8:	306300ff 	andi	v1,v1,0xff
9d002ffc:	8fc20004 	lw	v0,4(s8)
9d003000:	24440001 	addiu	a0,v0,1
9d003004:	afc40004 	sw	a0,4(s8)
9d003008:	34630030 	ori	v1,v1,0x30
9d00300c:	306300ff 	andi	v1,v1,0xff
9d003010:	a0430000 	sb	v1,0(v0)
        numberToConvert /= 0x0000000A;                                   //Divide numberToConvert by 10, then put the result back into the numberToConvert variable
9d003014:	8fc30020 	lw	v1,32(s8)
9d003018:	3c02cccc 	lui	v0,0xcccc
9d00301c:	3442cccd 	ori	v0,v0,0xcccd
9d003020:	00620019 	multu	v1,v0
9d003024:	00001010 	mfhi	v0
9d003028:	000210c2 	srl	v0,v0,0x3
9d00302c:	afc20020 	sw	v0,32(s8)
        if (!numberToConvert) break;                                     //Break from the loop whenever numberToConvert becomes empty
9d003030:	8fc20020 	lw	v0,32(s8)
9d003034:	10400009 	beqz	v0,9d00305c <uintToDecString+0xb8>
9d003038:	00000000 	nop
	while (counter++ <= 0x0000000B)
9d00303c:	8fc20000 	lw	v0,0(s8)
9d003040:	24430001 	addiu	v1,v0,1
9d003044:	afc30000 	sw	v1,0(s8)
9d003048:	2c42000c 	sltiu	v0,v0,12
9d00304c:	1440ffdf 	bnez	v0,9d002fcc <uintToDecString+0x28>
9d003050:	00000000 	nop
9d003054:	1000000d 	b	9d00308c <uintToDecString+0xe8>
9d003058:	00000000 	nop
        if (!numberToConvert) break;                                     //Break from the loop whenever numberToConvert becomes empty
9d00305c:	00000000 	nop
    }

    //Starting from the array index given by the value of the counter variable, start reversing the contents of the character array so that it's legible
    while (counter--) *(stringBuffer++) = *(--tempPointer);  //Copy the character at the address before the one stored in tempPointer into the next character in the stringBuffer array
9d003060:	1000000a 	b	9d00308c <uintToDecString+0xe8>
9d003064:	00000000 	nop
9d003068:	8fc20004 	lw	v0,4(s8)
9d00306c:	2442ffff 	addiu	v0,v0,-1
9d003070:	afc20004 	sw	v0,4(s8)
9d003074:	8fc20024 	lw	v0,36(s8)
9d003078:	24430001 	addiu	v1,v0,1
9d00307c:	afc30024 	sw	v1,36(s8)
9d003080:	8fc30004 	lw	v1,4(s8)
9d003084:	90630000 	lbu	v1,0(v1)
9d003088:	a0430000 	sb	v1,0(v0)
9d00308c:	8fc20000 	lw	v0,0(s8)
9d003090:	2443ffff 	addiu	v1,v0,-1
9d003094:	afc30000 	sw	v1,0(s8)
9d003098:	1440fff3 	bnez	v0,9d003068 <uintToDecString+0xc4>
9d00309c:	00000000 	nop

    *stringBuffer = 0x00;  //Complete the string by null terminating it with 0x00
9d0030a0:	8fc20024 	lw	v0,36(s8)
9d0030a4:	a0400000 	sb	zero,0(v0)
}
9d0030a8:	00000000 	nop
9d0030ac:	03c0e825 	move	sp,s8
9d0030b0:	8fbe001c 	lw	s8,28(sp)
9d0030b4:	27bd0020 	addiu	sp,sp,32
9d0030b8:	03e00008 	jr	ra
9d0030bc:	00000000 	nop

Disassembly of section .text.setupExternals:

9d0030c0 <setupExternals>:

//Setup Devices Function, configures any externally connected hardware devices with the correct settings needed for the application to work
inline void setupExternals()
{
9d0030c0:	27bdffd8 	addiu	sp,sp,-40
9d0030c4:	afbf0024 	sw	ra,36(sp)
9d0030c8:	afbe0020 	sw	s8,32(sp)
9d0030cc:	03a0f025 	move	s8,sp
    uint32_t counter = 0x0000FFFF;  //Create a counter variable to use for delay loops during the setup process
9d0030d0:	3402ffff 	li	v0,0xffff
9d0030d4:	afc20018 	sw	v0,24(s8)

    //Initialize the radio module
    initializeSX1231H(FSK_F_BT10);
9d0030d8:	24040001 	li	a0,1
9d0030dc:	0f400d83 	jal	9d00360c <initializeSX1231H>
9d0030e0:	00000000 	nop
    setCarrierFreqSX1231H(configRadioCarrier);
9d0030e4:	3c0219ce 	lui	v0,0x19ce
9d0030e8:	34424af0 	ori	v0,v0,0x4af0
9d0030ec:	00402025 	move	a0,v0
9d0030f0:	0f400d53 	jal	9d00354c <setCarrierFreqSX1231H>
9d0030f4:	00000000 	nop
    setBitRateSX1231H(configRadioBitrate);
9d0030f8:	24020960 	li	v0,2400
9d0030fc:	00402025 	move	a0,v0
9d003100:	0f40103d 	jal	9d0040f4 <setBitRateSX1231H>
9d003104:	00000000 	nop
    setFreqDeviationSX1231H(configRadioBitrate * 2);
9d003108:	24020960 	li	v0,2400
9d00310c:	00021040 	sll	v0,v0,0x1
9d003110:	00402025 	move	a0,v0
9d003114:	0f400e8b 	jal	9d003a2c <setFreqDeviationSX1231H>
9d003118:	00000000 	nop
    setPowerLevelSX1231H(0x00000001);
9d00311c:	24040001 	li	a0,1
9d003120:	0f400afb 	jal	9d002bec <setPowerLevelSX1231H>
9d003124:	00000000 	nop

    counter = 0x0000FFFF;
9d003128:	3402ffff 	li	v0,0xffff
9d00312c:	afc20018 	sw	v0,24(s8)

    //Initialize the LCD display
    initializeSSD1803A(VIEW_BOTTOM, LINES_2, BIAS_6TH, IR1);  //Send the desired operating configuration to the LCD controller chipset
9d003130:	24070069 	li	a3,105
9d003134:	24060003 	li	a2,3
9d003138:	24050019 	li	a1,25
9d00313c:	24040006 	li	a0,6
9d003140:	0f4006b8 	jal	9d001ae0 <initializeSSD1803A>
9d003144:	00000000 	nop
//    setContrastSSD1803A(0x0000003F);                                                //Set the LCDs contrast

    while (counter--);  //Wait a little bit before handling the barometric pressure sensor, she's a little bit sensitive
9d003148:	00000000 	nop
9d00314c:	8fc20018 	lw	v0,24(s8)
9d003150:	2443ffff 	addiu	v1,v0,-1
9d003154:	afc30018 	sw	v1,24(s8)
9d003158:	1440fffc 	bnez	v0,9d00314c <setupExternals+0x8c>
9d00315c:	00000000 	nop
    

    //Put the barometric pressure sensor into the desired operating mode
    initializeDPS368(OVERSAMPLE_32, BACKGROUND_1HZ, OVERSAMPLE_8, BACKGROUND_1HZ, 0x00000000);  //Send the desired operating configuration to the DPS368 pressure sensor
9d003160:	afa00010 	sw	zero,16(sp)
9d003164:	00003825 	move	a3,zero
9d003168:	24060003 	li	a2,3
9d00316c:	00002825 	move	a1,zero
9d003170:	24040005 	li	a0,5
9d003174:	0f4007c9 	jal	9d001f24 <initializeDPS368>
9d003178:	00000000 	nop

    counter = 0x000000FF;  //Alow a maximum of 255 attempts when trying to read the calibration data from the pressure sensor
9d00317c:	240200ff 	li	v0,255
9d003180:	afc20018 	sw	v0,24(s8)

    //Attempt to load the calibration data from the sensor
    while (counter--)
9d003184:	10000005 	b	9d00319c <setupExternals+0xdc>
9d003188:	00000000 	nop
    {
        if (readCalCoeffsDPS368()) break;  //Break the loop when the calibration data is read from the sensor
9d00318c:	0f400383 	jal	9d000e0c <readCalCoeffsDPS368>
9d003190:	00000000 	nop
9d003194:	14400008 	bnez	v0,9d0031b8 <setupExternals+0xf8>
9d003198:	00000000 	nop
    while (counter--)
9d00319c:	8fc20018 	lw	v0,24(s8)
9d0031a0:	2443ffff 	addiu	v1,v0,-1
9d0031a4:	afc30018 	sw	v1,24(s8)
9d0031a8:	1440fff8 	bnez	v0,9d00318c <setupExternals+0xcc>
9d0031ac:	00000000 	nop
    }
}
9d0031b0:	10000002 	b	9d0031bc <setupExternals+0xfc>
9d0031b4:	00000000 	nop
	...
9d0031c0:	03c0e825 	move	sp,s8
9d0031c4:	8fbf0024 	lw	ra,36(sp)
9d0031c8:	8fbe0020 	lw	s8,32(sp)
9d0031cc:	27bd0028 	addiu	sp,sp,40
9d0031d0:	03e00008 	jr	ra
9d0031d4:	00000000 	nop

Disassembly of section .text.main:

9d0031d8 <main>:

//Main Function, called upon reset of the MCU
void main()
{
9d0031d8:	27bdffe0 	addiu	sp,sp,-32
9d0031dc:	afbf001c 	sw	ra,28(sp)
9d0031e0:	afbe0018 	sw	s8,24(sp)
9d0031e4:	03a0f025 	move	s8,sp
    setupMCU();               //Configure the main functionality of the microcontroller for the application
9d0031e8:	0f400743 	jal	9d001d0c <setupMCU>
9d0031ec:	00000000 	nop
    setupExternals();         //Configure the external hardware devices for the application
9d0031f0:	0f400c30 	jal	9d0030c0 <setupExternals>
9d0031f4:	00000000 	nop
    initializeApplication();  //Setup the application threads and state machines to begin program execution
9d0031f8:	0f4012cf 	jal	9d004b3c <initializeApplication>
9d0031fc:	00000000 	nop

    putCursorSSD1803A(0x00000000);
9d003200:	0f4011a3 	jal	9d00468c <putCursorSSD1803A>
9d003204:	00002025 	move	a0,zero
    printStringSSD1803A("yea lol", 0x00000007);
9d003208:	24050007 	li	a1,7
9d00320c:	3c029d00 	lui	v0,0x9d00
9d003210:	0f400ddf 	jal	9d00377c <printStringSSD1803A>
9d003214:	24444c74 	addiu	a0,v0,19572
    putCursorSSD1803A(0x00000020);
9d003218:	0f4011a3 	jal	9d00468c <putCursorSSD1803A>
9d00321c:	24040020 	li	a0,32
    printStringSSD1803A("lol", 0x00000003);
9d003220:	24050003 	li	a1,3
9d003224:	3c029d00 	lui	v0,0x9d00
9d003228:	0f400ddf 	jal	9d00377c <printStringSSD1803A>
9d00322c:	24444c7c 	addiu	a0,v0,19580

    
    //Infinite loop of death mwuahahaha
    while (0xFFFFFFFF)
    {
        sensorFunctionTable[sensorThreadState]();  //Invoke the handler function for the sensor thread located at the given index of the sensor lookup table
9d003230:	8f838038 	lw	v1,-32712(gp)
9d003234:	3c02a000 	lui	v0,0xa000
9d003238:	00031880 	sll	v1,v1,0x2
9d00323c:	24420244 	addiu	v0,v0,580
9d003240:	00621021 	addu	v0,v1,v0
9d003244:	8c420000 	lw	v0,0(v0)
9d003248:	0040f809 	jalr	v0
9d00324c:	00000000 	nop
        radioFunctionTable[radioThreadState]();    //Invoke the handler function for the radio thread located at the given index of the radio lookup table
9d003250:	8f83803c 	lw	v1,-32708(gp)
9d003254:	3c02a000 	lui	v0,0xa000
9d003258:	00031880 	sll	v1,v1,0x2
9d00325c:	2442025c 	addiu	v0,v0,604
9d003260:	00621021 	addu	v0,v1,v0
9d003264:	8c420000 	lw	v0,0(v0)
9d003268:	0040f809 	jalr	v0
9d00326c:	00000000 	nop

        uint32_t sleepEnabled = !(sensorThreadState | radioThreadState);  //Determine if all the threads are in their respective SLEEP modes
9d003270:	8f838038 	lw	v1,-32712(gp)
9d003274:	8f82803c 	lw	v0,-32708(gp)
9d003278:	00621025 	or	v0,v1,v0
9d00327c:	2c420001 	sltiu	v0,v0,1
9d003280:	304200ff 	andi	v0,v0,0xff
9d003284:	afc20010 	sw	v0,16(s8)
        allowSleepMode(sleepEnabled);                                     //Enable/Disable the use of sleep-mode on the MCU where appropriate
9d003288:	0f401061 	jal	9d004184 <allowSleepMode>
9d00328c:	8fc40010 	lw	a0,16(s8)

        uint32_t noWait = sensorThreadState + (radioThreadState & 0xFFFFFFFC);  //Combine all the thread states together excluding IDLE bits
9d003290:	8f82803c 	lw	v0,-32708(gp)
9d003294:	7c020804 	ins	v0,zero,0x0,0x2
9d003298:	00401825 	move	v1,v0
9d00329c:	8f828038 	lw	v0,-32712(gp)
9d0032a0:	00621021 	addu	v0,v1,v0
9d0032a4:	afc20014 	sw	v0,20(s8)
        if (!noWait) asm volatile ("wait");                                     //Invoke the WAIT instruction on the CPU
9d0032a8:	8fc20014 	lw	v0,20(s8)
9d0032ac:	1440ffe0 	bnez	v0,9d003230 <main+0x58>
9d0032b0:	00000000 	nop
9d0032b4:	42000020 	wait
    {
9d0032b8:	1000ffdd 	b	9d003230 <main+0x58>
9d0032bc:	00000000 	nop

Disassembly of section .text.general_exception:

9d0032c0 <_general_exception_context>:
9d0032c0:	27bdffa8 	addiu	sp,sp,-88
9d0032c4:	afa10004 	sw	at,4(sp)
9d0032c8:	afa20008 	sw	v0,8(sp)
9d0032cc:	afa3000c 	sw	v1,12(sp)
9d0032d0:	afa40010 	sw	a0,16(sp)
9d0032d4:	afa50014 	sw	a1,20(sp)
9d0032d8:	afa60018 	sw	a2,24(sp)
9d0032dc:	afa7001c 	sw	a3,28(sp)
9d0032e0:	afa80020 	sw	t0,32(sp)
9d0032e4:	afa90024 	sw	t1,36(sp)
9d0032e8:	afaa0028 	sw	t2,40(sp)
9d0032ec:	afab002c 	sw	t3,44(sp)
9d0032f0:	afac0030 	sw	t4,48(sp)
9d0032f4:	afad0034 	sw	t5,52(sp)
9d0032f8:	afae0038 	sw	t6,56(sp)
9d0032fc:	afaf003c 	sw	t7,60(sp)
9d003300:	afb80040 	sw	t8,64(sp)
9d003304:	afb90044 	sw	t9,68(sp)
9d003308:	afbf0048 	sw	ra,72(sp)
9d00330c:	00004012 	mflo	t0
9d003310:	afa8004c 	sw	t0,76(sp)
9d003314:	00004010 	mfhi	t0
9d003318:	afa80050 	sw	t0,80(sp)
9d00331c:	3c1a9d00 	lui	k0,0x9d00
9d003320:	275a49e4 	addiu	k0,k0,18916
9d003324:	00000000 	nop
9d003328:	40046800 	mfc0	a0,c0_cause
9d00332c:	40056000 	mfc0	a1,c0_status
9d003330:	0340f809 	jalr	k0
9d003334:	00000000 	nop
9d003338:	8fa80050 	lw	t0,80(sp)
9d00333c:	01000011 	mthi	t0
9d003340:	8fa8004c 	lw	t0,76(sp)
9d003344:	01000013 	mtlo	t0
9d003348:	8fa10004 	lw	at,4(sp)
9d00334c:	8fa20008 	lw	v0,8(sp)
9d003350:	8fa3000c 	lw	v1,12(sp)
9d003354:	8fa40010 	lw	a0,16(sp)
9d003358:	8fa50014 	lw	a1,20(sp)
9d00335c:	8fa60018 	lw	a2,24(sp)
9d003360:	8fa7001c 	lw	a3,28(sp)
9d003364:	8fa80020 	lw	t0,32(sp)
9d003368:	8fa90024 	lw	t1,36(sp)
9d00336c:	8faa0028 	lw	t2,40(sp)
9d003370:	8fab002c 	lw	t3,44(sp)
9d003374:	8fac0030 	lw	t4,48(sp)
9d003378:	8fad0034 	lw	t5,52(sp)
9d00337c:	8fae0038 	lw	t6,56(sp)
9d003380:	8faf003c 	lw	t7,60(sp)
9d003384:	8fb80040 	lw	t8,64(sp)
9d003388:	8fb90044 	lw	t9,68(sp)
9d00338c:	8fbf0048 	lw	ra,72(sp)
9d003390:	27bd0058 	addiu	sp,sp,88
9d003394:	000000c0 	ehb
9d003398:	42000018 	eret

Disassembly of section .text.convertToRHFromSHT4X:

9d00339c <convertToRHFromSHT4X>:
    return ((float) *rawSensorValue / 65535.0F * 315.0F) - -49.0F;  //Calculate the temperature in Fahrenheit
}

//Convert To Relative Humidity From SHT4X, returns the relative humidity in % from the provided raw SHT4X sensor data
float convertToRHFromSHT4X(const uint16_t *rawSensorValue)
{
9d00339c:	27bdffe0 	addiu	sp,sp,-32
9d0033a0:	afbf001c 	sw	ra,28(sp)
9d0033a4:	afbe0018 	sw	s8,24(sp)
9d0033a8:	03a0f025 	move	s8,sp
9d0033ac:	afc40020 	sw	a0,32(s8)
    float returnValue = ((float) *rawSensorValue / 65535.0F * 125.0F) - 6.0F;  //Calculate the actual humidity as a percentage
9d0033b0:	8fc20020 	lw	v0,32(s8)
9d0033b4:	94420000 	lhu	v0,0(v0)
9d0033b8:	00402025 	move	a0,v0
9d0033bc:	0f401255 	jal	9d004954 <__floatunsisf>
9d0033c0:	00000000 	nop
9d0033c4:	00401825 	move	v1,v0
9d0033c8:	3c029d00 	lui	v0,0x9d00
9d0033cc:	8c454b90 	lw	a1,19344(v0)
9d0033d0:	00602025 	move	a0,v1
9d0033d4:	0f40062c 	jal	9d0018b0 <__divsf3>
9d0033d8:	00000000 	nop
9d0033dc:	00401825 	move	v1,v0
9d0033e0:	3c029d00 	lui	v0,0x9d00
9d0033e4:	8c454ba4 	lw	a1,19364(v0)
9d0033e8:	00602025 	move	a0,v1
9d0033ec:	0f40084e 	jal	9d002138 <__mulsf3>
9d0033f0:	00000000 	nop
9d0033f4:	00401825 	move	v1,v0
9d0033f8:	3c029d00 	lui	v0,0x9d00
9d0033fc:	8c454ba8 	lw	a1,19368(v0)
9d003400:	00602025 	move	a0,v1
9d003404:	0f400501 	jal	9d001404 <__subsf3>
9d003408:	00000000 	nop
9d00340c:	afc20010 	sw	v0,16(s8)
    if (returnValue > 100) returnValue = 100;  //Bound the calculated relative humidity to an upper limit of 100% RH
9d003410:	3c029d00 	lui	v0,0x9d00
9d003414:	8c454bac 	lw	a1,19372(v0)
9d003418:	8fc40010 	lw	a0,16(s8)
9d00341c:	0f400fca 	jal	9d003f28 <__eqsf2>
9d003420:	00000000 	nop
9d003424:	18400004 	blez	v0,9d003438 <convertToRHFromSHT4X+0x9c>
9d003428:	00000000 	nop
9d00342c:	3c029d00 	lui	v0,0x9d00
9d003430:	8c424bac 	lw	v0,19372(v0)
9d003434:	afc20010 	sw	v0,16(s8)
    if (returnValue < 0) returnValue = 0;      //Bound the calculated relative humidity to a lower limit of 0% RH
9d003438:	00002825 	move	a1,zero
9d00343c:	8fc40010 	lw	a0,16(s8)
9d003440:	0f400ff1 	jal	9d003fc4 <fpcmplt>
9d003444:	00000000 	nop
9d003448:	04410003 	bgez	v0,9d003458 <convertToRHFromSHT4X+0xbc>
9d00344c:	00000000 	nop
9d003450:	00001025 	move	v0,zero
9d003454:	afc20010 	sw	v0,16(s8)

    return returnValue;  //Return the calculated relative humidity
9d003458:	8fc20010 	lw	v0,16(s8)
}
9d00345c:	03c0e825 	move	sp,s8
9d003460:	8fbf001c 	lw	ra,28(sp)
9d003464:	8fbe0018 	lw	s8,24(sp)
9d003468:	27bd0020 	addiu	sp,sp,32
9d00346c:	03e00008 	jr	ra
9d003470:	00000000 	nop

Disassembly of section .logging_constants:

9d003474 <logConstants_measurementReport>:
9d003474:	0a0a0a0a 7361654d 6d657275 0a746e65     ....Measurement.
9d003484:	65542020 7265706d 72757461 20203a65       Temperature:  
9d003494:	200a4320 20202020 696d7548 79746964      C.     Humidity
9d0034a4:	2020203a 20200a25 50202020 73736572     :   %.     Press
9d0034b4:	3a657275 50202020 00000061              ure:   Pa...

9d0034c0 <logConstants_packet>:
9d0034c0:	61500a0a 74656b63 2020200a 676e654c     ..Packet.   Leng
9d0034d0:	203a6874 20200a20 72646441 3a737365     th:  .  Address:
9d0034e0:	200a2020 20202020 65707954 0a20203a       .     Type:  .
9d0034f0:	72462020 20656d61 20203a23 2020200a       Frame #:  .   
9d003500:	52202020 203a7761 0c000000                 Raw: ....

9d00350c <logConstants_rssi>:
9d00350c:	61520a0a 0a6f6964 53522020 203a4953     ..Radio.  RSSI: 
9d00351c:	42642020 0000006d                         dBm...

9d003524 <logConstants_packetType_acknowledge>:
9d003524:	4e4b4341 454c574f 00454744 0c000000     ACKNOWLEDGE.....

9d003534 <logConstants_packetType_event>:
9d003534:	4e455645 00000054                       EVENT...

9d00353c <logConstants_packetType_measureReport>:
9d00353c:	5341454d 5f455255 4f504552 00005452     MEASURE_REPORT..

Disassembly of section .text.setCarrierFreqSX1231H:

9d00354c <setCarrierFreqSX1231H>:
{
9d00354c:	27bdffd8 	addiu	sp,sp,-40
9d003550:	afbf0024 	sw	ra,36(sp)
9d003554:	afbe0020 	sw	s8,32(sp)
9d003558:	03a0f025 	move	s8,sp
9d00355c:	afc40028 	sw	a0,40(s8)
    float calculatedFrequency = (float) freqRF / SX1231H_F_STEP;  //Calculate the value of Frf to provide the transceiver IC to achieve the desired carrier frequency
9d003560:	8fc40028 	lw	a0,40(s8)
9d003564:	0f401255 	jal	9d004954 <__floatunsisf>
9d003568:	00000000 	nop
9d00356c:	00401825 	move	v1,v0
9d003570:	3c029d00 	lui	v0,0x9d00
9d003574:	8c454bc8 	lw	a1,19400(v0)
9d003578:	00602025 	move	a0,v1
9d00357c:	0f40062c 	jal	9d0018b0 <__divsf3>
9d003580:	00000000 	nop
9d003584:	afc20010 	sw	v0,16(s8)
    uint32_t regFrfValue = calculatedFrequency;                   //Force cast the calculated value into an unsigned 32-bit integer to make byte separation easier
9d003588:	8fc40010 	lw	a0,16(s8)
9d00358c:	0f401148 	jal	9d004520 <__fixunssfsi>
9d003590:	00000000 	nop
9d003594:	afc20014 	sw	v0,20(s8)
    registerValues[0x00000002] = regFrfValue & 0x000000FF;  //Write the first 8 bits of regFrfValue into the 3rd element of the registerValues array
9d003598:	8fc20014 	lw	v0,20(s8)
9d00359c:	304200ff 	andi	v0,v0,0xff
9d0035a0:	a3c2001a 	sb	v0,26(s8)
    regFrfValue >>= 0x00000008;                             //Shift the contents of regFrfValue to the right by 8 bits
9d0035a4:	8fc20014 	lw	v0,20(s8)
9d0035a8:	00021202 	srl	v0,v0,0x8
9d0035ac:	afc20014 	sw	v0,20(s8)
    registerValues[0x00000001] = regFrfValue & 0x000000FF;  //Write the next 8 bits of regFrfValue into the 2nd element of the registerValues array
9d0035b0:	8fc20014 	lw	v0,20(s8)
9d0035b4:	304200ff 	andi	v0,v0,0xff
9d0035b8:	a3c20019 	sb	v0,25(s8)
    regFrfValue >>= 0x00000008;                             //Shift the contents of regFrfValue to the right by 8 bits
9d0035bc:	8fc20014 	lw	v0,20(s8)
9d0035c0:	00021202 	srl	v0,v0,0x8
9d0035c4:	afc20014 	sw	v0,20(s8)
    registerValues[0x00000000] = regFrfValue & 0x000000FF;  //Write the final 8 bits of the regFrfValue variable into the first index of the array
9d0035c8:	8fc20014 	lw	v0,20(s8)
9d0035cc:	304200ff 	andi	v0,v0,0xff
9d0035d0:	a3c20018 	sb	v0,24(s8)
    interactWithRegistersSX1231H(REGADDR_FRF_MSB, registerValues, 0x00000003, 0x00000000);  //Send the configuration bytes to the transceiver IC
9d0035d4:	27c20018 	addiu	v0,s8,24
9d0035d8:	00003825 	move	a3,zero
9d0035dc:	24060003 	li	a2,3
9d0035e0:	00402825 	move	a1,v0
9d0035e4:	24040007 	li	a0,7
9d0035e8:	0f400aa2 	jal	9d002a88 <interactWithRegistersSX1231H>
9d0035ec:	00000000 	nop
}
9d0035f0:	00000000 	nop
9d0035f4:	03c0e825 	move	sp,s8
9d0035f8:	8fbf0024 	lw	ra,36(sp)
9d0035fc:	8fbe0020 	lw	s8,32(sp)
9d003600:	27bd0028 	addiu	sp,sp,40
9d003604:	03e00008 	jr	ra
9d003608:	00000000 	nop

Disassembly of section .text.initializeSX1231H:

9d00360c <initializeSX1231H>:
{
9d00360c:	27bdffe0 	addiu	sp,sp,-32
9d003610:	afbf001c 	sw	ra,28(sp)
9d003614:	afbe0018 	sw	s8,24(sp)
9d003618:	03a0f025 	move	s8,sp
9d00361c:	afc40020 	sw	a0,32(s8)
    configBytes[0x00000000] = 0x04;        //Put the transceiver into SLEEP mode by default
9d003620:	24020004 	li	v0,4
9d003624:	a3c20010 	sb	v0,16(s8)
    configBytes[0x00000001] = modulation;  //Set the desired modulation scheme
9d003628:	8fc20020 	lw	v0,32(s8)
9d00362c:	304200ff 	andi	v0,v0,0xff
9d003630:	a3c20011 	sb	v0,17(s8)
    interactWithRegistersSX1231H(0x00000001, configBytes, 0x00000002, 0x00000000);  //Send the configuration bytes to the transceiver IC with a starting address of 0x01 (RegOpMode)
9d003634:	00003825 	move	a3,zero
9d003638:	24060002 	li	a2,2
9d00363c:	27c20010 	addiu	v0,s8,16
9d003640:	00402825 	move	a1,v0
9d003644:	24040001 	li	a0,1
9d003648:	0f400aa2 	jal	9d002a88 <interactWithRegistersSX1231H>
9d00364c:	00000000 	nop
    interactWithRegistersSX1231H(0x00000018, (uint8_t *) SX1231H_Init, 0x00000002, 0x00000000);  //Send the configuration bytes to the transceiver IC with a starting address of 0x18
9d003650:	00003825 	move	a3,zero
9d003654:	24060002 	li	a2,2
9d003658:	3c029d00 	lui	v0,0x9d00
9d00365c:	24454bb0 	addiu	a1,v0,19376
9d003660:	24040018 	li	a0,24
9d003664:	0f400aa2 	jal	9d002a88 <interactWithRegistersSX1231H>
9d003668:	00000000 	nop
    interactWithRegistersSX1231H(0x00000025, (uint8_t *) SX1231H_Init + 0x00000002, 0x00000002, 0x00000000);  //Send the configuration bytes to the transceiver IC with a starting address of 0x25
9d00366c:	3c029d00 	lui	v0,0x9d00
9d003670:	24424bb2 	addiu	v0,v0,19378
9d003674:	00003825 	move	a3,zero
9d003678:	24060002 	li	a2,2
9d00367c:	00402825 	move	a1,v0
9d003680:	24040025 	li	a0,37
9d003684:	0f400aa2 	jal	9d002a88 <interactWithRegistersSX1231H>
9d003688:	00000000 	nop
    interactWithRegistersSX1231H(0x0000002C, (uint8_t *) SX1231H_Init + 0x00000004, 0x00000012, 0x00000000);  //Send the configuration bytes to the transceiver IC with a starting address of 0x2C
9d00368c:	3c029d00 	lui	v0,0x9d00
9d003690:	24424bb4 	addiu	v0,v0,19380
9d003694:	00003825 	move	a3,zero
9d003698:	24060012 	li	a2,18
9d00369c:	00402825 	move	a1,v0
9d0036a0:	2404002c 	li	a0,44
9d0036a4:	0f400aa2 	jal	9d002a88 <interactWithRegistersSX1231H>
9d0036a8:	00000000 	nop
}
9d0036ac:	00000000 	nop
9d0036b0:	03c0e825 	move	sp,s8
9d0036b4:	8fbf001c 	lw	ra,28(sp)
9d0036b8:	8fbe0018 	lw	s8,24(sp)
9d0036bc:	27bd0020 	addiu	sp,sp,32
9d0036c0:	03e00008 	jr	ra
9d0036c4:	00000000 	nop

Disassembly of section .text.getResultsSHT4X:

9d0036c8 <getResultsSHT4X>:
{
9d0036c8:	27bdffe0 	addiu	sp,sp,-32
9d0036cc:	afbf001c 	sw	ra,28(sp)
9d0036d0:	afbe0018 	sw	s8,24(sp)
9d0036d4:	03a0f025 	move	s8,sp
9d0036d8:	afc40020 	sw	a0,32(s8)
9d0036dc:	afc50024 	sw	a1,36(s8)
    if (!readFromI2C(SHT4X_I2C_ADDR, dataBuffer, 0x00000006, 0x00)) return 0x00000000;  //Attempt to read from the sensors FIFO buffer, exit the function with 0x00 if the sensor is non-responsive
9d0036e0:	00003825 	move	a3,zero
9d0036e4:	24060006 	li	a2,6
9d0036e8:	27c20010 	addiu	v0,s8,16
9d0036ec:	00402825 	move	a1,v0
9d0036f0:	24040044 	li	a0,68
9d0036f4:	0f4008bd 	jal	9d0022f4 <readFromI2C>
9d0036f8:	00000000 	nop
9d0036fc:	14400004 	bnez	v0,9d003710 <getResultsSHT4X+0x48>
9d003700:	00000000 	nop
9d003704:	00001025 	move	v0,zero
9d003708:	10000016 	b	9d003764 <getResultsSHT4X+0x9c>
9d00370c:	00000000 	nop
    *rawTemperature = (dataBuffer[0x00000000] << 0x00000008) + dataBuffer[0x00000001];  //Consolidate the raw temperature measurement from the byte array obtained from the sensor
9d003710:	93c20010 	lbu	v0,16(s8)
9d003714:	3042ffff 	andi	v0,v0,0xffff
9d003718:	00021200 	sll	v0,v0,0x8
9d00371c:	3043ffff 	andi	v1,v0,0xffff
9d003720:	93c20011 	lbu	v0,17(s8)
9d003724:	3042ffff 	andi	v0,v0,0xffff
9d003728:	00621021 	addu	v0,v1,v0
9d00372c:	3043ffff 	andi	v1,v0,0xffff
9d003730:	8fc20020 	lw	v0,32(s8)
9d003734:	a4430000 	sh	v1,0(v0)
    *rawHumidity = (dataBuffer[0x00000003] << 0x00000008) + dataBuffer[0x00000004];     //Consolidate the raw humidity measurement from the byte array obtained from the sensor
9d003738:	93c20013 	lbu	v0,19(s8)
9d00373c:	3042ffff 	andi	v0,v0,0xffff
9d003740:	00021200 	sll	v0,v0,0x8
9d003744:	3043ffff 	andi	v1,v0,0xffff
9d003748:	93c20014 	lbu	v0,20(s8)
9d00374c:	3042ffff 	andi	v0,v0,0xffff
9d003750:	00621021 	addu	v0,v1,v0
9d003754:	3043ffff 	andi	v1,v0,0xffff
9d003758:	8fc20024 	lw	v0,36(s8)
9d00375c:	a4430000 	sh	v1,0(v0)
    return 0xFFFFFFFF;  //Indicate a successful FIFO read by returning 0xFF
9d003760:	2402ffff 	li	v0,-1
}
9d003764:	03c0e825 	move	sp,s8
9d003768:	8fbf001c 	lw	ra,28(sp)
9d00376c:	8fbe0018 	lw	s8,24(sp)
9d003770:	27bd0020 	addiu	sp,sp,32
9d003774:	03e00008 	jr	ra
9d003778:	00000000 	nop

Disassembly of section .text.printStringSSD1803A:

9d00377c <printStringSSD1803A>:
    return writeToI2C(SSD1803A_I2C_ADDR, outputBytes, 0x00000002);  //Try and send the byte sequence to the LCD controller and return the result
}

//Print String Function, prints the provided string to the LCD display
uint32_t printStringSSD1803A(uint8_t *string, uint32_t length)
{
9d00377c:	27bdffe0 	addiu	sp,sp,-32
9d003780:	afbf001c 	sw	ra,28(sp)
9d003784:	afbe0018 	sw	s8,24(sp)
9d003788:	03a0f025 	move	s8,sp
9d00378c:	afc40020 	sw	a0,32(s8)
9d003790:	afc50024 	sw	a1,36(s8)
    uint8_t outputBytes[0x00000002];           //Create a 2 byte long array to use for creating the sequence of bytes to send to the LCD controller
    uint8_t *byte = outputBytes + 0x00000001;  //Declare a pointer to the second byte in the ouptutBytes array
9d003794:	27c20014 	addiu	v0,s8,20
9d003798:	24420001 	addiu	v0,v0,1
9d00379c:	afc20010 	sw	v0,16(s8)
    *outputBytes = 0xC0;                       //Set the first byte of the sequence to 0, this indicates the next byte will be an instruction
9d0037a0:	2402ffc0 	li	v0,-64
9d0037a4:	a3c20014 	sb	v0,20(s8)

    //Write each character from the provided string into the DDRAM on the LCD controller
    while (length--)
9d0037a8:	10000013 	b	9d0037f8 <printStringSSD1803A+0x7c>
9d0037ac:	00000000 	nop
    {
        *byte = *string;  //Copy the next character from the provided string into the location of the byte pointer
9d0037b0:	8fc20020 	lw	v0,32(s8)
9d0037b4:	90430000 	lbu	v1,0(v0)
9d0037b8:	8fc20010 	lw	v0,16(s8)
9d0037bc:	a0430000 	sb	v1,0(v0)
        string++;         //Increment the address of the string pointer by 1
9d0037c0:	8fc20020 	lw	v0,32(s8)
9d0037c4:	24420001 	addiu	v0,v0,1
9d0037c8:	afc20020 	sw	v0,32(s8)

        if (!writeToI2C(SSD1803A_I2C_ADDR, outputBytes, 0x00000002)) return 0x00000000;  //Send the character to the controller
9d0037cc:	27c20014 	addiu	v0,s8,20
9d0037d0:	24060002 	li	a2,2
9d0037d4:	00402825 	move	a1,v0
9d0037d8:	2404003c 	li	a0,60
9d0037dc:	0f400b9f 	jal	9d002e7c <writeToI2C>
9d0037e0:	00000000 	nop
9d0037e4:	14400004 	bnez	v0,9d0037f8 <printStringSSD1803A+0x7c>
9d0037e8:	00000000 	nop
9d0037ec:	00001025 	move	v0,zero
9d0037f0:	10000007 	b	9d003810 <printStringSSD1803A+0x94>
9d0037f4:	00000000 	nop
    while (length--)
9d0037f8:	8fc20024 	lw	v0,36(s8)
9d0037fc:	2443ffff 	addiu	v1,v0,-1
9d003800:	afc30024 	sw	v1,36(s8)
9d003804:	1440ffea 	bnez	v0,9d0037b0 <printStringSSD1803A+0x34>
9d003808:	00000000 	nop
    }

    return 0xFFFFFFFF;  //Return a value of true to indicate the operation completed successfully
9d00380c:	2402ffff 	li	v0,-1
}
9d003810:	03c0e825 	move	sp,s8
9d003814:	8fbf001c 	lw	ra,28(sp)
9d003818:	8fbe0018 	lw	s8,24(sp)
9d00381c:	27bd0020 	addiu	sp,sp,32
9d003820:	03e00008 	jr	ra
9d003824:	00000000 	nop

Disassembly of section .text.setupInterrupts:

9d003828 <setupInterrupts>:
 *  Initialization  *
 ********************/

//Setup Interrupts Function, configures the interrupt controller to receive and create program interrupts for the application
inline void setupInterrupts()
{
9d003828:	27bdfff8 	addiu	sp,sp,-8
9d00382c:	afbe0004 	sw	s8,4(sp)
9d003830:	03a0f025 	move	s8,sp
    asm volatile ("di");  //Disable global interrupts
9d003834:	41606000 	di
    INTCON = 0x00001010;  //Enable multi-vector interrupt modes
9d003838:	3c02bf88 	lui	v0,0xbf88
9d00383c:	24031010 	li	v1,4112
9d003840:	ac431000 	sw	v1,4096(v0)

    IFS0 = 0x00000000;  //Clear the entire IFS0 register to clear all interrupt flags
9d003844:	3c02bf88 	lui	v0,0xbf88
9d003848:	ac401030 	sw	zero,4144(v0)
    IFS1 = 0x00000000;  //Clear the entire IFS1 register to clear all interrupt flags
9d00384c:	3c02bf88 	lui	v0,0xbf88
9d003850:	ac401040 	sw	zero,4160(v0)

    IPC1 = 0x00000008;   //Set the Timer 1 interrupt priority to level 2
9d003854:	3c02bf88 	lui	v0,0xbf88
9d003858:	24030008 	li	v1,8
9d00385c:	ac4310a0 	sw	v1,4256(v0)
    IPC3 = 0x0000000C;   //Set the Timer 2 interrupt priority to level 3
9d003860:	3c02bf88 	lui	v0,0xbf88
9d003864:	2403000c 	li	v1,12
9d003868:	ac4310c0 	sw	v1,4288(v0)
    IPC4 = 0x0C000000;   //Set the External Interrupt 4 priority to level 3
9d00386c:	3c02bf88 	lui	v0,0xbf88
9d003870:	3c030c00 	lui	v1,0xc00
9d003874:	ac4310d0 	sw	v1,4304(v0)
    IPC6 = 0x00000800;   //Set the RTCC interrupt priority to level 2
9d003878:	3c02bf88 	lui	v0,0xbf88
9d00387c:	24030800 	li	v1,2048
9d003880:	ac4310f0 	sw	v1,4336(v0)
    IPC8 = 0x00040000;   //Set the Change Notice interrupt priority to level 1
9d003884:	3c02bf88 	lui	v0,0xbf88
9d003888:	3c030004 	lui	v1,0x4
9d00388c:	ac431110 	sw	v1,4368(v0)
    IPC10 = 0x00080000;  //Set the DMA 2 interrupt priority to level 2
9d003890:	3c02bf88 	lui	v0,0xbf88
9d003894:	3c030008 	lui	v1,0x8
9d003898:	ac431130 	sw	v1,4400(v0)

    IEC0 = 0x40800210;  //Enable the Timer 1 period match, Timer 2 period match, RTCC, and 4th external interrupts
9d00389c:	3c02bf88 	lui	v0,0xbf88
9d0038a0:	3c034080 	lui	v1,0x4080
9d0038a4:	34630210 	ori	v1,v1,0x210
9d0038a8:	ac431060 	sw	v1,4192(v0)
    IEC1 = 0x40000000;
9d0038ac:	3c02bf88 	lui	v0,0xbf88
9d0038b0:	3c034000 	lui	v1,0x4000
9d0038b4:	ac431070 	sw	v1,4208(v0)
//    IEC1 = 0x40004000;  //Enable the DMA 2 abort/complete interrupt and Port B change notification interrupts

    asm volatile ("ei");  //Enable global interrupts again
9d0038b8:	41606020 	ei
}
9d0038bc:	00000000 	nop
9d0038c0:	03c0e825 	move	sp,s8
9d0038c4:	8fbe0004 	lw	s8,4(sp)
9d0038c8:	27bd0008 	addiu	sp,sp,8
9d0038cc:	03e00008 	jr	ra
9d0038d0:	00000000 	nop

Disassembly of section .text.dma2ISR:

9d0038d4 <dma2ISR>:
    sensorThreadState = SENSOR_START_MEASUREMENTS;  //Begin a new measurement by putting the sensor thread into the SENSOR_START_MEASUREMENTS state
}

//DMA Channel 2 Interrupt Handler Function, called when DMA2 aborts or finishes transferring a block of data
void __ISR(_DMA_2_VECTOR, IPL2SOFT) dma2ISR()
{
9d0038d4:	415de800 	rdpgpr	sp,sp
9d0038d8:	401a7000 	mfc0	k0,c0_epc
9d0038dc:	401b6000 	mfc0	k1,c0_status
9d0038e0:	27bdffe0 	addiu	sp,sp,-32
9d0038e4:	afba001c 	sw	k0,28(sp)
9d0038e8:	401a6002 	mfc0	k0,c0_srsctl
9d0038ec:	afbb0018 	sw	k1,24(sp)
9d0038f0:	afba0014 	sw	k0,20(sp)
9d0038f4:	7c1b7844 	ins	k1,zero,0x1,0xf
9d0038f8:	377b0800 	ori	k1,k1,0x800
9d0038fc:	409b6000 	mtc0	k1,c0_status
9d003900:	afbe000c 	sw	s8,12(sp)
9d003904:	afa30008 	sw	v1,8(sp)
9d003908:	afa20004 	sw	v0,4(sp)
9d00390c:	03a0f025 	move	s8,sp
    IFS1CLR = 0x40000000;  //Clear the DMA 2 interrupt flag
9d003910:	3c02bf88 	lui	v0,0xbf88
9d003914:	3c034000 	lui	v1,0x4000
9d003918:	ac431044 	sw	v1,4164(v0)

    //Not sure I've done this, but it doesn't to behave correctly without this /shrug
    DCH2INT = 0x00080000;           //Clear the interrupts flags for DMA 2 itself
9d00391c:	3c02bf88 	lui	v0,0xbf88
9d003920:	3c030008 	lui	v1,0x8
9d003924:	ac433200 	sw	v1,12800(v0)
    while (!(U2STA & 0x00000100));  //Wait until the transmission has completed fully before leaving
9d003928:	00000000 	nop
9d00392c:	3c02bf80 	lui	v0,0xbf80
9d003930:	8c426210 	lw	v0,25104(v0)
9d003934:	30420100 	andi	v0,v0,0x100
9d003938:	1040fffc 	beqz	v0,9d00392c <dma2ISR+0x58>
9d00393c:	00000000 	nop
}
9d003940:	00000000 	nop
9d003944:	03c0e825 	move	sp,s8
9d003948:	8fbe000c 	lw	s8,12(sp)
9d00394c:	8fa30008 	lw	v1,8(sp)
9d003950:	8fa20004 	lw	v0,4(sp)
9d003954:	41606000 	di
9d003958:	000000c0 	ehb
9d00395c:	8fba001c 	lw	k0,28(sp)
9d003960:	8fbb0018 	lw	k1,24(sp)
9d003964:	409a7000 	mtc0	k0,c0_epc
9d003968:	8fba0014 	lw	k0,20(sp)
9d00396c:	27bd0020 	addiu	sp,sp,32
9d003970:	409a6002 	mtc0	k0,c0_srsctl
9d003974:	41dde800 	wrpgpr	sp,sp
9d003978:	409b6000 	mtc0	k1,c0_status
9d00397c:	42000018 	eret

Disassembly of section .text.generateHeader:

9d003980 <generateHeader>:
{
9d003980:	27bdfff8 	addiu	sp,sp,-8
9d003984:	afbe0004 	sw	s8,4(sp)
9d003988:	03a0f025 	move	s8,sp
9d00398c:	afc40008 	sw	a0,8(s8)
9d003990:	afc5000c 	sw	a1,12(s8)
9d003994:	00c01025 	move	v0,a2
9d003998:	a3c20010 	sb	v0,16(s8)
    header->length = packetLength;                                       //Set the length of the packet to provided length value
9d00399c:	8fc20008 	lw	v0,8(s8)
9d0039a0:	93c30010 	lbu	v1,16(s8)
9d0039a4:	a0430000 	sb	v1,0(v0)
    header->sourceAddress = configNodeID;                                //Put the applications configured node ID value into the appropriate field in the header
9d0039a8:	3c029d00 	lui	v0,0x9d00
9d0039ac:	90434c4c 	lbu	v1,19532(v0)
9d0039b0:	8fc20008 	lw	v0,8(s8)
9d0039b4:	a0430001 	sb	v1,1(v0)
    header->payloadType = (uint8_t) packetType;                          //Set the type field of the header to the given payload type value
9d0039b8:	8fc2000c 	lw	v0,12(s8)
9d0039bc:	304300ff 	andi	v1,v0,0xff
9d0039c0:	8fc20008 	lw	v0,8(s8)
9d0039c4:	a0430002 	sb	v1,2(v0)
    header->frameNumberMSB = (globalFrameCount & 0xFF00) >> 0x00000008;  //Mask out the upper byte of the globalFrameCount variable, and write that byte to frameNumberMSB in the header
9d0039c8:	97828034 	lhu	v0,-32716(gp)
9d0039cc:	3042ffff 	andi	v0,v0,0xffff
9d0039d0:	00021203 	sra	v0,v0,0x8
9d0039d4:	304300ff 	andi	v1,v0,0xff
9d0039d8:	8fc20008 	lw	v0,8(s8)
9d0039dc:	a0430003 	sb	v1,3(v0)
    header->frameNumberLSB = globalFrameCount++ & 0x00FF;                //Put the lower byte of globalFrameCount into frameNumberLSB, incrementing the contents of globalFrameCount by 1
9d0039e0:	97828034 	lhu	v0,-32716(gp)
9d0039e4:	3042ffff 	andi	v0,v0,0xffff
9d0039e8:	24430001 	addiu	v1,v0,1
9d0039ec:	3063ffff 	andi	v1,v1,0xffff
9d0039f0:	a7838034 	sh	v1,-32716(gp)
9d0039f4:	304300ff 	andi	v1,v0,0xff
9d0039f8:	8fc20008 	lw	v0,8(s8)
9d0039fc:	a0430004 	sb	v1,4(v0)
    if (!globalFrameCount) globalFrameCount = 0x0000;  //Reset the value of globalFrameCount to 1 upon rollover, 0 is exclusively used for the very first packet on power up
9d003a00:	97828034 	lhu	v0,-32716(gp)
9d003a04:	3042ffff 	andi	v0,v0,0xffff
9d003a08:	14400002 	bnez	v0,9d003a14 <generateHeader+0x94>
9d003a0c:	00000000 	nop
9d003a10:	a7808034 	sh	zero,-32716(gp)
}
9d003a14:	00000000 	nop
9d003a18:	03c0e825 	move	sp,s8
9d003a1c:	8fbe0004 	lw	s8,4(sp)
9d003a20:	27bd0008 	addiu	sp,sp,8
9d003a24:	03e00008 	jr	ra
9d003a28:	00000000 	nop

Disassembly of section .text.setFreqDeviationSX1231H:

9d003a2c <setFreqDeviationSX1231H>:
{
9d003a2c:	27bdffd8 	addiu	sp,sp,-40
9d003a30:	afbf0024 	sw	ra,36(sp)
9d003a34:	afbe0020 	sw	s8,32(sp)
9d003a38:	03a0f025 	move	s8,sp
9d003a3c:	afc40028 	sw	a0,40(s8)
    float calculatedDeviation = (float) freqDev / SX1231H_F_STEP;  //Calculate the value of Fdev to provide to the transceiver to achieve the desired frequency deviation in FSK mode
9d003a40:	8fc40028 	lw	a0,40(s8)
9d003a44:	0f401255 	jal	9d004954 <__floatunsisf>
9d003a48:	00000000 	nop
9d003a4c:	00401825 	move	v1,v0
9d003a50:	3c029d00 	lui	v0,0x9d00
9d003a54:	8c454bc8 	lw	a1,19400(v0)
9d003a58:	00602025 	move	a0,v1
9d003a5c:	0f40062c 	jal	9d0018b0 <__divsf3>
9d003a60:	00000000 	nop
9d003a64:	afc20010 	sw	v0,16(s8)
    uint16_t regFdevValue = calculatedDeviation;                   //Force cast the calculated value into an unsigned 16-bit integer to make byte separation easier
9d003a68:	8fc40010 	lw	a0,16(s8)
9d003a6c:	0f401148 	jal	9d004520 <__fixunssfsi>
9d003a70:	00000000 	nop
9d003a74:	a7c20014 	sh	v0,20(s8)
    registerValues[0x00000001] = regFdevValue & 0x000000FF;  //Write the first 8 bits of regFdevValue into the 2nd element of the registerValues array
9d003a78:	97c20014 	lhu	v0,20(s8)
9d003a7c:	304200ff 	andi	v0,v0,0xff
9d003a80:	a3c20019 	sb	v0,25(s8)
    regFdevValue >>= 0x00000008;                             //Shift the contents of regFdevValue to the right by 8 bits
9d003a84:	97c20014 	lhu	v0,20(s8)
9d003a88:	00021202 	srl	v0,v0,0x8
9d003a8c:	a7c20014 	sh	v0,20(s8)
    registerValues[0x00000000] = regFdevValue & 0x000000FF;  //Write the final 8 bits of the regFdev variable into the first index of the array
9d003a90:	97c20014 	lhu	v0,20(s8)
9d003a94:	304200ff 	andi	v0,v0,0xff
9d003a98:	a3c20018 	sb	v0,24(s8)
    interactWithRegistersSX1231H(REGADDR_FDEV_MSB, registerValues, 0x00000002, 0x00000000);  //Send the configuration bytes to the transceiver IC
9d003a9c:	27c20018 	addiu	v0,s8,24
9d003aa0:	00003825 	move	a3,zero
9d003aa4:	24060002 	li	a2,2
9d003aa8:	00402825 	move	a1,v0
9d003aac:	24040005 	li	a0,5
9d003ab0:	0f400aa2 	jal	9d002a88 <interactWithRegistersSX1231H>
9d003ab4:	00000000 	nop
}
9d003ab8:	00000000 	nop
9d003abc:	03c0e825 	move	sp,s8
9d003ac0:	8fbf0024 	lw	ra,36(sp)
9d003ac4:	8fbe0020 	lw	s8,32(sp)
9d003ac8:	27bd0028 	addiu	sp,sp,40
9d003acc:	03e00008 	jr	ra
9d003ad0:	00000000 	nop

Disassembly of section .text.setAutoModeSX1231H:

9d003ad4 <setAutoModeSX1231H>:
{
9d003ad4:	27bdffe0 	addiu	sp,sp,-32
9d003ad8:	afbf001c 	sw	ra,28(sp)
9d003adc:	afbe0018 	sw	s8,24(sp)
9d003ae0:	03a0f025 	move	s8,sp
9d003ae4:	afc40020 	sw	a0,32(s8)
9d003ae8:	afc50024 	sw	a1,36(s8)
9d003aec:	afc60028 	sw	a2,40(s8)
    enter = (enter & 0x00000007) << 0x00000005;  //Mask out the 3 least significant bits of the provided enter value, then shift them left by 5 bits
9d003af0:	8fc20020 	lw	v0,32(s8)
9d003af4:	00021140 	sll	v0,v0,0x5
9d003af8:	304200ff 	andi	v0,v0,0xff
9d003afc:	afc20020 	sw	v0,32(s8)
    exit = (exit & 0x00000007) << 0x00000002;    //Mask out the 3 least significant bits of the provided exit value, then shift them left by 2 bits
9d003b00:	8fc20024 	lw	v0,36(s8)
9d003b04:	00021080 	sll	v0,v0,0x2
9d003b08:	3042001c 	andi	v0,v0,0x1c
9d003b0c:	afc20024 	sw	v0,36(s8)
    uint8_t registerValue = (mode & 0x00000003) | enter | exit;                               //Generate the appropriate command to send to the transceiver IC for the requested auto mode
9d003b10:	8fc20028 	lw	v0,40(s8)
9d003b14:	304200ff 	andi	v0,v0,0xff
9d003b18:	30420003 	andi	v0,v0,0x3
9d003b1c:	304300ff 	andi	v1,v0,0xff
9d003b20:	8fc20020 	lw	v0,32(s8)
9d003b24:	304200ff 	andi	v0,v0,0xff
9d003b28:	00621025 	or	v0,v1,v0
9d003b2c:	304300ff 	andi	v1,v0,0xff
9d003b30:	8fc20024 	lw	v0,36(s8)
9d003b34:	304200ff 	andi	v0,v0,0xff
9d003b38:	00621025 	or	v0,v1,v0
9d003b3c:	304200ff 	andi	v0,v0,0xff
9d003b40:	a3c20010 	sb	v0,16(s8)
    interactWithRegistersSX1231H(REGADDR_AUTOMODES, &registerValue, 0x00000001, 0x00000000);  //Send the configuration byte to the transceiver IC
9d003b44:	00003825 	move	a3,zero
9d003b48:	24060001 	li	a2,1
9d003b4c:	27c20010 	addiu	v0,s8,16
9d003b50:	00402825 	move	a1,v0
9d003b54:	2404003b 	li	a0,59
9d003b58:	0f400aa2 	jal	9d002a88 <interactWithRegistersSX1231H>
9d003b5c:	00000000 	nop
}
9d003b60:	00000000 	nop
9d003b64:	03c0e825 	move	sp,s8
9d003b68:	8fbf001c 	lw	ra,28(sp)
9d003b6c:	8fbe0018 	lw	s8,24(sp)
9d003b70:	27bd0020 	addiu	sp,sp,32
9d003b74:	03e00008 	jr	ra
9d003b78:	00000000 	nop

Disassembly of section .dinit:

9d003b7c <.dinit>:
9d003b7c:	a0000200 	sb	zero,512(zero)
9d003b80:	0000001e 	0x1e
9d003b84:	00000000 	nop
9d003b88:	a0000220 	sb	zero,544(zero)
9d003b8c:	00000004 	sllv	zero,zero,zero
9d003b90:	00000000 	nop
9d003b94:	a0000288 	sb	zero,648(zero)
9d003b98:	000000ff 	0xff
9d003b9c:	00000000 	nop
9d003ba0:	a0000224 	sb	zero,548(zero)
9d003ba4:	00000002 	srl	zero,zero,0x0
9d003ba8:	00000000 	nop
9d003bac:	a0000244 	sb	zero,580(zero)
9d003bb0:	00000044 	0x44
9d003bb4:	00000001 	movf	zero,zero,$fcc0
9d003bb8:	9d000de8 	0x9d000de8
9d003bbc:	9d000780 	0x9d000780
9d003bc0:	9d0007d8 	0x9d0007d8
9d003bc4:	9d000868 	0x9d000868
9d003bc8:	9d000914 	0x9d000914
9d003bcc:	9d000a00 	0x9d000a00
9d003bd0:	9d000de8 	0x9d000de8
9d003bd4:	9d000de8 	0x9d000de8
9d003bd8:	9d000de8 	0x9d000de8
9d003bdc:	9d000de8 	0x9d000de8
9d003be0:	9d000a28 	0x9d000a28
9d003be4:	9d000c20 	0x9d000c20
9d003be8:	9d000b80 	0x9d000b80
9d003bec:	9d000de8 	0x9d000de8
9d003bf0:	9d000de8 	0x9d000de8
9d003bf4:	9d000cbc 	0x9d000cbc
9d003bf8:	9d000d84 	0x9d000d84
9d003bfc:	a0000388 	sb	zero,904(zero)
9d003c00:	00000086 	0x86
9d003c04:	00000000 	nop
9d003c08:	a0000228 	sb	zero,552(zero)
9d003c0c:	0000001c 	0x1c
	...
9d003c18:	66666666 	0x66666666

Disassembly of section .text.writePacketSX1231H:

9d003c1c <writePacketSX1231H>:
{
9d003c1c:	27bdfed8 	addiu	sp,sp,-296
9d003c20:	afbf0124 	sw	ra,292(sp)
9d003c24:	afbe0120 	sw	s8,288(sp)
9d003c28:	03a0f025 	move	s8,sp
9d003c2c:	afc40128 	sw	a0,296(s8)
9d003c30:	afc5012c 	sw	a1,300(s8)
    uint8_t *framePtr = formedFrame;     //Make a pointer to use for iterating through the addresses in the array above
9d003c34:	27c20018 	addiu	v0,s8,24
9d003c38:	afc20010 	sw	v0,16(s8)
    uint32_t frameSize = payloadLength;  //Declare a variable to use for calculating the total size of the frame
9d003c3c:	8fc2012c 	lw	v0,300(s8)
9d003c40:	afc20014 	sw	v0,20(s8)
    while (payloadLength--)
9d003c44:	10000009 	b	9d003c6c <writePacketSX1231H+0x50>
9d003c48:	00000000 	nop
        *(framePtr++) = *(payloadBytes++);  //Copy the next byte from the payloadBytes array into the frame buffer
9d003c4c:	8fc30128 	lw	v1,296(s8)
9d003c50:	24620001 	addiu	v0,v1,1
9d003c54:	afc20128 	sw	v0,296(s8)
9d003c58:	8fc20010 	lw	v0,16(s8)
9d003c5c:	24440001 	addiu	a0,v0,1
9d003c60:	afc40010 	sw	a0,16(s8)
9d003c64:	90630000 	lbu	v1,0(v1)
9d003c68:	a0430000 	sb	v1,0(v0)
    while (payloadLength--)
9d003c6c:	8fc2012c 	lw	v0,300(s8)
9d003c70:	2443ffff 	addiu	v1,v0,-1
9d003c74:	afc3012c 	sw	v1,300(s8)
9d003c78:	1440fff4 	bnez	v0,9d003c4c <writePacketSX1231H+0x30>
9d003c7c:	00000000 	nop
    interactWithRegistersSX1231H(REGADDR_FIFO, formedFrame, frameSize, 0x00000000);  //Write the packet frame to the FIFO buffer of the transceiver
9d003c80:	27c20018 	addiu	v0,s8,24
9d003c84:	00003825 	move	a3,zero
9d003c88:	8fc60014 	lw	a2,20(s8)
9d003c8c:	00402825 	move	a1,v0
9d003c90:	00002025 	move	a0,zero
9d003c94:	0f400aa2 	jal	9d002a88 <interactWithRegistersSX1231H>
9d003c98:	00000000 	nop
}
9d003c9c:	00000000 	nop
9d003ca0:	03c0e825 	move	sp,s8
9d003ca4:	8fbf0124 	lw	ra,292(sp)
9d003ca8:	8fbe0120 	lw	s8,288(sp)
9d003cac:	27bd0128 	addiu	sp,sp,296
9d003cb0:	03e00008 	jr	ra
9d003cb4:	00000000 	nop

Disassembly of section .text.timer1PeriodMatchISR:

9d003cb8 <timer1PeriodMatchISR>:
{
9d003cb8:	415de800 	rdpgpr	sp,sp
9d003cbc:	401a7000 	mfc0	k0,c0_epc
9d003cc0:	401b6000 	mfc0	k1,c0_status
9d003cc4:	27bdffe0 	addiu	sp,sp,-32
9d003cc8:	afba001c 	sw	k0,28(sp)
9d003ccc:	401a6002 	mfc0	k0,c0_srsctl
9d003cd0:	afbb0018 	sw	k1,24(sp)
9d003cd4:	afba0014 	sw	k0,20(sp)
9d003cd8:	7c1b7844 	ins	k1,zero,0x1,0xf
9d003cdc:	377b0c00 	ori	k1,k1,0xc00
9d003ce0:	409b6000 	mtc0	k1,c0_status
9d003ce4:	afbe000c 	sw	s8,12(sp)
9d003ce8:	afa30008 	sw	v1,8(sp)
9d003cec:	afa20004 	sw	v0,4(sp)
9d003cf0:	03a0f025 	move	s8,sp
    IFS0CLR = 0x00000010;  //Clear the Timer 1 interrupt flag
9d003cf4:	3c02bf88 	lui	v0,0xbf88
9d003cf8:	24030010 	li	v1,16
9d003cfc:	ac431034 	sw	v1,4148(v0)
    T1CONCLR = 0x00008000;//Stop Timer 1 to prevent future unwanted interrupts
9d003d00:	3c02bf80 	lui	v0,0xbf80
9d003d04:	34038000 	li	v1,0x8000
9d003d08:	ac430604 	sw	v1,1540(v0)
    radioThreadState = RADIO_RX_TIMEOUT;  //Generate an RX timeout event for the radio thread by changing its state to RADIO_RX_TIMEOUT
9d003d0c:	2402000a 	li	v0,10
9d003d10:	af82803c 	sw	v0,-32708(gp)
}
9d003d14:	00000000 	nop
9d003d18:	03c0e825 	move	sp,s8
9d003d1c:	8fbe000c 	lw	s8,12(sp)
9d003d20:	8fa30008 	lw	v1,8(sp)
9d003d24:	8fa20004 	lw	v0,4(sp)
9d003d28:	41606000 	di
9d003d2c:	000000c0 	ehb
9d003d30:	8fba001c 	lw	k0,28(sp)
9d003d34:	8fbb0018 	lw	k1,24(sp)
9d003d38:	409a7000 	mtc0	k0,c0_epc
9d003d3c:	8fba0014 	lw	k0,20(sp)
9d003d40:	27bd0020 	addiu	sp,sp,32
9d003d44:	409a6002 	mtc0	k0,c0_srsctl
9d003d48:	41dde800 	wrpgpr	sp,sp
9d003d4c:	409b6000 	mtc0	k1,c0_status
9d003d50:	42000018 	eret

Disassembly of section .text.timer2PeriodMatchISR:

9d003d54 <timer2PeriodMatchISR>:
{
9d003d54:	415de800 	rdpgpr	sp,sp
9d003d58:	401a7000 	mfc0	k0,c0_epc
9d003d5c:	401b6000 	mfc0	k1,c0_status
9d003d60:	27bdffe0 	addiu	sp,sp,-32
9d003d64:	afba001c 	sw	k0,28(sp)
9d003d68:	401a6002 	mfc0	k0,c0_srsctl
9d003d6c:	afbb0018 	sw	k1,24(sp)
9d003d70:	afba0014 	sw	k0,20(sp)
9d003d74:	7c1b7844 	ins	k1,zero,0x1,0xf
9d003d78:	377b0c00 	ori	k1,k1,0xc00
9d003d7c:	409b6000 	mtc0	k1,c0_status
9d003d80:	afbe000c 	sw	s8,12(sp)
9d003d84:	afa30008 	sw	v1,8(sp)
9d003d88:	afa20004 	sw	v0,4(sp)
9d003d8c:	03a0f025 	move	s8,sp
    IFS0CLR = 0x00000200;  //Clear the Timer 2 interrupt flag
9d003d90:	3c02bf88 	lui	v0,0xbf88
9d003d94:	24030200 	li	v1,512
9d003d98:	ac431034 	sw	v1,4148(v0)
    T2CONCLR = 0x00008000;  //Stop Timer 2 to prevent future unwanted interrupts
9d003d9c:	3c02bf80 	lui	v0,0xbf80
9d003da0:	34038000 	li	v1,0x8000
9d003da4:	ac430804 	sw	v1,2052(v0)
    radioThreadState = RADIO_START_RX;  //Put the radio back into RX mode by changing the radio threads state to RADIO_START_RX
9d003da8:	24020006 	li	v0,6
9d003dac:	af82803c 	sw	v0,-32708(gp)
}
9d003db0:	00000000 	nop
9d003db4:	03c0e825 	move	sp,s8
9d003db8:	8fbe000c 	lw	s8,12(sp)
9d003dbc:	8fa30008 	lw	v1,8(sp)
9d003dc0:	8fa20004 	lw	v0,4(sp)
9d003dc4:	41606000 	di
9d003dc8:	000000c0 	ehb
9d003dcc:	8fba001c 	lw	k0,28(sp)
9d003dd0:	8fbb0018 	lw	k1,24(sp)
9d003dd4:	409a7000 	mtc0	k0,c0_epc
9d003dd8:	8fba0014 	lw	k0,20(sp)
9d003ddc:	27bd0020 	addiu	sp,sp,32
9d003de0:	409a6002 	mtc0	k0,c0_srsctl
9d003de4:	41dde800 	wrpgpr	sp,sp
9d003de8:	409b6000 	mtc0	k1,c0_status
9d003dec:	42000018 	eret

Disassembly of section .text.int4ISR:

9d003df0 <int4ISR>:
{
9d003df0:	415de800 	rdpgpr	sp,sp
9d003df4:	401a7000 	mfc0	k0,c0_epc
9d003df8:	401b6000 	mfc0	k1,c0_status
9d003dfc:	27bdffe0 	addiu	sp,sp,-32
9d003e00:	afba001c 	sw	k0,28(sp)
9d003e04:	401a6002 	mfc0	k0,c0_srsctl
9d003e08:	afbb0018 	sw	k1,24(sp)
9d003e0c:	afba0014 	sw	k0,20(sp)
9d003e10:	7c1b7844 	ins	k1,zero,0x1,0xf
9d003e14:	377b0c00 	ori	k1,k1,0xc00
9d003e18:	409b6000 	mtc0	k1,c0_status
9d003e1c:	afbe000c 	sw	s8,12(sp)
9d003e20:	afa30008 	sw	v1,8(sp)
9d003e24:	afa20004 	sw	v0,4(sp)
9d003e28:	03a0f025 	move	s8,sp
    IFS0CLR = 0x00800000;  //Clear the INT4 interrupt flag
9d003e2c:	3c02bf88 	lui	v0,0xbf88
9d003e30:	3c030080 	lui	v1,0x80
9d003e34:	ac431034 	sw	v1,4148(v0)
    T2CONCLR = 0x00008000;                       //Stop Timer 2 to prevent future unwnated interrupts
9d003e38:	3c02bf80 	lui	v0,0xbf80
9d003e3c:	34038000 	li	v1,0x8000
9d003e40:	ac430804 	sw	v1,2052(v0)
    radioThreadState = RADIO_PROCESS_INTERRUPT;  //Handle the radio interrupt by putting the radio thread into the RADIO_PROCESS_INTERRUPT state
9d003e44:	24020004 	li	v0,4
9d003e48:	af82803c 	sw	v0,-32708(gp)
}
9d003e4c:	00000000 	nop
9d003e50:	03c0e825 	move	sp,s8
9d003e54:	8fbe000c 	lw	s8,12(sp)
9d003e58:	8fa30008 	lw	v1,8(sp)
9d003e5c:	8fa20004 	lw	v0,4(sp)
9d003e60:	41606000 	di
9d003e64:	000000c0 	ehb
9d003e68:	8fba001c 	lw	k0,28(sp)
9d003e6c:	8fbb0018 	lw	k1,24(sp)
9d003e70:	409a7000 	mtc0	k0,c0_epc
9d003e74:	8fba0014 	lw	k0,20(sp)
9d003e78:	27bd0020 	addiu	sp,sp,32
9d003e7c:	409a6002 	mtc0	k0,c0_srsctl
9d003e80:	41dde800 	wrpgpr	sp,sp
9d003e84:	409b6000 	mtc0	k1,c0_status
9d003e88:	42000018 	eret

Disassembly of section .text.rtccAlarmISR:

9d003e8c <rtccAlarmISR>:
{
9d003e8c:	415de800 	rdpgpr	sp,sp
9d003e90:	401a7000 	mfc0	k0,c0_epc
9d003e94:	401b6000 	mfc0	k1,c0_status
9d003e98:	27bdffe0 	addiu	sp,sp,-32
9d003e9c:	afba001c 	sw	k0,28(sp)
9d003ea0:	401a6002 	mfc0	k0,c0_srsctl
9d003ea4:	afbb0018 	sw	k1,24(sp)
9d003ea8:	afba0014 	sw	k0,20(sp)
9d003eac:	7c1b7844 	ins	k1,zero,0x1,0xf
9d003eb0:	377b0800 	ori	k1,k1,0x800
9d003eb4:	409b6000 	mtc0	k1,c0_status
9d003eb8:	afbe000c 	sw	s8,12(sp)
9d003ebc:	afa30008 	sw	v1,8(sp)
9d003ec0:	afa20004 	sw	v0,4(sp)
9d003ec4:	03a0f025 	move	s8,sp
    IFS0CLR = 0x40000000;  //Clear the RTCC interrupt flag
9d003ec8:	3c02bf88 	lui	v0,0xbf88
9d003ecc:	3c034000 	lui	v1,0x4000
9d003ed0:	ac431034 	sw	v1,4148(v0)
    RTCCON = 0x00002208;                            //Stop and disable the RTCC now that we have woken up again
9d003ed4:	3c02bf80 	lui	v0,0xbf80
9d003ed8:	24032208 	li	v1,8712
9d003edc:	ac430200 	sw	v1,512(v0)
    sensorThreadState = SENSOR_START_MEASUREMENTS;  //Begin a new measurement by putting the sensor thread into the SENSOR_START_MEASUREMENTS state
9d003ee0:	24020001 	li	v0,1
9d003ee4:	af828038 	sw	v0,-32712(gp)
}
9d003ee8:	00000000 	nop
9d003eec:	03c0e825 	move	sp,s8
9d003ef0:	8fbe000c 	lw	s8,12(sp)
9d003ef4:	8fa30008 	lw	v1,8(sp)
9d003ef8:	8fa20004 	lw	v0,4(sp)
9d003efc:	41606000 	di
9d003f00:	000000c0 	ehb
9d003f04:	8fba001c 	lw	k0,28(sp)
9d003f08:	8fbb0018 	lw	k1,24(sp)
9d003f0c:	409a7000 	mtc0	k0,c0_epc
9d003f10:	8fba0014 	lw	k0,20(sp)
9d003f14:	27bd0020 	addiu	sp,sp,32
9d003f18:	409a6002 	mtc0	k0,c0_srsctl
9d003f1c:	41dde800 	wrpgpr	sp,sp
9d003f20:	409b6000 	mtc0	k1,c0_status
9d003f24:	42000018 	eret

Disassembly of section .text.fpcmp:

9d003f28 <__eqsf2>:
9d003f28:	2408fffe 00043040 00053840 00c74825     ...$@0..@8..%H..
9d003f38:	1120001b 00000000 3c01ff00 34210001     .. ........<..!4
9d003f48:	00c1082b 1020001a 00000000 3c01ff00     +..... ........<
9d003f58:	34210001 00e1082b 10200015 00000000     ..!4+..... .....
9d003f68:	04810002 00063042 00063023              ....B0..#0..

9d003f74 <i48>:
9d003f74:	04a10002 	bgez	a1,9d003f80 <i49>
9d003f78:	00073842 	srl	a3,a3,0x1
9d003f7c:	00073823 	negu	a3,a3

9d003f80 <i49>:
9d003f80:	00c7082a 	slt	at,a2,a3
9d003f84:	10200003 	beqz	at,9d003f94 <i50>
9d003f88:	00000000 	nop
9d003f8c:	10000007 	b	9d003fac <J999>
9d003f90:	2402ffff 	li	v0,-1

9d003f94 <i50>:
9d003f94:	00e6082a 	slt	at,a3,a2
9d003f98:	10200003 	beqz	at,9d003fa8 <Jequ>
9d003f9c:	00000000 	nop
9d003fa0:	10000002 	b	9d003fac <J999>
9d003fa4:	24020001 	li	v0,1

9d003fa8 <Jequ>:
9d003fa8:	24020000 	li	v0,0

9d003fac <J999>:
9d003fac:	03e00008 	jr	ra
9d003fb0:	00000000 	nop
9d003fb4:	00000000 	nop

9d003fb8 <Jnan>:
9d003fb8:	1000fffc 	b	9d003fac <J999>
9d003fbc:	00081025 	or	v0,zero,t0
9d003fc0:	00000000 	nop

Disassembly of section .text.fpcmplt:

9d003fc4 <fpcmplt>:
9d003fc4:	2408fffe 	li	t0,-2
9d003fc8:	00043040 	sll	a2,a0,0x1
9d003fcc:	00053840 	sll	a3,a1,0x1
9d003fd0:	00c74825 	or	t1,a2,a3
9d003fd4:	1120001b 	beqz	t1,9d004044 <fpcmplt+0x80>
9d003fd8:	00000000 	nop
9d003fdc:	3c01ff00 	lui	at,0xff00
9d003fe0:	34210001 	ori	at,at,0x1
9d003fe4:	00c1082b 	sltu	at,a2,at
9d003fe8:	1020001a 	beqz	at,9d004054 <fpcmplt+0x90>
9d003fec:	00000000 	nop
9d003ff0:	3c01ff00 	lui	at,0xff00
9d003ff4:	34210001 	ori	at,at,0x1
9d003ff8:	00e1082b 	sltu	at,a3,at
9d003ffc:	10200015 	beqz	at,9d004054 <fpcmplt+0x90>
9d004000:	00000000 	nop
9d004004:	04810002 	bgez	a0,9d004010 <fpcmplt+0x4c>
9d004008:	00063042 	srl	a2,a2,0x1
9d00400c:	00063023 	negu	a2,a2
9d004010:	04a10002 	bgez	a1,9d00401c <fpcmplt+0x58>
9d004014:	00073842 	srl	a3,a3,0x1
9d004018:	00073823 	negu	a3,a3
9d00401c:	00c7082a 	slt	at,a2,a3
9d004020:	10200003 	beqz	at,9d004030 <fpcmplt+0x6c>
9d004024:	00000000 	nop
9d004028:	10000007 	b	9d004048 <fpcmplt+0x84>
9d00402c:	2402ffff 	li	v0,-1
9d004030:	00e6082a 	slt	at,a3,a2
9d004034:	10200003 	beqz	at,9d004044 <fpcmplt+0x80>
9d004038:	00000000 	nop
9d00403c:	10000002 	b	9d004048 <fpcmplt+0x84>
9d004040:	24020001 	li	v0,1
9d004044:	24020000 	li	v0,0
9d004048:	03e00008 	jr	ra
9d00404c:	00000000 	nop
9d004050:	00000000 	nop
9d004054:	1000fffc 	b	9d004048 <fpcmplt+0x84>
9d004058:	34020001 	li	v0,0x1
9d00405c:	00000000 	nop

Disassembly of section .text.portChangeNoticeISR:

9d004060 <portChangeNoticeISR>:

//Priority 1 (Lowest)

//Port Change Notice Interrupt Handler Function, called when any of the 3 buttons or reed switch changes state
void __ISR(_CHANGE_NOTICE_VECTOR, IPL1SOFT) portChangeNoticeISR()
{
9d004060:	415de800 	rdpgpr	sp,sp
9d004064:	401a7000 	mfc0	k0,c0_epc
9d004068:	401b6000 	mfc0	k1,c0_status
9d00406c:	27bdffd8 	addiu	sp,sp,-40
9d004070:	afba0024 	sw	k0,36(sp)
9d004074:	401a6002 	mfc0	k0,c0_srsctl
9d004078:	afbb0020 	sw	k1,32(sp)
9d00407c:	afba001c 	sw	k0,28(sp)
9d004080:	7c1b7844 	ins	k1,zero,0x1,0xf
9d004084:	377b0400 	ori	k1,k1,0x400
9d004088:	409b6000 	mtc0	k1,c0_status
9d00408c:	afbe0014 	sw	s8,20(sp)
9d004090:	afa30010 	sw	v1,16(sp)
9d004094:	afa2000c 	sw	v0,12(sp)
9d004098:	03a0f025 	move	s8,sp
    uint32_t statbBuffer = CNSTATB;  //Create a temp copy of the state of CNSTATB so that PORTB calls aren't changing CNSTATB for the next if statement
9d00409c:	3c02bf88 	lui	v0,0xbf88
9d0040a0:	8c426190 	lw	v0,24976(v0)
9d0040a4:	afc20000 	sw	v0,0(s8)
    IFS1CLR = 0x00002000;            //Clear Port Change Notice interrupt flag
9d0040a8:	3c02bf88 	lui	v0,0xbf88
9d0040ac:	24032000 	li	v1,8192
9d0040b0:	ac431044 	sw	v1,4164(v0)

    //Do something here
9d0040b4:	00000000 	nop
9d0040b8:	03c0e825 	move	sp,s8
9d0040bc:	8fbe0014 	lw	s8,20(sp)
9d0040c0:	8fa30010 	lw	v1,16(sp)
9d0040c4:	8fa2000c 	lw	v0,12(sp)
9d0040c8:	41606000 	di
9d0040cc:	000000c0 	ehb
9d0040d0:	8fba0024 	lw	k0,36(sp)
9d0040d4:	8fbb0020 	lw	k1,32(sp)
9d0040d8:	409a7000 	mtc0	k0,c0_epc
9d0040dc:	8fba001c 	lw	k0,28(sp)
9d0040e0:	27bd0028 	addiu	sp,sp,40
9d0040e4:	409a6002 	mtc0	k0,c0_srsctl
9d0040e8:	41dde800 	wrpgpr	sp,sp
9d0040ec:	409b6000 	mtc0	k1,c0_status
9d0040f0:	42000018 	eret

Disassembly of section .text.setBitRateSX1231H:

9d0040f4 <setBitRateSX1231H>:
{
9d0040f4:	27bdffe0 	addiu	sp,sp,-32
9d0040f8:	afbf001c 	sw	ra,28(sp)
9d0040fc:	afbe0018 	sw	s8,24(sp)
9d004100:	03a0f025 	move	s8,sp
9d004104:	afc40020 	sw	a0,32(s8)
    bitRate = SX1231H_F_XOSC / bitRate;  //Calculate the value to be written to the bit-rate registers in order to achieve the desired bit-rate
9d004108:	3c0201e8 	lui	v0,0x1e8
9d00410c:	34434800 	ori	v1,v0,0x4800
9d004110:	8fc20020 	lw	v0,32(s8)
9d004114:	0062001b 	divu	zero,v1,v0
9d004118:	004001f4 	teq	v0,zero,0x7
9d00411c:	00001010 	mfhi	v0
9d004120:	00001012 	mflo	v0
9d004124:	afc20020 	sw	v0,32(s8)
    registerValues[0x00000001] = bitRate & 0x000000FF;  //Write the first 8-bits of the calculated bit-rate value into the 2nd element of the registerValues array
9d004128:	8fc20020 	lw	v0,32(s8)
9d00412c:	304200ff 	andi	v0,v0,0xff
9d004130:	a3c20011 	sb	v0,17(s8)
    bitRate >>= 0x00000008;                             //Shift the contents of the bitRate variable to the right by 8 bits
9d004134:	8fc20020 	lw	v0,32(s8)
9d004138:	00021202 	srl	v0,v0,0x8
9d00413c:	afc20020 	sw	v0,32(s8)
    registerValues[0x00000000] = bitRate & 0x000000FF;  //Write the remaining 8 bits of the calculated bit-rate value into the first index of the array
9d004140:	8fc20020 	lw	v0,32(s8)
9d004144:	304200ff 	andi	v0,v0,0xff
9d004148:	a3c20010 	sb	v0,16(s8)
    interactWithRegistersSX1231H(REGADDR_BITRATE_MSB, registerValues, 0x00000002, 0x00000000);  //Send the configuration bytes to the transceiver IC
9d00414c:	00003825 	move	a3,zero
9d004150:	24060002 	li	a2,2
9d004154:	27c20010 	addiu	v0,s8,16
9d004158:	00402825 	move	a1,v0
9d00415c:	24040003 	li	a0,3
9d004160:	0f400aa2 	jal	9d002a88 <interactWithRegistersSX1231H>
9d004164:	00000000 	nop
}
9d004168:	00000000 	nop
9d00416c:	03c0e825 	move	sp,s8
9d004170:	8fbf001c 	lw	ra,28(sp)
9d004174:	8fbe0018 	lw	s8,24(sp)
9d004178:	27bd0020 	addiu	sp,sp,32
9d00417c:	03e00008 	jr	ra
9d004180:	00000000 	nop

Disassembly of section .text.allowSleepMode:

9d004184 <allowSleepMode>:
{
9d004184:	27bdfff0 	addiu	sp,sp,-16
9d004188:	afbe000c 	sw	s8,12(sp)
9d00418c:	03a0f025 	move	s8,sp
9d004190:	afc40010 	sw	a0,16(s8)
    volatile uint32_t *oscconAddress = &OSCCONCLR;  //Declare a pointer that points at the address of the OSCCONCLR register
9d004194:	3c02bf81 	lui	v0,0xbf81
9d004198:	2442f004 	addiu	v0,v0,-4092
9d00419c:	afc20000 	sw	v0,0(s8)
    if (enabled) oscconAddress += 0x00000001;      //Add an offset of 1 register to oscconAddress such that it points at OSCCONSET when sleep mode is requested
9d0041a0:	8fc20010 	lw	v0,16(s8)
9d0041a4:	10400004 	beqz	v0,9d0041b8 <allowSleepMode+0x34>
9d0041a8:	00000000 	nop
9d0041ac:	8fc20000 	lw	v0,0(s8)
9d0041b0:	24420004 	addiu	v0,v0,4
9d0041b4:	afc20000 	sw	v0,0(s8)
    asm volatile ("di");  //Disable interrupts before doing anything else
9d0041b8:	41606000 	di
    SYSKEY = 0x00000000;  //Reset the register lock state machine by writing a 0 to it
9d0041bc:	3c02bf81 	lui	v0,0xbf81
9d0041c0:	ac40f230 	sw	zero,-3536(v0)
    SYSKEY = 0xAA996655;  //Write the first unlock key to the SYSKEY register
9d0041c4:	3c02bf81 	lui	v0,0xbf81
9d0041c8:	3c03aa99 	lui	v1,0xaa99
9d0041cc:	34636655 	ori	v1,v1,0x6655
9d0041d0:	ac43f230 	sw	v1,-3536(v0)
    SYSKEY = 0x556699AA;  //Write the second unlock key to the register to finally unlock all protected registers
9d0041d4:	3c02bf81 	lui	v0,0xbf81
9d0041d8:	3c035566 	lui	v1,0x5566
9d0041dc:	346399aa 	ori	v1,v1,0x99aa
9d0041e0:	ac43f230 	sw	v1,-3536(v0)
    *oscconAddress = 0x00000010;  //Write all 0's with Bit-4 set to either set or clear the SLPEN bit in OSCCON
9d0041e4:	8fc20000 	lw	v0,0(s8)
9d0041e8:	24030010 	li	v1,16
9d0041ec:	ac430000 	sw	v1,0(v0)
    SYSKEY = 0x00000000;  //Lock the protected registers now that the desired WAIT condition has been selected
9d0041f0:	3c02bf81 	lui	v0,0xbf81
9d0041f4:	ac40f230 	sw	zero,-3536(v0)
    asm volatile ("ei");  //Enable interrupts now that everything is ready to go
9d0041f8:	41606020 	ei
}
9d0041fc:	00000000 	nop
9d004200:	03c0e825 	move	sp,s8
9d004204:	8fbe000c 	lw	s8,12(sp)
9d004208:	27bd0010 	addiu	sp,sp,16
9d00420c:	03e00008 	jr	ra
9d004210:	00000000 	nop

Disassembly of section .text.forceSign16:

9d004214 <forceSign16>:

//Force Sign 16 Function, forces the given value into it's 16-bit signed equivalent using the provided bit-depth
void forceSign16(int16_t *value, uint32_t bitDepth)
{
9d004214:	27bdfff0 	addiu	sp,sp,-16
9d004218:	afbe000c 	sw	s8,12(sp)
9d00421c:	03a0f025 	move	s8,sp
9d004220:	afc40010 	sw	a0,16(s8)
9d004224:	afc50014 	sw	a1,20(s8)
    uint16_t cutoff = 0x0001 << (bitDepth - 0x00000001);  //Calculate the half way point for a signed value of the given bit depth, storing it in the cutoff variable
9d004228:	8fc20014 	lw	v0,20(s8)
9d00422c:	2442ffff 	addiu	v0,v0,-1
9d004230:	24030001 	li	v1,1
9d004234:	00431004 	sllv	v0,v1,v0
9d004238:	a7c20000 	sh	v0,0(s8)

    if (*value & cutoff) *value -= (cutoff << 0x00000001);  //Force the value to a negative in 32-bit form when it's negative at the specified bit-depth
9d00423c:	8fc20010 	lw	v0,16(s8)
9d004240:	84420000 	lh	v0,0(v0)
9d004244:	00401825 	move	v1,v0
9d004248:	97c20000 	lhu	v0,0(s8)
9d00424c:	00621024 	and	v0,v1,v0
9d004250:	1040000c 	beqz	v0,9d004284 <forceSign16+0x70>
9d004254:	00000000 	nop
9d004258:	8fc20010 	lw	v0,16(s8)
9d00425c:	84420000 	lh	v0,0(v0)
9d004260:	3043ffff 	andi	v1,v0,0xffff
9d004264:	97c20000 	lhu	v0,0(s8)
9d004268:	00021040 	sll	v0,v0,0x1
9d00426c:	3042ffff 	andi	v0,v0,0xffff
9d004270:	00621023 	subu	v0,v1,v0
9d004274:	3042ffff 	andi	v0,v0,0xffff
9d004278:	7c021e20 	seh	v1,v0
9d00427c:	8fc20010 	lw	v0,16(s8)
9d004280:	a4430000 	sh	v1,0(v0)
}
9d004284:	00000000 	nop
9d004288:	03c0e825 	move	sp,s8
9d00428c:	8fbe000c 	lw	s8,12(sp)
9d004290:	27bd0010 	addiu	sp,sp,16
9d004294:	03e00008 	jr	ra
9d004298:	00000000 	nop

Disassembly of section .text.convertToTempCFromSHT4X:

9d00429c <convertToTempCFromSHT4X>:
{
9d00429c:	27bdffe8 	addiu	sp,sp,-24
9d0042a0:	afbf0014 	sw	ra,20(sp)
9d0042a4:	afbe0010 	sw	s8,16(sp)
9d0042a8:	03a0f025 	move	s8,sp
9d0042ac:	afc40018 	sw	a0,24(s8)
    return ((float) *rawSensorValue / 65535.0F * 175.0F) - 45.0F;  //Calculate the temperature in Celsius
9d0042b0:	8fc20018 	lw	v0,24(s8)
9d0042b4:	94420000 	lhu	v0,0(v0)
9d0042b8:	00402025 	move	a0,v0
9d0042bc:	0f401255 	jal	9d004954 <__floatunsisf>
9d0042c0:	00000000 	nop
9d0042c4:	00401825 	move	v1,v0
9d0042c8:	3c029d00 	lui	v0,0x9d00
9d0042cc:	8c454b90 	lw	a1,19344(v0)
9d0042d0:	00602025 	move	a0,v1
9d0042d4:	0f40062c 	jal	9d0018b0 <__divsf3>
9d0042d8:	00000000 	nop
9d0042dc:	00401825 	move	v1,v0
9d0042e0:	3c029d00 	lui	v0,0x9d00
9d0042e4:	8c454b94 	lw	a1,19348(v0)
9d0042e8:	00602025 	move	a0,v1
9d0042ec:	0f40084e 	jal	9d002138 <__mulsf3>
9d0042f0:	00000000 	nop
9d0042f4:	00401825 	move	v1,v0
9d0042f8:	3c029d00 	lui	v0,0x9d00
9d0042fc:	8c454b98 	lw	a1,19352(v0)
9d004300:	00602025 	move	a0,v1
9d004304:	0f400501 	jal	9d001404 <__subsf3>
9d004308:	00000000 	nop
}
9d00430c:	03c0e825 	move	sp,s8
9d004310:	8fbf0014 	lw	ra,20(sp)
9d004314:	8fbe0010 	lw	s8,16(sp)
9d004318:	27bd0018 	addiu	sp,sp,24
9d00431c:	03e00008 	jr	ra
9d004320:	00000000 	nop

Disassembly of section .text.forceSign32:

9d004324 <forceSign32>:

//Force Sign 32 Function, forces the given value into it's 32-bit signed equivalent using the provided bit-depth
void forceSign32(int32_t *value, uint32_t bitDepth)
{
9d004324:	27bdfff0 	addiu	sp,sp,-16
9d004328:	afbe000c 	sw	s8,12(sp)
9d00432c:	03a0f025 	move	s8,sp
9d004330:	afc40010 	sw	a0,16(s8)
9d004334:	afc50014 	sw	a1,20(s8)
    uint32_t cutoff = 0x00000001 << (bitDepth - 0x00000001);  //Calculate the half way point for a signed value of the given bit depth, storing it in the cutoff variable
9d004338:	8fc20014 	lw	v0,20(s8)
9d00433c:	2442ffff 	addiu	v0,v0,-1
9d004340:	24030001 	li	v1,1
9d004344:	00431004 	sllv	v0,v1,v0
9d004348:	afc20000 	sw	v0,0(s8)

    if (*value & cutoff) *value -= (cutoff << 0x00000001);  //Force the value to a negative in 32-bit form when it's negative at the specified bit-depth
9d00434c:	8fc20010 	lw	v0,16(s8)
9d004350:	8c420000 	lw	v0,0(v0)
9d004354:	00401825 	move	v1,v0
9d004358:	8fc20000 	lw	v0,0(s8)
9d00435c:	00621024 	and	v0,v1,v0
9d004360:	1040000a 	beqz	v0,9d00438c <forceSign32+0x68>
9d004364:	00000000 	nop
9d004368:	8fc20010 	lw	v0,16(s8)
9d00436c:	8c420000 	lw	v0,0(v0)
9d004370:	00401825 	move	v1,v0
9d004374:	8fc20000 	lw	v0,0(s8)
9d004378:	00021040 	sll	v0,v0,0x1
9d00437c:	00621023 	subu	v0,v1,v0
9d004380:	00401825 	move	v1,v0
9d004384:	8fc20010 	lw	v0,16(s8)
9d004388:	ac430000 	sw	v1,0(v0)
}
9d00438c:	00000000 	nop
9d004390:	03c0e825 	move	sp,s8
9d004394:	8fbe000c 	lw	s8,12(sp)
9d004398:	27bd0010 	addiu	sp,sp,16
9d00439c:	03e00008 	jr	ra
9d0043a0:	00000000 	nop

Disassembly of section .text.setDIOMappingsSX1231H:

9d0043a4 <setDIOMappingsSX1231H>:
{
9d0043a4:	27bdffe0 	addiu	sp,sp,-32
9d0043a8:	afbf001c 	sw	ra,28(sp)
9d0043ac:	afbe0018 	sw	s8,24(sp)
9d0043b0:	03a0f025 	move	s8,sp
9d0043b4:	afc40020 	sw	a0,32(s8)
    registerValues[0x00000000] = (newMappings >> 0x00000002) & 0x000000FF;               //Bits 2 through 10 of newMappings are to make up the contents of the first data byte
9d0043b8:	8fc20020 	lw	v0,32(s8)
9d0043bc:	00021082 	srl	v0,v0,0x2
9d0043c0:	304200ff 	andi	v0,v0,0xff
9d0043c4:	a3c20010 	sb	v0,16(s8)
    registerValues[0x00000001] = (newMappings << 0x00000004) & 0x000000C0 | 0x00000007;  //Bits 0 through 1 of newMappings combined with 0x07 make up the second data byte
9d0043c8:	8fc20020 	lw	v0,32(s8)
9d0043cc:	304200ff 	andi	v0,v0,0xff
9d0043d0:	00021100 	sll	v0,v0,0x4
9d0043d4:	304200ff 	andi	v0,v0,0xff
9d0043d8:	7c022804 	ins	v0,zero,0x0,0x6
9d0043dc:	304200ff 	andi	v0,v0,0xff
9d0043e0:	34420007 	ori	v0,v0,0x7
9d0043e4:	304200ff 	andi	v0,v0,0xff
9d0043e8:	a3c20011 	sb	v0,17(s8)
    interactWithRegistersSX1231H(REGADDR_DIOMAPPING1, registerValues, 0x00000002, 0x00000000);  //Write the 2 bytes to the transceiver IC starting at the DioMapping1 register
9d0043ec:	00003825 	move	a3,zero
9d0043f0:	24060002 	li	a2,2
9d0043f4:	27c20010 	addiu	v0,s8,16
9d0043f8:	00402825 	move	a1,v0
9d0043fc:	24040025 	li	a0,37
9d004400:	0f400aa2 	jal	9d002a88 <interactWithRegistersSX1231H>
9d004404:	00000000 	nop
}
9d004408:	00000000 	nop
9d00440c:	03c0e825 	move	sp,s8
9d004410:	8fbf001c 	lw	ra,28(sp)
9d004414:	8fbe0018 	lw	s8,24(sp)
9d004418:	27bd0020 	addiu	sp,sp,32
9d00441c:	03e00008 	jr	ra
9d004420:	00000000 	nop

Disassembly of section .text.fptoli:

9d004424 <__fixsfsi>:
9d004424:	00042a00 3c018000 00a12825 00043dc2     .*.....<%(...=..
9d004434:	30e700ff 2406009e 00c73023 18c0000d     ...0...$#0......
9d004444:	00000000 28c10020 14200003 00000000     .... ..(.. .....
9d004454:	10000005 24020000                       .......$

9d00445c <i42>:
9d00445c:	04810002 	bgez	a0,9d004468 <i43>
9d004460:	00c52806 	srlv	a1,a1,a2
9d004464:	00052823 	negu	a1,a1

9d004468 <i43>:
9d004468:	00051025 	or	v0,zero,a1

9d00446c <G999>:
9d00446c:	03e00008 	jr	ra
9d004470:	00000000 	nop
9d004474:	00000000 	nop

9d004478 <Gspec>:
9d004478:	3c017f80 	lui	at,0x7f80
9d00447c:	34210001 	ori	at,at,0x1
9d004480:	0081082b 	sltu	at,a0,at
9d004484:	14200003 	bnez	at,9d004494 <i44>
9d004488:	00000000 	nop
9d00448c:	1000fff7 	b	9d00446c <G999>
9d004490:	3c028000 	lui	v0,0x8000

9d004494 <i44>:
9d004494:	3c027fff 	lui	v0,0x7fff
9d004498:	1000fff4 	b	9d00446c <G999>
9d00449c:	3442ffff 	ori	v0,v0,0xffff
9d0044a0:	00000000 	nop

Disassembly of section .text:

9d0044a4 <__dinit_copy_emb>:
9d0044a4:	03e00008 	jr	ra
9d0044a8:	00000000 	nop

9d0044ac <__pic32_data_init>:
9d0044ac:	03e01825 	move	v1,ra

9d0044b0 <_dinit_init>:
9d0044b0:	3c049d00 	lui	a0,0x9d00
9d0044b4:	24843b7c 	addiu	a0,a0,15228
9d0044b8:	10800016 	beqz	a0,9d004514 <_dinit_init+0x64>
9d0044bc:	00000000 	nop
9d0044c0:	8c850000 	lw	a1,0(a0)
9d0044c4:	10a00013 	beqz	a1,9d004514 <_dinit_init+0x64>
9d0044c8:	24840004 	addiu	a0,a0,4
9d0044cc:	8c860000 	lw	a2,0(a0)
9d0044d0:	24840004 	addiu	a0,a0,4
9d0044d4:	848b0000 	lh	t3,0(a0)
9d0044d8:	24840004 	addiu	a0,a0,4
9d0044dc:	3c0c9d00 	lui	t4,0x9d00
9d0044e0:	258c4c38 	addiu	t4,t4,19512
9d0044e4:	000b5880 	sll	t3,t3,0x2
9d0044e8:	016c6021 	addu	t4,t3,t4
9d0044ec:	8d8c0000 	lw	t4,0(t4)
9d0044f0:	0180f809 	jalr	t4
9d0044f4:	00000000 	nop
9d0044f8:	00402025 	move	a0,v0
9d0044fc:	24840003 	addiu	a0,a0,3
9d004500:	2406fffc 	li	a2,-4
9d004504:	00c42024 	and	a0,a2,a0
9d004508:	8c850000 	lw	a1,0(a0)
9d00450c:	14a0ffec 	bnez	a1,9d0044c0 <_dinit_init+0x10>
9d004510:	00000000 	nop
9d004514:	0060f825 	move	ra,v1
9d004518:	03e00008 	jr	ra
9d00451c:	00000000 	nop

Disassembly of section .text.fptoul:

9d004520 <__fixunssfsi>:
9d004520:	00042a00 3c018000 00a12825 00043dc2     .*.....<%(...=..
9d004530:	30e700ff 2406009e 00c73023 04c0000d     ...0...$#0......
9d004540:	00000000 28c10020 14200003 00000000     .... ..(.. .....
9d004550:	10000005 24020000                       .......$

9d004558 <i45>:
9d004558:	04810002 	bgez	a0,9d004564 <i46>
9d00455c:	00c52806 	srlv	a1,a1,a2
9d004560:	00052823 	negu	a1,a1

9d004564 <i46>:
9d004564:	00051025 	or	v0,zero,a1

9d004568 <I999>:
9d004568:	03e00008 	jr	ra
9d00456c:	00000000 	nop
9d004570:	00000000 	nop

9d004574 <Ispec>:
9d004574:	3c017f80 	lui	at,0x7f80
9d004578:	34210001 	ori	at,at,0x1
9d00457c:	0081082b 	sltu	at,a0,at
9d004580:	14200003 	bnez	at,9d004590 <i47>
9d004584:	00000000 	nop
9d004588:	1000fff7 	b	9d004568 <I999>
9d00458c:	3c028000 	lui	v0,0x8000

9d004590 <i47>:
9d004590:	1000fff5 	b	9d004568 <I999>
9d004594:	2402ffff 	li	v0,-1
9d004598:	00000000 	nop

Disassembly of section .text.setDeviceModeSX1231H:

9d00459c <setDeviceModeSX1231H>:
{
9d00459c:	27bdffe0 	addiu	sp,sp,-32
9d0045a0:	afbf001c 	sw	ra,28(sp)
9d0045a4:	afbe0018 	sw	s8,24(sp)
9d0045a8:	03a0f025 	move	s8,sp
9d0045ac:	afc40020 	sw	a0,32(s8)
    if (newMode >= MODE_RESERVED) return;  //Just leave if trying to set the mode of the transceiver to something invalid
9d0045b0:	8fc20020 	lw	v0,32(s8)
9d0045b4:	2c420005 	sltiu	v0,v0,5
9d0045b8:	1040000f 	beqz	v0,9d0045f8 <setDeviceModeSX1231H+0x5c>
9d0045bc:	00000000 	nop
    uint8_t registerValue = newMode << 0x00000002;                                         //Write the value of the newMode enum to the registerValue variable and shift it to the left by 2 bits
9d0045c0:	8fc20020 	lw	v0,32(s8)
9d0045c4:	304200ff 	andi	v0,v0,0xff
9d0045c8:	00021080 	sll	v0,v0,0x2
9d0045cc:	304200ff 	andi	v0,v0,0xff
9d0045d0:	a3c20010 	sb	v0,16(s8)
    interactWithRegistersSX1231H(REGADDR_OPMODE, &registerValue, 0x00000001, 0x00000000);  //Send the configuration byte to the transceiver IC
9d0045d4:	00003825 	move	a3,zero
9d0045d8:	24060001 	li	a2,1
9d0045dc:	27c20010 	addiu	v0,s8,16
9d0045e0:	00402825 	move	a1,v0
9d0045e4:	24040001 	li	a0,1
9d0045e8:	0f400aa2 	jal	9d002a88 <interactWithRegistersSX1231H>
9d0045ec:	00000000 	nop
9d0045f0:	10000002 	b	9d0045fc <setDeviceModeSX1231H+0x60>
9d0045f4:	00000000 	nop
    if (newMode >= MODE_RESERVED) return;  //Just leave if trying to set the mode of the transceiver to something invalid
9d0045f8:	00000000 	nop
}
9d0045fc:	03c0e825 	move	sp,s8
9d004600:	8fbf001c 	lw	ra,28(sp)
9d004604:	8fbe0018 	lw	s8,24(sp)
9d004608:	27bd0020 	addiu	sp,sp,32
9d00460c:	03e00008 	jr	ra
9d004610:	00000000 	nop

Disassembly of section .text.sendCommandSSD1803A:

9d004614 <sendCommandSSD1803A>:
{
9d004614:	27bdffe0 	addiu	sp,sp,-32
9d004618:	afbf001c 	sw	ra,28(sp)
9d00461c:	afbe0018 	sw	s8,24(sp)
9d004620:	03a0f025 	move	s8,sp
9d004624:	00801025 	move	v0,a0
9d004628:	a3c20020 	sb	v0,32(s8)
    outputBytes[0x00000000] = 0xFF;     //Set the first byte of the sequence to 0, this indicates the next byte will be an instruction
9d00462c:	2402ffff 	li	v0,-1
9d004630:	a3c20010 	sb	v0,16(s8)
    outputBytes[0x00000001] = command;  //Copy the desired command byte into the sequence
9d004634:	93c20020 	lbu	v0,32(s8)
9d004638:	a3c20011 	sb	v0,17(s8)
    while (outputBytes[0x00000000]--);
9d00463c:	00000000 	nop
9d004640:	93c20010 	lbu	v0,16(s8)
9d004644:	2443ffff 	addiu	v1,v0,-1
9d004648:	306300ff 	andi	v1,v1,0xff
9d00464c:	a3c30010 	sb	v1,16(s8)
9d004650:	1440fffb 	bnez	v0,9d004640 <sendCommandSSD1803A+0x2c>
9d004654:	00000000 	nop
    *outputBytes = 0x00;
9d004658:	a3c00010 	sb	zero,16(s8)
    return writeToI2C(SSD1803A_I2C_ADDR, outputBytes, 0x00000002);  //Try and send the byte sequence to the LCD controller and return the result
9d00465c:	24060002 	li	a2,2
9d004660:	27c20010 	addiu	v0,s8,16
9d004664:	00402825 	move	a1,v0
9d004668:	2404003c 	li	a0,60
9d00466c:	0f400b9f 	jal	9d002e7c <writeToI2C>
9d004670:	00000000 	nop
}
9d004674:	03c0e825 	move	sp,s8
9d004678:	8fbf001c 	lw	ra,28(sp)
9d00467c:	8fbe0018 	lw	s8,24(sp)
9d004680:	27bd0020 	addiu	sp,sp,32
9d004684:	03e00008 	jr	ra
9d004688:	00000000 	nop

Disassembly of section .text.putCursorSSD1803A:

9d00468c <putCursorSSD1803A>:
{
9d00468c:	27bdffe8 	addiu	sp,sp,-24
9d004690:	afbf0014 	sw	ra,20(sp)
9d004694:	afbe0010 	sw	s8,16(sp)
9d004698:	03a0f025 	move	s8,sp
9d00469c:	afc40018 	sw	a0,24(s8)
    if (!functionSetSSD1803A((SSD1803A_registers_t) statusRegister_SSD1803A & 0x00000001)) return 0x00000000;  //Try selecting the regular register set on the LCD controller
9d0046a0:	8f828030 	lw	v0,-32720(gp)
9d0046a4:	30420001 	andi	v0,v0,0x1
9d0046a8:	00402025 	move	a0,v0
9d0046ac:	0f40092b 	jal	9d0024ac <functionSetSSD1803A>
9d0046b0:	00000000 	nop
9d0046b4:	14400004 	bnez	v0,9d0046c8 <putCursorSSD1803A+0x3c>
9d0046b8:	00000000 	nop
9d0046bc:	00001025 	move	v0,zero
9d0046c0:	10000009 	b	9d0046e8 <putCursorSSD1803A+0x5c>
9d0046c4:	00000000 	nop
    return sendCommandSSD1803A((newCursorPosition & 0x0000007F) | 0x00000080);                                 //Change the DDRAM address on the controller to the requested address
9d0046c8:	8fc20018 	lw	v0,24(s8)
9d0046cc:	304300ff 	andi	v1,v0,0xff
9d0046d0:	2402ff80 	li	v0,-128
9d0046d4:	00621025 	or	v0,v1,v0
9d0046d8:	304200ff 	andi	v0,v0,0xff
9d0046dc:	00402025 	move	a0,v0
9d0046e0:	0f401185 	jal	9d004614 <sendCommandSSD1803A>
9d0046e4:	00000000 	nop
}
9d0046e8:	03c0e825 	move	sp,s8
9d0046ec:	8fbf0014 	lw	ra,20(sp)
9d0046f0:	8fbe0010 	lw	s8,16(sp)
9d0046f4:	27bd0018 	addiu	sp,sp,24
9d0046f8:	03e00008 	jr	ra
9d0046fc:	00000000 	nop

Disassembly of section .text.getRssiSX1231H:

9d004700 <getRssiSX1231H>:
{
9d004700:	27bdffe0 	addiu	sp,sp,-32
9d004704:	afbf001c 	sw	ra,28(sp)
9d004708:	afbe0018 	sw	s8,24(sp)
9d00470c:	03a0f025 	move	s8,sp
    uint8_t registerValue = 0x00;                                                             //Create a buffer variable to use for storing the read byte
9d004710:	a3c00014 	sb	zero,20(s8)
    interactWithRegistersSX1231H(REGADDR_RSSIVALUE, &registerValue, 0x00000001, 0xFFFFFFFF);  //Read the contents of the RegRssiValue register from the transceiver
9d004714:	27c20014 	addiu	v0,s8,20
9d004718:	2407ffff 	li	a3,-1
9d00471c:	24060001 	li	a2,1
9d004720:	00402825 	move	a1,v0
9d004724:	24040024 	li	a0,36
9d004728:	0f400aa2 	jal	9d002a88 <interactWithRegistersSX1231H>
9d00472c:	00000000 	nop
    float calculatedRSSI = (float) registerValue;  //Convert the obtained value into a float and store it in a buffer
9d004730:	93c20014 	lbu	v0,20(s8)
9d004734:	00402025 	move	a0,v0
9d004738:	0f401255 	jal	9d004954 <__floatunsisf>
9d00473c:	00000000 	nop
9d004740:	afc20010 	sw	v0,16(s8)
    return calculatedRSSI / -2.0F;                 //Return the calculated RSSI value in dBm
9d004744:	3c029d00 	lui	v0,0x9d00
9d004748:	8c454bcc 	lw	a1,19404(v0)
9d00474c:	8fc40010 	lw	a0,16(s8)
9d004750:	0f40062c 	jal	9d0018b0 <__divsf3>
9d004754:	00000000 	nop
}
9d004758:	03c0e825 	move	sp,s8
9d00475c:	8fbf001c 	lw	ra,28(sp)
9d004760:	8fbe0018 	lw	s8,24(sp)
9d004764:	27bd0020 	addiu	sp,sp,32
9d004768:	03e00008 	jr	ra
9d00476c:	00000000 	nop

Disassembly of section .text.getResultStatusDPS368:

9d004770 <getResultStatusDPS368>:
{
9d004770:	27bdffe0 	addiu	sp,sp,-32
9d004774:	afbf001c 	sw	ra,28(sp)
9d004778:	afbe0018 	sw	s8,24(sp)
9d00477c:	03a0f025 	move	s8,sp
    uint8_t dataBuffer = 0x08;  //Address of the MEAS_CFG register on the sensor
9d004780:	24020008 	li	v0,8
9d004784:	a3c20010 	sb	v0,16(s8)
    if (!readFromI2C(DPS368_I2C_ADDR, &dataBuffer, 0x00000001, 0x00000001)) return NO_RESULTS;  //Attempt to read the contents of the MEAS_CFG register on the sensor
9d004788:	24070001 	li	a3,1
9d00478c:	24060001 	li	a2,1
9d004790:	27c20010 	addiu	v0,s8,16
9d004794:	00402825 	move	a1,v0
9d004798:	24040076 	li	a0,118
9d00479c:	0f4008bd 	jal	9d0022f4 <readFromI2C>
9d0047a0:	00000000 	nop
9d0047a4:	14400004 	bnez	v0,9d0047b8 <getResultStatusDPS368+0x48>
9d0047a8:	00000000 	nop
9d0047ac:	00001025 	move	v0,zero
9d0047b0:	10000004 	b	9d0047c4 <getResultStatusDPS368+0x54>
9d0047b4:	00000000 	nop
    return (DPS368_resultStatus_t) (dataBuffer & 0x30) >> 0x00000004;  //Return the obtained measurement status enum
9d0047b8:	93c20010 	lbu	v0,16(s8)
9d0047bc:	00021102 	srl	v0,v0,0x4
9d0047c0:	30420003 	andi	v0,v0,0x3
}
9d0047c4:	03c0e825 	move	sp,s8
9d0047c8:	8fbf001c 	lw	ra,28(sp)
9d0047cc:	8fbe0018 	lw	s8,24(sp)
9d0047d0:	27bd0020 	addiu	sp,sp,32
9d0047d4:	03e00008 	jr	ra
9d0047d8:	00000000 	nop

Disassembly of section .text.startTxUART:

9d0047dc <startTxUART>:
    while (!(U2STA & 0x00000100));  //Wait until the transmission has completed fully before leaving
}

//Start Transmission UART Function, begins sending the provided string over UART
void startTxUART(const uint8_t *bytes, const uint32_t *length)
{
9d0047dc:	27bdfff8 	addiu	sp,sp,-8
9d0047e0:	afbe0004 	sw	s8,4(sp)
9d0047e4:	03a0f025 	move	s8,sp
9d0047e8:	afc40008 	sw	a0,8(s8)
9d0047ec:	afc5000c 	sw	a1,12(s8)
    DCH2SSA = KVA_TO_PA(bytes);  //Assign the source address of DMA2 to the physical address of the provided buffer
9d0047f0:	8fc20008 	lw	v0,8(s8)
9d0047f4:	7c43e000 	ext	v1,v0,0x0,0x1d
9d0047f8:	3c02bf88 	lui	v0,0xbf88
9d0047fc:	ac433210 	sw	v1,12816(v0)
    DCH2SSIZ = *length;          //Set the length of the source location to the provided length value
9d004800:	8fc2000c 	lw	v0,12(s8)
9d004804:	8c430000 	lw	v1,0(v0)
9d004808:	3c02bf88 	lui	v0,0xbf88
9d00480c:	ac433230 	sw	v1,12848(v0)
    DCH2CON = 0x00000080;        //Enable channel 2 of the DMA peripheral
9d004810:	3c02bf88 	lui	v0,0xbf88
9d004814:	24030080 	li	v1,128
9d004818:	ac4331e0 	sw	v1,12768(v0)
    DCH2ECON = 0x000037B0;       //Start the transfer process by forcing the first cell transfer on DMA2
9d00481c:	3c02bf88 	lui	v0,0xbf88
9d004820:	240337b0 	li	v1,14256
9d004824:	ac4331f0 	sw	v1,12784(v0)

//    while (DCH2CON & 0x00008000);  //Wait until the block transfer has fully completed
}
9d004828:	00000000 	nop
9d00482c:	03c0e825 	move	sp,s8
9d004830:	8fbe0004 	lw	s8,4(sp)
9d004834:	27bd0008 	addiu	sp,sp,8
9d004838:	03e00008 	jr	ra
9d00483c:	00000000 	nop

Disassembly of section .text.setModeDPS368:

9d004840 <setModeDPS368>:
{
9d004840:	27bdffe0 	addiu	sp,sp,-32
9d004844:	afbf001c 	sw	ra,28(sp)
9d004848:	afbe0018 	sw	s8,24(sp)
9d00484c:	03a0f025 	move	s8,sp
9d004850:	afc40020 	sw	a0,32(s8)
    uint8_t dataBuffer[0x00000002] = {0x08, newMode & 0x07};  //Form the data bytes that will be sent to the sensor to select the desired operating mode
9d004854:	24020008 	li	v0,8
9d004858:	a3c20010 	sb	v0,16(s8)
9d00485c:	8fc20020 	lw	v0,32(s8)
9d004860:	304200ff 	andi	v0,v0,0xff
9d004864:	30420007 	andi	v0,v0,0x7
9d004868:	304200ff 	andi	v0,v0,0xff
9d00486c:	a3c20011 	sb	v0,17(s8)
    return writeToI2C(DPS368_I2C_ADDR, dataBuffer, 0x00000002);  //Send the configuration bytes to the sensor over I2C and return the success status of the write operation
9d004870:	24060002 	li	a2,2
9d004874:	27c20010 	addiu	v0,s8,16
9d004878:	00402825 	move	a1,v0
9d00487c:	24040076 	li	a0,118
9d004880:	0f400b9f 	jal	9d002e7c <writeToI2C>
9d004884:	00000000 	nop
}
9d004888:	03c0e825 	move	sp,s8
9d00488c:	8fbf001c 	lw	ra,28(sp)
9d004890:	8fbe0018 	lw	s8,24(sp)
9d004894:	27bd0020 	addiu	sp,sp,32
9d004898:	03e00008 	jr	ra
9d00489c:	00000000 	nop

Disassembly of section .text.sitofp:

9d0048a0 <__floatsisf>:
9d0048a0:	3c018000 10800012 00813024 04810002     ...<....$0......
9d0048b0:	00000000 00042023                       ....# ..

9d0048b8 <i40>:
9d0048b8:	2405009e 	li	a1,158
9d0048bc:	70873820 	clz	a3,a0
9d0048c0:	00a72823 	subu	a1,a1,a3
9d0048c4:	00e42004 	sllv	a0,a0,a3
9d0048c8:	24840080 	addiu	a0,a0,128
9d0048cc:	2c880080 	sltiu	t0,a0,128
9d0048d0:	00a82821 	addu	a1,a1,t0
9d0048d4:	00044203 	sra	t0,a0,0x8
9d0048d8:	31080001 	andi	t0,t0,0x1
9d0048dc:	00882023 	subu	a0,a0,t0
9d0048e0:	00042040 	sll	a0,a0,0x1
9d0048e4:	00042242 	srl	a0,a0,0x9
9d0048e8:	000545c0 	sll	t0,a1,0x17
9d0048ec:	00882025 	or	a0,a0,t0

9d0048f0 <i39>:
9d0048f0:	00861025 	or	v0,a0,a2

9d0048f4 <E999>:
9d0048f4:	03e00008 	jr	ra
9d0048f8:	00000000 	nop
9d0048fc:	00000000 	nop

Disassembly of section .text.main_entry:

9d004900 <_main_entry>:
_main_entry:

#if defined(CPP_INIT)
        .weak _init
        # call .init section to run constructors etc
        lui	a0,%hi(_init)
9d004900:	3c040000 	lui	a0,0x0
        addiu	sp,sp,-24
9d004904:	27bdffe8 	addiu	sp,sp,-24
        addiu	a0,a0,%lo(_init)
9d004908:	24840000 	addiu	a0,a0,0
        beq	a0,$0,2f
9d00490c:	10800003 	beqz	a0,9d00491c <_main_entry+0x1c>
        sw	$31,20(sp)	 #,
9d004910:	afbf0014 	sw	ra,20(sp)
        jalr	a0
9d004914:	0080f809 	jalr	a0
        nop
9d004918:	00000000 	nop
2:
#endif
        and     a0,a0,0
9d00491c:	30840000 	andi	a0,a0,0x0
        and     a1,a1,0
9d004920:	30a50000 	andi	a1,a1,0x0

        ##################################################################

        # Call main
        ##################################################################
        la    	t0,main
9d004924:	3c089d00 	lui	t0,0x9d00
9d004928:	250831d8 	addiu	t0,t0,12760
        jalr 	t0
9d00492c:	0100f809 	jalr	t0
        nop
9d004930:	00000000 	nop

9d004934 <__crt0_exit>:
        # Call a software breakpoint only with -mdebugger compiler option
        ##################################################################
        .weak __exception_handler_break
__crt0_exit:
1:
        la      v0,__exception_handler_break
9d004934:	3c029d00 24424c5c 10400003 00000000     ...<\LB$..@.....
        beq     v0,0,0f
        nop
        jalr    v0
9d004944:	0040f809 00000000 1000fff9 00000000     ..@.............

Disassembly of section .text:

9d004954 <__floatunsisf>:
9d004954:	27bdffe8 	addiu	sp,sp,-24
9d004958:	0481000c 	bgez	a0,9d00498c <__floatunsisf+0x38>
9d00495c:	afbf0014 	sw	ra,20(sp)
9d004960:	00801025 	move	v0,a0
9d004964:	00021042 	srl	v0,v0,0x1
9d004968:	30840001 	andi	a0,a0,0x1
9d00496c:	0f401228 	jal	9d0048a0 <__floatsisf>
9d004970:	00822025 	or	a0,a0,v0
9d004974:	00402825 	move	a1,v0
9d004978:	0f400503 	jal	9d00140c <__addsf3>
9d00497c:	00402025 	move	a0,v0
9d004980:	8fbf0014 	lw	ra,20(sp)
9d004984:	03e00008 	jr	ra
9d004988:	27bd0018 	addiu	sp,sp,24
9d00498c:	0f401228 	jal	9d0048a0 <__floatsisf>
9d004990:	00000000 	nop
9d004994:	1000fffb 	b	9d004984 <__floatunsisf+0x30>
9d004998:	8fbf0014 	lw	ra,20(sp)

Disassembly of section .text._bootstrap_exception_handler:

9d00499c <_bootstrap_exception_handler>:
9d00499c:	3c020000 	lui	v0,0x0
9d0049a0:	24420000 	addiu	v0,v0,0
9d0049a4:	10400005 	beqz	v0,9d0049bc <_bootstrap_exception_handler+0x20>
9d0049a8:	3c029d00 	lui	v0,0x9d00
9d0049ac:	24424c5c 	addiu	v0,v0,19548
9d0049b0:	10400003 	beqz	v0,9d0049c0 <_bootstrap_exception_handler+0x24>
9d0049b4:	3c029d00 	lui	v0,0x9d00
9d0049b8:	7000003f 	sdbbp
9d0049bc:	3c029d00 	lui	v0,0x9d00
9d0049c0:	24424ab8 	addiu	v0,v0,19128
9d0049c4:	10400005 	beqz	v0,9d0049dc <_bootstrap_exception_handler+0x40>
9d0049c8:	00000000 	nop
9d0049cc:	27bdffe8 	addiu	sp,sp,-24
9d0049d0:	afbf0014 	sw	ra,20(sp)
9d0049d4:	0040f809 	jalr	v0
9d0049d8:	00000000 	nop
9d0049dc:	1000ffff 	b	9d0049dc <_bootstrap_exception_handler+0x40>
9d0049e0:	00000000 	nop

Disassembly of section .text._general_exception_handler:

9d0049e4 <_general_exception_handler>:
9d0049e4:	3c020000 	lui	v0,0x0
9d0049e8:	24420000 	addiu	v0,v0,0
9d0049ec:	10400005 	beqz	v0,9d004a04 <_general_exception_handler+0x20>
9d0049f0:	3c029d00 	lui	v0,0x9d00
9d0049f4:	24424c5c 	addiu	v0,v0,19548
9d0049f8:	10400003 	beqz	v0,9d004a08 <_general_exception_handler+0x24>
9d0049fc:	3c029d00 	lui	v0,0x9d00
9d004a00:	7000003f 	sdbbp
9d004a04:	3c029d00 	lui	v0,0x9d00
9d004a08:	24424ab8 	addiu	v0,v0,19128
9d004a0c:	10400005 	beqz	v0,9d004a24 <_general_exception_handler+0x40>
9d004a10:	00000000 	nop
9d004a14:	27bdffe8 	addiu	sp,sp,-24
9d004a18:	afbf0014 	sw	ra,20(sp)
9d004a1c:	0040f809 	jalr	v0
9d004a20:	00000000 	nop
9d004a24:	1000ffff 	b	9d004a24 <_general_exception_handler+0x40>
9d004a28:	00000000 	nop

Disassembly of section .vector_default:

9d004a2c <_DefaultInterrupt>:
9d004a2c:	3c020000 	lui	v0,0x0
9d004a30:	24420000 	addiu	v0,v0,0
9d004a34:	10400007 	beqz	v0,9d004a54 <_DefaultInterrupt+0x28>
9d004a38:	3c029d00 	lui	v0,0x9d00
9d004a3c:	24424c5c 	addiu	v0,v0,19548
9d004a40:	50400005 	beqzl	v0,9d004a58 <_DefaultInterrupt+0x2c>
9d004a44:	3c029d00 	lui	v0,0x9d00
9d004a48:	7000003f 	sdbbp
9d004a4c:	03e00008 	jr	ra
9d004a50:	00000000 	nop
9d004a54:	3c029d00 	lui	v0,0x9d00
9d004a58:	24424ab8 	addiu	v0,v0,19128
9d004a5c:	10400003 	beqz	v0,9d004a6c <_DefaultInterrupt+0x40>
9d004a60:	00000000 	nop
9d004a64:	0040f809 	jalr	v0
9d004a68:	00000000 	nop
9d004a6c:	03e00008 	jr	ra
9d004a70:	00000000 	nop

Disassembly of section .text.getResultsFromFifoDPS368:

9d004a74 <getResultsFromFifoDPS368>:
{
9d004a74:	27bdffe8 	addiu	sp,sp,-24
9d004a78:	afbf0014 	sw	ra,20(sp)
9d004a7c:	afbe0010 	sw	s8,16(sp)
9d004a80:	03a0f025 	move	s8,sp
9d004a84:	afc40018 	sw	a0,24(s8)
9d004a88:	afc5001c 	sw	a1,28(s8)
    return getResultsAtAddressDPS368(0x00, rawResults, count);  //Read the desired number of 24-bit result values from the sensors FIFO buffer
9d004a8c:	8fc6001c 	lw	a2,28(s8)
9d004a90:	8fc50018 	lw	a1,24(s8)
9d004a94:	00002025 	move	a0,zero
9d004a98:	0f400991 	jal	9d002644 <getResultsAtAddressDPS368>
9d004a9c:	00000000 	nop
}
9d004aa0:	03c0e825 	move	sp,s8
9d004aa4:	8fbf0014 	lw	ra,20(sp)
9d004aa8:	8fbe0010 	lw	s8,16(sp)
9d004aac:	27bd0018 	addiu	sp,sp,24
9d004ab0:	03e00008 	jr	ra
9d004ab4:	00000000 	nop

Disassembly of section .text:

9d004ab8 <__pic32_software_reset>:
9d004ab8:	41606000 	di
9d004abc:	000000c0 	ehb
9d004ac0:	3c03aa99 	lui	v1,0xaa99
9d004ac4:	3c02bf81 	lui	v0,0xbf81
9d004ac8:	24636655 	addiu	v1,v1,26197
9d004acc:	ac40f230 	sw	zero,-3536(v0)
9d004ad0:	ac43f230 	sw	v1,-3536(v0)
9d004ad4:	3c035566 	lui	v1,0x5566
9d004ad8:	346399aa 	ori	v1,v1,0x99aa
9d004adc:	ac43f230 	sw	v1,-3536(v0)
9d004ae0:	3c02bf81 	lui	v0,0xbf81
9d004ae4:	24030001 	li	v1,1
9d004ae8:	ac43f618 	sw	v1,-2536(v0)
9d004aec:	3c02bf81 	lui	v0,0xbf81
9d004af0:	8c42f610 	lw	v0,-2544(v0)
9d004af4:	0b4012b0 	j	9d004ac0 <__pic32_software_reset+0x8>
9d004af8:	00000000 	nop

Disassembly of section .text.requestMeasurementSHT4X:

9d004afc <requestMeasurementSHT4X>:
{
9d004afc:	27bdffe8 	addiu	sp,sp,-24
9d004b00:	afbf0014 	sw	ra,20(sp)
9d004b04:	afbe0010 	sw	s8,16(sp)
9d004b08:	03a0f025 	move	s8,sp
9d004b0c:	afc40018 	sw	a0,24(s8)
    return writeToI2C(SHT4X_I2C_ADDR, ((uint8_t *) &operation), 0x00000001);  //Send the command to the sensor and then return the success status of the I2C interaction with the sensor
9d004b10:	24060001 	li	a2,1
9d004b14:	27c50018 	addiu	a1,s8,24
9d004b18:	24040044 	li	a0,68
9d004b1c:	0f400b9f 	jal	9d002e7c <writeToI2C>
9d004b20:	00000000 	nop
}
9d004b24:	03c0e825 	move	sp,s8
9d004b28:	8fbf0014 	lw	ra,20(sp)
9d004b2c:	8fbe0010 	lw	s8,16(sp)
9d004b30:	27bd0018 	addiu	sp,sp,24
9d004b34:	03e00008 	jr	ra
9d004b38:	00000000 	nop

Disassembly of section .text.initializeApplication:

9d004b3c <initializeApplication>:
{
9d004b3c:	27bdfff8 	addiu	sp,sp,-8
9d004b40:	afbe0004 	sw	s8,4(sp)
9d004b44:	03a0f025 	move	s8,sp
    sensorThreadState = SENSOR_START_MEASUREMENTS;  //Start the sensor thread in the SENSOR_START_MEASUREMENTS state
9d004b48:	24020001 	li	v0,1
9d004b4c:	af828038 	sw	v0,-32712(gp)
    radioThreadState = RADIO_SLEEP;  //Start the radio thread in the RADIO_SLEEP state
9d004b50:	af80803c 	sw	zero,-32708(gp)
}
9d004b54:	00000000 	nop
9d004b58:	03c0e825 	move	sp,s8
9d004b5c:	8fbe0004 	lw	s8,4(sp)
9d004b60:	27bd0008 	addiu	sp,sp,8
9d004b64:	03e00008 	jr	ra
9d004b68:	00000000 	nop

Disassembly of section .rodata:

9d004b6c <dps368Cal_scalingFactors>:
9d004b6c:	00080000 00180000 00380000 00780000     ..........8...x.
9d004b7c:	0003e000 0007e000 000fe000 001fe000     ................
9d004b8c:	3f000000 477fff00 432f0000 42340000     ...?...G../C..4B
9d004b9c:	439d8000 42440000 42fa0000 40c00000     ...C..DB...B...@
9d004bac:	42c80000                                ...B

Disassembly of section .rodata:

9d004bb0 <SX1231H_Init>:
9d004bb0:	07404c80 59a80700 4f4c4c45 80000057     .L@....YELLOW...
9d004bc0:	00000040 002d028f 42742400 c0000000     @.....-..$tB....

Disassembly of section .text:

9d004bd0 <__dinit_copy>:
9d004bd0:	908c0000 	lbu	t4,0(a0)
9d004bd4:	24c6ffff 	addiu	a2,a2,-1
9d004bd8:	24840001 	addiu	a0,a0,1
9d004bdc:	a0ac0000 	sb	t4,0(a1)
9d004be0:	14c0fffb 	bnez	a2,9d004bd0 <__dinit_copy>
9d004be4:	24a50001 	addiu	a1,a1,1
9d004be8:	03e00008 	jr	ra
9d004bec:	00801025 	move	v0,a0

Disassembly of section .text:

9d004c08 <_nmi_handler>:
9d004c08:	401a6000 	mfc0	k0,c0_status
9d004c0c:	3c1bffbf 	lui	k1,0xffbf
9d004c10:	377bffff 	ori	k1,k1,0xffff
9d004c14:	035bd024 	and	k0,k0,k1
9d004c18:	409a6000 	mtc0	k0,c0_status
9d004c1c:	42000018 	eret

9d004c20 <__dinit_clear>:
9d004c20:	24c6ffff 	addiu	a2,a2,-1
9d004c24:	a0a00000 	sb	zero,0(a1)
9d004c28:	14c0fffd 	bnez	a2,9d004c20 <__dinit_clear>
9d004c2c:	24a50001 	addiu	a1,a1,1
9d004c30:	03e00008 	jr	ra
9d004c34:	00801025 	move	v0,a0

Disassembly of section .rodata:

9d004c38 <_dinit_func_table>:
9d004c38:	9d004c20 9d004bd0 9d0044a4 9d0044a4      L...K...D...D..
9d004c48:	9d0044a4                                .D..

Disassembly of section .app_config:

9d004c4c <configNodeID>:
9d004c4c:	0c000000                                ....

9d004c50 <configSampleInterval>:
9d004c50:	00001500                                ....

9d004c54 <configRadioCarrier>:
9d004c54:	19ce4af0                                .J..

9d004c58 <configRadioBitrate>:
9d004c58:	0c000960                                `...

Disassembly of section .text.__exception_handler_break:

9d004c5c <__exception_handler_break>:
9d004c5c:	7000003f 	sdbbp
9d004c60:	03e00008 	jr	ra
9d004c64:	00000000 	nop

Disassembly of section .rodata:

9d004c68 <SSD1803A_Init>:
9d004c68:	06013838 7056390c 3c380209 20616579     88...9Vp..8<yea 
9d004c78:	006c6f6c 006c6f6c                       lol.lol.

Disassembly of section .rodata:

9d004c80 <.rodata>:
9d004c80:	42c80000 	c0	0xc80000
9d004c84:	41200000 	0x41200000

Disassembly of section .text._on_reset:

9d004c88 <_on_reset>:
9d004c88:	03e00008 	jr	ra
9d004c8c:	00000000 	nop

Disassembly of section .text._on_bootstrap:

9d004c90 <_on_bootstrap>:
9d004c90:	03e00008 	jr	ra
9d004c94:	00000000 	nop

Disassembly of section .rodata:

9d004c98 <.rodata>:
9d004c98:	42c80000 	c0	0xc80000
