
dist\production\debug\base-station_yellowcard.X.debug.elf:     file format elf32-tradlittlemips


Disassembly of section .config_BFC00BF0:

bfc00bf0 <__config_BFC00BF0>:
bfc00bf0:	ff ff ff cf                                         ....

Disassembly of section .config_BFC00BF4:

bfc00bf4 <__config_BFC00BF4>:
bfc00bf4:	99 ff fa ff                                         ....

Disassembly of section .config_BFC00BF8:

bfc00bf8 <__config_BFC00BF8>:
bfc00bf8:	79 5f 74 ff                                         y_t.

Disassembly of section .config_BFC00BFC:

bfc00bfc <__config_BFC00BFC>:
bfc00bfc:	fb ff ff 7f                                         ....

Disassembly of section .reset:

bfc00000 <_reset>:
        nop

#else

_reset:
        jal _startup
bfc00000:	0ff00002 	jal	bfc00008 <_startup>
        nop
bfc00004:	00000000 	nop

bfc00008 <_startup>:
        .ent _startup
_startup:
        ##################################################################
        # If entered because of an NMI, jump to the NMI handler.
        ##################################################################
        mfc0    k0,_CP0_STATUS
bfc00008:	401a6000 	mfc0	k0,c0_status
        ext     k0,k0,19,1              # Extract NMI bit
bfc0000c:	7f5a04c0 	ext	k0,k0,0x13,0x1
        beqz    k0,_no_nmi
bfc00010:	13400005 	beqz	k0,bfc00028 <_no_nmi>
        nop
bfc00014:	00000000 	nop
        la      k0,_nmi_handler
bfc00018:	3c1a9d00 	lui	k0,0x9d00
bfc0001c:	275a42d0 	addiu	k0,k0,17104
        jr      k0
bfc00020:	03400008 	jr	k0
        nop
bfc00024:	00000000 	nop

bfc00028 <_no_nmi>:
        ##################################################################
        # Initialize Stack Pointer
        #   _stack is initialized by the linker script to point to the
        #    starting location of the stack in DRM
        ##################################################################
        la      sp,_stack
bfc00028:	3c1da000 	lui	sp,0xa000
bfc0002c:	27bd1ff0 	addiu	sp,sp,8176
        ##################################################################
        # Initialize Global Pointer
        #   _gp is initialized by the linker script to point to "middle"
        #   of the small variables region
        ##################################################################
        la      gp,_gp
bfc00030:	3c1ca001 	lui	gp,0xa001
bfc00034:	279c81f0 	addiu	gp,gp,-32272
#endif /* (PIC32_SRS_SET_COUNT > 2) */

        ##################################################################
        # Call the "on reset" procedure
        ##################################################################
        la      t0,_on_reset
bfc00038:	3c089d00 	lui	t0,0x9d00
bfc0003c:	2508434c 	addiu	t0,t0,17228
        jalr    t0
bfc00040:	0100f809 	jalr	t0
        nop
bfc00044:	00000000 	nop

bfc00048 <_start_bss_init>:

        ##################################################################
        # Clear uninitialized data sections
        ##################################################################
_start_bss_init:
        la      t0,_bss_begin
bfc00048:	3c08a000 	lui	t0,0xa000
bfc0004c:	25080200 	addiu	t0,t0,512
        la      t1,_bss_end
bfc00050:	3c09a000 	lui	t1,0xa000
bfc00054:	2529023c 	addiu	t1,t1,572
        b       _bss_check
bfc00058:	10000003 	b	bfc00068 <_bss_check>
        nop
bfc0005c:	00000000 	nop

bfc00060 <_bss_init>:

_bss_init:
        sw      zero,0x0(t0)
bfc00060:	ad000000 	sw	zero,0(t0)
        addu    t0,4
bfc00064:	25080004 	addiu	t0,t0,4

bfc00068 <_bss_check>:
_bss_check:
        bltu    t0,t1,_bss_init
bfc00068:	0109082b 	sltu	at,t0,t1
bfc0006c:	1420fffc 	bnez	at,bfc00060 <_bss_init>
        nop
bfc00070:	00000000 	nop
        # XC32 v2.10 and later provide the data-init code in a separate file
        # packaged with the compiler rather than the DFP. Use that init
        # code instead.
        #####################################################################
        .extern   __pic32_data_init
        la      t0, __pic32_data_init
bfc00074:	3c089d00 	lui	t0,0x9d00
bfc00078:	25083ae8 	addiu	t0,t0,15080
        jalr    t0
bfc0007c:	0100f809 	jalr	t0
        nop
bfc00080:	00000000 	nop

        ##################################################################
        # If there are no RAM functions, skip the next section --
        # initializing bus matrix registers.
        ##################################################################
        la      t1,_ramfunc_begin
bfc00084:	3c090000 	lui	t1,0x0
bfc00088:	25290000 	addiu	t1,t1,0
        beqz    t1,_ramfunc_done
bfc0008c:	11200010 	beqz	t1,bfc000d0 <_ramfunc_done>
        nop
bfc00090:	00000000 	nop
#else /* Use BMX */
        ##################################################################
        # Initialize bus matrix registers if RAM functions exist in the
        # application
        ##################################################################
        la      t1,_bmxdkpba_address
bfc00094:	3c090000 	lui	t1,0x0
bfc00098:	25292000 	addiu	t1,t1,8192
        la      t2,BMXDKPBA
bfc0009c:	3c0abf88 	lui	t2,0xbf88
bfc000a0:	254a2010 	addiu	t2,t2,8208
        sw      t1,0(t2)
bfc000a4:	ad490000 	sw	t1,0(t2)
        la      t1,_bmxdudba_address
bfc000a8:	3c090000 	lui	t1,0x0
bfc000ac:	25292000 	addiu	t1,t1,8192
        la      t2,BMXDUDBA
bfc000b0:	3c0abf88 	lui	t2,0xbf88
bfc000b4:	254a2020 	addiu	t2,t2,8224
        sw      t1,0(t2)
bfc000b8:	ad490000 	sw	t1,0(t2)
        la      t1,_bmxdupba_address
bfc000bc:	3c090000 	lui	t1,0x0
bfc000c0:	25292000 	addiu	t1,t1,8192
        la      t2,BMXDUPBA
bfc000c4:	3c0abf88 	lui	t2,0xbf88
bfc000c8:	254a2030 	addiu	t2,t2,8240
        sw      t1,0(t2)
bfc000cc:	ad490000 	sw	t1,0(t2)

bfc000d0 <_ramfunc_done>:
        ##################################################################
        # Initialize CP0 registers
        ##################################################################
        # Initialize Count register
        ##################################################################
        mtc0    zero,_CP0_COUNT
bfc000d0:	40804800 	mtc0	zero,c0_count

        ##################################################################
        # Initialize Compare register
        ##################################################################
        li      t2,-1
bfc000d4:	240affff 	li	t2,-1
        mtc0    t2,_CP0_COMPARE
bfc000d8:	408a5800 	mtc0	t2,c0_compare

        ##################################################################
        # Ensure BEV set and Initialize EBase register
        ##################################################################
        li      t0, (1<<22)
bfc000dc:	3c080040 	lui	t0,0x40
        mfc0    t2,_CP0_STATUS
bfc000e0:	400a6000 	mfc0	t2,c0_status
        or      t2,t0,t2               # Set BEV bit 22
bfc000e4:	010a5025 	or	t2,t0,t2
        mtc0    t2,_CP0_STATUS
bfc000e8:	408a6000 	mtc0	t2,c0_status

        la      t1,_ebase_address
bfc000ec:	3c099d00 	lui	t1,0x9d00
bfc000f0:	25290000 	addiu	t1,t1,0
        ehb
bfc000f4:	000000c0 	ehb
        mtc0    t1,_CP0_EBASE
bfc000f8:	40897801 	mtc0	t1,c0_ebase
#endif /* USE_DEFAULT_PRISS_VALUE */
        
        ##################################################################
        # Initialize IntCtl/INTCON.VS register with _vector_spacing
        ##################################################################
        la      t1,_vector_spacing
bfc000fc:	3c090000 	lui	t1,0x0
bfc00100:	25290001 	addiu	t1,t1,1
#if defined(__PIC32MM) && defined(_INTCON_MVEC_MASK)
        ori     t2, t2, _INTCON_MVEC_MASK
#endif
        sw      t2, 0(t0)
#endif
        li      t2,0                    # Clear t2 and
bfc00104:	240a0000 	li	t2,0
        ins     t2,t1,5,5               # shift value to VS field
bfc00108:	7d2a4944 	ins	t2,t1,0x5,0x5
        mtc0    t2,_CP0_INTCTL
bfc0010c:	408a6001 	mtc0	t2,c0_intctl
        # Initialize CAUSE registers
        # - Enable counting of Count register <DC = 0>
        # - Use special exception vector <IV = 1>
        # - Clear pending software interrupts <IP1:IP0 = 0>
        ##################################################################
        li      t1,0x00800000
bfc00110:	3c090080 	lui	t1,0x80
        mtc0    t1,_CP0_CAUSE
bfc00114:	40896800 	mtc0	t1,c0_cause
        # - Exception level is normal <EXL = 0>
        # - Interrupts are disabled <IE = 0>
        # - DSPr2 ASE is enabled for devices that support it <MX = 1>
        # - FPU64 is enabled for devices that support it <CU1=1> & <FR=1>
        ##################################################################
        mfc0    t0,_CP0_CONFIG
bfc00118:	40088000 	mfc0	t0,c0_config
        ext     t1,t0,22,1              # Extract UDI from Config register
bfc0011c:	7d090580 	ext	t1,t0,0x16,0x1
        sll     t1,t1,17                # Move UDI to Status.CEE location
bfc00120:	00094c40 	sll	t1,t1,0x11
        mfc0    t0,_CP0_STATUS
bfc00124:	40086000 	mfc0	t0,c0_status
        and     t0,t0,0x00580000        # Preserve SR, NMI, and BEV
bfc00128:	3c010058 	lui	at,0x58
bfc0012c:	01014024 	and	t0,t0,at
#if defined(INIT_FPU64) || defined(__PIC32_HAS_FPU64)
        li      t2, 0x24000000          # Set the Status.CU1 and Status.FR bits to
        or      t0,t2,t0                # enable the FPU in FR64 mode
#endif

        or      t0,t1,t0                # Include Status.CEE (from UDI)
bfc00130:	01284025 	or	t0,t1,t0
        mtc0    t0,_CP0_STATUS
bfc00134:	40886000 	mtc0	t0,c0_status
                                        # FPU Control and Status
        li      t2,0x1000000            # FCSR: RM=0, FS=1, FO=0, FN=0
                                        # Enables: 0b00000 E=1, V=0, Z=0, O=0, U=0, I=0
        ctc1    t2, $31                 # High perf on denormal operands & tiny results
#endif
        ehb
bfc00138:	000000c0 	ehb

        ##################################################################
        # Call the "on bootstrap" procedure
        ##################################################################
        la      t0,_on_bootstrap
bfc0013c:	3c089d00 	lui	t0,0x9d00
bfc00140:	25084354 	addiu	t0,t0,17236
        jalr    t0
bfc00144:	0100f809 	jalr	t0
        nop
bfc00148:	00000000 	nop

        ##################################################################
        # Initialize Status<BEV> for normal exception vectors
        ##################################################################
        mfc0    t0,_CP0_STATUS
bfc0014c:	40086000 	mfc0	t0,c0_status
        and     t0,t0,0xffbfffff        # Clear BEV
bfc00150:	3c01ffbf 	lui	at,0xffbf
bfc00154:	3421ffff 	ori	at,at,0xffff
bfc00158:	01014024 	and	t0,t0,at
        mtc0    t0,_CP0_STATUS
bfc0015c:	40886000 	mtc0	t0,c0_status
        # a normal jump and link can be used, enabling the startup code
        # to work properly whether main is written in MIPS16 or MIPS32
        # code. I.e., the linker will correctly adjust the JAL to JALX if
        # necessary
        ##################################################################
        and     a0,a0,0
bfc00160:	30840000 	andi	a0,a0,0x0
        and     a1,a1,0
bfc00164:	30a50000 	andi	a1,a1,0x0
        la      t0,_main_entry
bfc00168:	3c089d00 	lui	t0,0x9d00
bfc0016c:	25083f34 	addiu	t0,t0,16180
        jr      t0
bfc00170:	01000008 	jr	t0
        nop
bfc00174:	00000000 	nop

Disassembly of section .bev_excpt:

bfc00380 <_bev_exception>:
        .section .bev_handler,code,keep
        .align 2
        .set noreorder
        .ent _bev_exception
_bev_exception:
        la        k0,_bootstrap_exception_handler
bfc00380:	3c1a9d00 	lui	k0,0x9d00
bfc00384:	275a406c 	addiu	k0,k0,16492
        jr        k0
bfc00388:	03400008 	jr	k0
        nop
bfc0038c:	00000000 	nop

Disassembly of section .app_excpt:

9d000180 <_gen_exception>:
        .section .gen_handler,code
        .align 2
        .set noreorder
        .ent _gen_exception
_gen_exception:
0:      la      k0,_general_exception_context
9d000180:	3c1a9d00 	lui	k0,0x9d00
9d000184:	275a2e28 	addiu	k0,k0,11816
        jr      k0
9d000188:	03400008 	jr	k0
        nop
9d00018c:	00000000 	nop

Disassembly of section .vector_0:

9d000200 <__vector_dispatch_0>:
9d000200:	0b40103f 	j	9d0040fc <_DefaultInterrupt>
9d000204:	00000000 	nop

Disassembly of section .vector_1:

9d000220 <__vector_dispatch_1>:
9d000220:	0b40103f 	j	9d0040fc <_DefaultInterrupt>
9d000224:	00000000 	nop

Disassembly of section .vector_2:

9d000240 <__vector_dispatch_2>:
9d000240:	0b40103f 	j	9d0040fc <_DefaultInterrupt>
9d000244:	00000000 	nop

Disassembly of section .vector_3:

9d000260 <__vector_dispatch_3>:
9d000260:	0b40103f 	j	9d0040fc <_DefaultInterrupt>
9d000264:	00000000 	nop

Disassembly of section .vector_4:

9d000280 <__vector_dispatch_4>:
9d000280:	0b400d28 	j	9d0034a0 <timer1PeriodMatchISR>
9d000284:	00000000 	nop

Disassembly of section .vector_5:

9d0002a0 <__vector_dispatch_5>:
9d0002a0:	0b40103f 	j	9d0040fc <_DefaultInterrupt>
9d0002a4:	00000000 	nop

Disassembly of section .vector_6:

9d0002c0 <__vector_dispatch_6>:
9d0002c0:	0b40103f 	j	9d0040fc <_DefaultInterrupt>
9d0002c4:	00000000 	nop

Disassembly of section .vector_7:

9d0002e0 <__vector_dispatch_7>:
9d0002e0:	0b40103f 	j	9d0040fc <_DefaultInterrupt>
9d0002e4:	00000000 	nop

Disassembly of section .vector_8:

9d000300 <__vector_dispatch_8>:
9d000300:	0b40103f 	j	9d0040fc <_DefaultInterrupt>
9d000304:	00000000 	nop

Disassembly of section .vector_9:

9d000320 <__vector_dispatch_9>:
9d000320:	0b40103f 	j	9d0040fc <_DefaultInterrupt>
9d000324:	00000000 	nop

Disassembly of section .vector_10:

9d000340 <__vector_dispatch_10>:
9d000340:	0b40103f 	j	9d0040fc <_DefaultInterrupt>
9d000344:	00000000 	nop

Disassembly of section .vector_11:

9d000360 <__vector_dispatch_11>:
9d000360:	0b40103f 	j	9d0040fc <_DefaultInterrupt>
9d000364:	00000000 	nop

Disassembly of section .vector_12:

9d000380 <__vector_dispatch_12>:
9d000380:	0b40103f 	j	9d0040fc <_DefaultInterrupt>
9d000384:	00000000 	nop

Disassembly of section .vector_13:

9d0003a0 <__vector_dispatch_13>:
9d0003a0:	0b40103f 	j	9d0040fc <_DefaultInterrupt>
9d0003a4:	00000000 	nop

Disassembly of section .vector_14:

9d0003c0 <__vector_dispatch_14>:
9d0003c0:	0b40103f 	j	9d0040fc <_DefaultInterrupt>
9d0003c4:	00000000 	nop

Disassembly of section .vector_15:

9d0003e0 <__vector_dispatch_15>:
9d0003e0:	0b40103f 	j	9d0040fc <_DefaultInterrupt>
9d0003e4:	00000000 	nop

Disassembly of section .vector_16:

9d000400 <__vector_dispatch_16>:
9d000400:	0b40103f 	j	9d0040fc <_DefaultInterrupt>
9d000404:	00000000 	nop

Disassembly of section .vector_17:

9d000420 <__vector_dispatch_17>:
9d000420:	0b40103f 	j	9d0040fc <_DefaultInterrupt>
9d000424:	00000000 	nop

Disassembly of section .vector_18:

9d000440 <__vector_dispatch_18>:
9d000440:	0b40103f 	j	9d0040fc <_DefaultInterrupt>
9d000444:	00000000 	nop

Disassembly of section .vector_19:

9d000460 <__vector_dispatch_19>:
9d000460:	0b400e0f 	j	9d00383c <int4ISR>
9d000464:	00000000 	nop

Disassembly of section .vector_20:

9d000480 <__vector_dispatch_20>:
9d000480:	0b40103f 	j	9d0040fc <_DefaultInterrupt>
9d000484:	00000000 	nop

Disassembly of section .vector_21:

9d0004a0 <__vector_dispatch_21>:
9d0004a0:	0b40103f 	j	9d0040fc <_DefaultInterrupt>
9d0004a4:	00000000 	nop

Disassembly of section .vector_22:

9d0004c0 <__vector_dispatch_22>:
9d0004c0:	0b40103f 	j	9d0040fc <_DefaultInterrupt>
9d0004c4:	00000000 	nop

Disassembly of section .vector_23:

9d0004e0 <__vector_dispatch_23>:
9d0004e0:	0b40103f 	j	9d0040fc <_DefaultInterrupt>
9d0004e4:	00000000 	nop

Disassembly of section .vector_24:

9d000500 <__vector_dispatch_24>:
9d000500:	0b40103f 	j	9d0040fc <_DefaultInterrupt>
9d000504:	00000000 	nop

Disassembly of section .vector_25:

9d000520 <__vector_dispatch_25>:
9d000520:	0b400cff 	j	9d0033fc <rtccAlarmISR>
9d000524:	00000000 	nop

Disassembly of section .vector_26:

9d000540 <__vector_dispatch_26>:
9d000540:	0b40103f 	j	9d0040fc <_DefaultInterrupt>
9d000544:	00000000 	nop

Disassembly of section .vector_27:

9d000560 <__vector_dispatch_27>:
9d000560:	0b40103f 	j	9d0040fc <_DefaultInterrupt>
9d000564:	00000000 	nop

Disassembly of section .vector_28:

9d000580 <__vector_dispatch_28>:
9d000580:	0b40103f 	j	9d0040fc <_DefaultInterrupt>
9d000584:	00000000 	nop

Disassembly of section .vector_29:

9d0005a0 <__vector_dispatch_29>:
9d0005a0:	0b40103f 	j	9d0040fc <_DefaultInterrupt>
9d0005a4:	00000000 	nop

Disassembly of section .vector_30:

9d0005c0 <__vector_dispatch_30>:
9d0005c0:	0b40103f 	j	9d0040fc <_DefaultInterrupt>
9d0005c4:	00000000 	nop

Disassembly of section .vector_31:

9d0005e0 <__vector_dispatch_31>:
9d0005e0:	0b40103f 	j	9d0040fc <_DefaultInterrupt>
9d0005e4:	00000000 	nop

Disassembly of section .vector_32:

9d000600 <__vector_dispatch_32>:
9d000600:	0b40103f 	j	9d0040fc <_DefaultInterrupt>
9d000604:	00000000 	nop

Disassembly of section .vector_33:

9d000620 <__vector_dispatch_33>:
9d000620:	0b40103f 	j	9d0040fc <_DefaultInterrupt>
9d000624:	00000000 	nop

Disassembly of section .vector_34:

9d000640 <__vector_dispatch_34>:
9d000640:	0b400d4f 	j	9d00353c <portChangeNoticeISR>
9d000644:	00000000 	nop

Disassembly of section .vector_35:

9d000660 <__vector_dispatch_35>:
9d000660:	0b40103f 	j	9d0040fc <_DefaultInterrupt>
9d000664:	00000000 	nop

Disassembly of section .vector_36:

9d000680 <__vector_dispatch_36>:
9d000680:	0b40103f 	j	9d0040fc <_DefaultInterrupt>
9d000684:	00000000 	nop

Disassembly of section .vector_37:

9d0006a0 <__vector_dispatch_37>:
9d0006a0:	0b40103f 	j	9d0040fc <_DefaultInterrupt>
9d0006a4:	00000000 	nop

Disassembly of section .vector_38:

9d0006c0 <__vector_dispatch_38>:
9d0006c0:	0b40103f 	j	9d0040fc <_DefaultInterrupt>
9d0006c4:	00000000 	nop

Disassembly of section .vector_39:

9d0006e0 <__vector_dispatch_39>:
9d0006e0:	0b40103f 	j	9d0040fc <_DefaultInterrupt>
9d0006e4:	00000000 	nop

Disassembly of section .vector_40:

9d000700 <__vector_dispatch_40>:
9d000700:	0b40103f 	j	9d0040fc <_DefaultInterrupt>
9d000704:	00000000 	nop

Disassembly of section .vector_41:

9d000720 <__vector_dispatch_41>:
9d000720:	0b40103f 	j	9d0040fc <_DefaultInterrupt>
9d000724:	00000000 	nop

Disassembly of section .vector_42:

9d000740 <__vector_dispatch_42>:
9d000740:	0b400c29 	j	9d0030a4 <dma2ISR>
9d000744:	00000000 	nop

Disassembly of section .vector_43:

9d000760 <__vector_dispatch_43>:
9d000760:	0b40103f 	j	9d0040fc <_DefaultInterrupt>
9d000764:	00000000 	nop

Disassembly of section .text.initializeSSD1803A:

9d000780 <initializeSSD1803A>:
 ******************************/


//Initialize Function, configures the chipset for the desired operating mode for the application
uint32_t initializeSSD1803A(lineCount_SSD1803A_t lines, orientation_SSD1803A_t orientation, SSD1803A_displayMode_t entryMode, vBias_SSD1803A_t lcdBias, regulatorGain_SSD1803A_t lcdGain)
{
9d000780:	27bdffe0 	addiu	sp,sp,-32
9d000784:	afbf001c 	sw	ra,28(sp)
9d000788:	afa40020 	sw	a0,32(sp)
9d00078c:	afa50024 	sw	a1,36(sp)
9d000790:	afa60028 	sw	a2,40(sp)
9d000794:	afa7002c 	sw	a3,44(sp)
    uint32_t buffer = 0x0000003B;          //Create a temporary buffer to use for calculating commands before sending them
9d000798:	2402003b 	li	v0,59
9d00079c:	afa20010 	sw	v0,16(sp)
    statusRegister_SSD1803A = 0x00000000;  //Clear the state of the drivers status register
9d0007a0:	af808030 	sw	zero,-32720(gp)

    //RE = ?, RE = ?
    if (!sendCommandSSD1803A(0x38)) return 0x00000000;    //Try putting the controller into the regular register selection
9d0007a4:	24040038 	li	a0,56
9d0007a8:	0f401051 	jal	9d004144 <sendCommandSSD1803A>
9d0007ac:	00000000 	nop
9d0007b0:	14400004 	bnez	v0,9d0007c4 <initializeSSD1803A+0x44>
9d0007b4:	00000000 	nop
9d0007b8:	00001025 	move	v0,zero
9d0007bc:	100000e2 	b	9d000b48 <initializeSSD1803A+0x3c8>
9d0007c0:	00000000 	nop
    if (!sendCommandSSD1803A(buffer)) return 0x00000000;  //Select the special instruction and extended registers on the LCD controller
9d0007c4:	8fa20010 	lw	v0,16(sp)
9d0007c8:	304200ff 	andi	v0,v0,0xff
9d0007cc:	00402025 	move	a0,v0
9d0007d0:	0f401051 	jal	9d004144 <sendCommandSSD1803A>
9d0007d4:	00000000 	nop
9d0007d8:	14400004 	bnez	v0,9d0007ec <initializeSSD1803A+0x6c>
9d0007dc:	00000000 	nop
9d0007e0:	00001025 	move	v0,zero
9d0007e4:	100000d8 	b	9d000b48 <initializeSSD1803A+0x3c8>
9d0007e8:	00000000 	nop
    statusRegister_SSD1803A = buffer & 0x00000007;        //Update the driver status register to match
9d0007ec:	8fa20010 	lw	v0,16(sp)
9d0007f0:	30420007 	andi	v0,v0,0x7
9d0007f4:	af828030 	sw	v0,-32720(gp)

    //RE = 1, IS = 1
    if (!sendCommandSSD1803A(0x80)) return 0x00000000;         //Set Scroll Quantity, reset the scroll offset back to 0
9d0007f8:	24040080 	li	a0,128
9d0007fc:	0f401051 	jal	9d004144 <sendCommandSSD1803A>
9d000800:	00000000 	nop
9d000804:	14400004 	bnez	v0,9d000818 <initializeSSD1803A+0x98>
9d000808:	00000000 	nop
9d00080c:	00001025 	move	v0,zero
9d000810:	100000cd 	b	9d000b48 <initializeSSD1803A+0x3c8>
9d000814:	00000000 	nop
    if (!sendCommandSSD1803A(0x10)) return 0x00000000;         //Scroll/Shift Enable, disable the scroll function for all 4 lines
9d000818:	24040010 	li	a0,16
9d00081c:	0f401051 	jal	9d004144 <sendCommandSSD1803A>
9d000820:	00000000 	nop
9d000824:	14400004 	bnez	v0,9d000838 <initializeSSD1803A+0xb8>
9d000828:	00000000 	nop
9d00082c:	00001025 	move	v0,zero
9d000830:	100000c5 	b	9d000b48 <initializeSSD1803A+0x3c8>
9d000834:	00000000 	nop
    if (!sendCommandSSD1803A(orientation)) return 0x00000000;  //Entry mode set, configure the chipset for the desired viewing orientation
9d000838:	8fa20024 	lw	v0,36(sp)
9d00083c:	304200ff 	andi	v0,v0,0xff
9d000840:	00402025 	move	a0,v0
9d000844:	0f401051 	jal	9d004144 <sendCommandSSD1803A>
9d000848:	00000000 	nop
9d00084c:	14400004 	bnez	v0,9d000860 <initializeSSD1803A+0xe0>
9d000850:	00000000 	nop
9d000854:	00001025 	move	v0,zero
9d000858:	100000bb 	b	9d000b48 <initializeSSD1803A+0x3c8>
9d00085c:	00000000 	nop

    if (!sendCommandSSD1803A(0x38)) return 0x00000000;  //Select the regular register set on the LCD controller
9d000860:	24040038 	li	a0,56
9d000864:	0f401051 	jal	9d004144 <sendCommandSSD1803A>
9d000868:	00000000 	nop
9d00086c:	14400004 	bnez	v0,9d000880 <initializeSSD1803A+0x100>
9d000870:	00000000 	nop
9d000874:	00001025 	move	v0,zero
9d000878:	100000b3 	b	9d000b48 <initializeSSD1803A+0x3c8>
9d00087c:	00000000 	nop
    statusRegister_SSD1803A &= 0xFFFFFFFC;              //Update the driver status register to match
9d000880:	8f828030 	lw	v0,-32720(gp)
9d000884:	7c020804 	ins	v0,zero,0x0,0x2
9d000888:	af828030 	sw	v0,-32720(gp)

    //RE = 0, IS = 0
    if (!sendCommandSSD1803A(0x01)) return 0x00000000;       //Clear the display
9d00088c:	24040001 	li	a0,1
9d000890:	0f401051 	jal	9d004144 <sendCommandSSD1803A>
9d000894:	00000000 	nop
9d000898:	14400004 	bnez	v0,9d0008ac <initializeSSD1803A+0x12c>
9d00089c:	00000000 	nop
9d0008a0:	00001025 	move	v0,zero
9d0008a4:	100000a8 	b	9d000b48 <initializeSSD1803A+0x3c8>
9d0008a8:	00000000 	nop
    if (!sendCommandSSD1803A(0x06)) return 0x00000000;       //Entry mode set, cursor moves to the right with shifting disabled
9d0008ac:	24040006 	li	a0,6
9d0008b0:	0f401051 	jal	9d004144 <sendCommandSSD1803A>
9d0008b4:	00000000 	nop
9d0008b8:	14400004 	bnez	v0,9d0008cc <initializeSSD1803A+0x14c>
9d0008bc:	00000000 	nop
9d0008c0:	00001025 	move	v0,zero
9d0008c4:	100000a0 	b	9d000b48 <initializeSSD1803A+0x3c8>
9d0008c8:	00000000 	nop
    if (!sendCommandSSD1803A(entryMode)) return 0x00000000;  //Display On/Off Control, put the display into the desired operating mode
9d0008cc:	8fa20028 	lw	v0,40(sp)
9d0008d0:	304200ff 	andi	v0,v0,0xff
9d0008d4:	00402025 	move	a0,v0
9d0008d8:	0f401051 	jal	9d004144 <sendCommandSSD1803A>
9d0008dc:	00000000 	nop
9d0008e0:	14400004 	bnez	v0,9d0008f4 <initializeSSD1803A+0x174>
9d0008e4:	00000000 	nop
9d0008e8:	00001025 	move	v0,zero
9d0008ec:	10000096 	b	9d000b48 <initializeSSD1803A+0x3c8>
9d0008f0:	00000000 	nop

    if (!sendCommandSSD1803A(0x39)) return 0x00000000;             //Select the special instruction registers on the LCD controller
9d0008f4:	24040039 	li	a0,57
9d0008f8:	0f401051 	jal	9d004144 <sendCommandSSD1803A>
9d0008fc:	00000000 	nop
9d000900:	14400004 	bnez	v0,9d000914 <initializeSSD1803A+0x194>
9d000904:	00000000 	nop
9d000908:	00001025 	move	v0,zero
9d00090c:	1000008e 	b	9d000b48 <initializeSSD1803A+0x3c8>
9d000910:	00000000 	nop
    statusRegister_SSD1803A |= 0x00000001;                         //Update the driver register to match
9d000914:	8f828030 	lw	v0,-32720(gp)
9d000918:	34420001 	ori	v0,v0,0x1
9d00091c:	af828030 	sw	v0,-32720(gp)

    //RE = 0, IS = 1
    buffer = 0x00000013;                                              //Pre-calculate the bits for the next command
9d000920:	24020013 	li	v0,19
9d000924:	afa20010 	sw	v0,16(sp)
    if (lcdBias & 0x00000001) buffer |= 0x00000008;                   //Set the 4th bit if BS0 is set in the provided LCD bias setting
9d000928:	8fa2002c 	lw	v0,44(sp)
9d00092c:	30420001 	andi	v0,v0,0x1
9d000930:	10400004 	beqz	v0,9d000944 <initializeSSD1803A+0x1c4>
9d000934:	00000000 	nop
9d000938:	8fa20010 	lw	v0,16(sp)
9d00093c:	34420008 	ori	v0,v0,0x8
9d000940:	afa20010 	sw	v0,16(sp)
    if (!sendCommandSSD1803A(buffer)) return 0x00000000;              //Internal OSC Frequency, sets the clock frequency for the chipset and also provides the LSB of the bias setting
9d000944:	8fa20010 	lw	v0,16(sp)
9d000948:	304200ff 	andi	v0,v0,0xff
9d00094c:	00402025 	move	a0,v0
9d000950:	0f401051 	jal	9d004144 <sendCommandSSD1803A>
9d000954:	00000000 	nop
9d000958:	14400004 	bnez	v0,9d00096c <initializeSSD1803A+0x1ec>
9d00095c:	00000000 	nop
9d000960:	00001025 	move	v0,zero
9d000964:	10000078 	b	9d000b48 <initializeSSD1803A+0x3c8>
9d000968:	00000000 	nop
    if (lcdBias & 0x00000001) statusRegister_SSD1803A |= 0x00000010;  //Update the driver status register to match
9d00096c:	8fa2002c 	lw	v0,44(sp)
9d000970:	30420001 	andi	v0,v0,0x1
9d000974:	10400004 	beqz	v0,9d000988 <initializeSSD1803A+0x208>
9d000978:	00000000 	nop
9d00097c:	8f828030 	lw	v0,-32720(gp)
9d000980:	34420010 	ori	v0,v0,0x10
9d000984:	af828030 	sw	v0,-32720(gp)
    if (!sendCommandSSD1803A(0x56)) return 0x00000000;                //Power Control and Contrast, enable the internal voltage booster and set the contrast setting
9d000988:	24040056 	li	a0,86
9d00098c:	0f401051 	jal	9d004144 <sendCommandSSD1803A>
9d000990:	00000000 	nop
9d000994:	14400004 	bnez	v0,9d0009a8 <initializeSSD1803A+0x228>
9d000998:	00000000 	nop
9d00099c:	00001025 	move	v0,zero
9d0009a0:	10000069 	b	9d000b48 <initializeSSD1803A+0x3c8>
9d0009a4:	00000000 	nop
    if (!sendCommandSSD1803A(lcdGain)) return 0x00000000;             //Follower Control, set the gain of the bias voltage follower and enable it
9d0009a8:	8fa20030 	lw	v0,48(sp)
9d0009ac:	304200ff 	andi	v0,v0,0xff
9d0009b0:	00402025 	move	a0,v0
9d0009b4:	0f401051 	jal	9d004144 <sendCommandSSD1803A>
9d0009b8:	00000000 	nop
9d0009bc:	14400004 	bnez	v0,9d0009d0 <initializeSSD1803A+0x250>
9d0009c0:	00000000 	nop
9d0009c4:	00001025 	move	v0,zero
9d0009c8:	1000005f 	b	9d000b48 <initializeSSD1803A+0x3c8>
9d0009cc:	00000000 	nop
    if (!sendCommandSSD1803A(0x70)) return 0x00000000;                //Contrast Set, put the contrast back to the default setting
9d0009d0:	24040070 	li	a0,112
9d0009d4:	0f401051 	jal	9d004144 <sendCommandSSD1803A>
9d0009d8:	00000000 	nop
9d0009dc:	14400004 	bnez	v0,9d0009f0 <initializeSSD1803A+0x270>
9d0009e0:	00000000 	nop
9d0009e4:	00001025 	move	v0,zero
9d0009e8:	10000057 	b	9d000b48 <initializeSSD1803A+0x3c8>
9d0009ec:	00000000 	nop

    if (!sendCommandSSD1803A(0x3A)) return 0x00000000;                              //Select the extended instruction registers on the LCD controller
9d0009f0:	2404003a 	li	a0,58
9d0009f4:	0f401051 	jal	9d004144 <sendCommandSSD1803A>
9d0009f8:	00000000 	nop
9d0009fc:	14400004 	bnez	v0,9d000a10 <initializeSSD1803A+0x290>
9d000a00:	00000000 	nop
9d000a04:	00001025 	move	v0,zero
9d000a08:	1000004f 	b	9d000b48 <initializeSSD1803A+0x3c8>
9d000a0c:	00000000 	nop
    statusRegister_SSD1803A = (statusRegister_SSD1803A & 0xFFFFFFFE) | 0x00000002;  //Update the driver status register to match
9d000a10:	8f828030 	lw	v0,-32720(gp)
9d000a14:	7c020804 	ins	v0,zero,0x0,0x2
9d000a18:	34420002 	ori	v0,v0,0x2
9d000a1c:	af828030 	sw	v0,-32720(gp)

    //RE = 1, IS = 0
    buffer = (lines & 0x0000001C) | (lcdBias & 0x00000002);       //Pre-calculate the bits for the next command
9d000a20:	8fa20020 	lw	v0,32(sp)
9d000a24:	3043001c 	andi	v1,v0,0x1c
9d000a28:	8fa2002c 	lw	v0,44(sp)
9d000a2c:	30420002 	andi	v0,v0,0x2
9d000a30:	00621025 	or	v0,v1,v0
9d000a34:	afa20010 	sw	v0,16(sp)
    if (!sendCommandSSD1803A(buffer)) return 0x00000000;          //Double Height/Bias instruction, sets the double height mode
9d000a38:	8fa20010 	lw	v0,16(sp)
9d000a3c:	304200ff 	andi	v0,v0,0xff
9d000a40:	00402025 	move	a0,v0
9d000a44:	0f401051 	jal	9d004144 <sendCommandSSD1803A>
9d000a48:	00000000 	nop
9d000a4c:	14400004 	bnez	v0,9d000a60 <initializeSSD1803A+0x2e0>
9d000a50:	00000000 	nop
9d000a54:	00001025 	move	v0,zero
9d000a58:	1000003b 	b	9d000b48 <initializeSSD1803A+0x3c8>
9d000a5c:	00000000 	nop
    buffer = (buffer & 0x0000000F) << 0x00000006;                 //Shift the contents of the buffer variable over to the left by 7 bits, clearing the most significant bit
9d000a60:	8fa20010 	lw	v0,16(sp)
9d000a64:	00021180 	sll	v0,v0,0x6
9d000a68:	304203c0 	andi	v0,v0,0x3c0
9d000a6c:	afa20010 	sw	v0,16(sp)
    if (!sendCommandSSD1803A(0x09)) return 0x00000000;            //Extended function set, use 5-bit wide characters and disable B/W inversion of the cursor
9d000a70:	24040009 	li	a0,9
9d000a74:	0f401051 	jal	9d004144 <sendCommandSSD1803A>
9d000a78:	00000000 	nop
9d000a7c:	14400004 	bnez	v0,9d000a90 <initializeSSD1803A+0x310>
9d000a80:	00000000 	nop
9d000a84:	00001025 	move	v0,zero
9d000a88:	1000002f 	b	9d000b48 <initializeSSD1803A+0x3c8>
9d000a8c:	00000000 	nop
    buffer = (entryMode & 0x00000004) ? 0x00000002 : 0x00000003;  //Pre-calculate the bits for the next command
9d000a90:	8fa20028 	lw	v0,40(sp)
9d000a94:	30420004 	andi	v0,v0,0x4
9d000a98:	10400004 	beqz	v0,9d000aac <initializeSSD1803A+0x32c>
9d000a9c:	00000000 	nop
9d000aa0:	24020002 	li	v0,2
9d000aa4:	10000002 	b	9d000ab0 <initializeSSD1803A+0x330>
9d000aa8:	00000000 	nop
9d000aac:	24020003 	li	v0,3
9d000ab0:	afa20010 	sw	v0,16(sp)
    if (!sendCommandSSD1803A(buffer)) return 0x00000000;          //Power down mode, put the controller into low-power mode if required
9d000ab4:	8fa20010 	lw	v0,16(sp)
9d000ab8:	304200ff 	andi	v0,v0,0xff
9d000abc:	00402025 	move	a0,v0
9d000ac0:	0f401051 	jal	9d004144 <sendCommandSSD1803A>
9d000ac4:	00000000 	nop
9d000ac8:	14400004 	bnez	v0,9d000adc <initializeSSD1803A+0x35c>
9d000acc:	00000000 	nop
9d000ad0:	00001025 	move	v0,zero
9d000ad4:	1000001c 	b	9d000b48 <initializeSSD1803A+0x3c8>
9d000ad8:	00000000 	nop

    if (!sendCommandSSD1803A(0x38)) return 0x00000000;  //Select the regular registers on the LCD controller
9d000adc:	24040038 	li	a0,56
9d000ae0:	0f401051 	jal	9d004144 <sendCommandSSD1803A>
9d000ae4:	00000000 	nop
9d000ae8:	14400004 	bnez	v0,9d000afc <initializeSSD1803A+0x37c>
9d000aec:	00000000 	nop
9d000af0:	00001025 	move	v0,zero
9d000af4:	10000014 	b	9d000b48 <initializeSSD1803A+0x3c8>
9d000af8:	00000000 	nop
    statusRegister_SSD1803A &= 0xFFFFFFFD;              //Update the driver status register to match
9d000afc:	8f828030 	lw	v0,-32720(gp)
9d000b00:	7c020844 	ins	v0,zero,0x1,0x1
9d000b04:	af828030 	sw	v0,-32720(gp)
    if (lines & 0x00000001)
9d000b08:	8fa20020 	lw	v0,32(sp)
9d000b0c:	30420001 	andi	v0,v0,0x1
9d000b10:	1040000c 	beqz	v0,9d000b44 <initializeSSD1803A+0x3c4>
9d000b14:	00000000 	nop
    {
        if (!sendCommandSSD1803A(0x3C)) return 0x00000000;  //Try to set the DH bit on the controller with the function set instruction
9d000b18:	2404003c 	li	a0,60
9d000b1c:	0f401051 	jal	9d004144 <sendCommandSSD1803A>
9d000b20:	00000000 	nop
9d000b24:	14400004 	bnez	v0,9d000b38 <initializeSSD1803A+0x3b8>
9d000b28:	00000000 	nop
9d000b2c:	00001025 	move	v0,zero
9d000b30:	10000005 	b	9d000b48 <initializeSSD1803A+0x3c8>
9d000b34:	00000000 	nop
        statusRegister_SSD1803A |= 0x00000004;              //Update the driver status register to match
9d000b38:	8f828030 	lw	v0,-32720(gp)
9d000b3c:	34420004 	ori	v0,v0,0x4
9d000b40:	af828030 	sw	v0,-32720(gp)
    }

    return 0xFFFFFFFF;  //Return with all bits set to indicate the initialization procedure succeeded
9d000b44:	2402ffff 	li	v0,-1
}
9d000b48:	8fbf001c 	lw	ra,28(sp)
9d000b4c:	27bd0020 	addiu	sp,sp,32
9d000b50:	03e00008 	jr	ra
9d000b54:	00000000 	nop

Disassembly of section .text.readCalCoeffsDPS368:

9d000b58 <readCalCoeffsDPS368>:
 ***********************/


//Get Calibration Coefficients Function, reads the calibration coefficients from the sensor to use for processing the results
uint32_t readCalCoeffsDPS368()
{
9d000b58:	27bdffd0 	addiu	sp,sp,-48
9d000b5c:	afbf002c 	sw	ra,44(sp)
    uint8_t dataBuffer[0x00000012];  //Create an array of 18 bytes to use as a buffer for reading data from the sensor

    //Verify that the calibration coefficients are ready to be retrieved from the sensor
    *dataBuffer = 0x08;                                                      //Select the MEAS_CFG register on the sensor
9d000b60:	24020008 	li	v0,8
9d000b64:	a3a20014 	sb	v0,20(sp)
    if (!readFromI2C(DPS368_I2C_ADDR, dataBuffer, 0x00000001, 0x00000001));  //Attempt to read the contents of the MEAS_CFG register on the sensor, leave if no response is received
9d000b68:	27a20014 	addiu	v0,sp,20
9d000b6c:	24070001 	li	a3,1
9d000b70:	24060001 	li	a2,1
9d000b74:	00402825 	move	a1,v0
9d000b78:	24040076 	li	a0,118
9d000b7c:	0f4007fc 	jal	9d001ff0 <readFromI2C>
9d000b80:	00000000 	nop

    if (!(*dataBuffer & 0x80)) return 0x00;  //Leave the function if the coefficients aren't available yet
9d000b84:	93a20014 	lbu	v0,20(sp)
9d000b88:	7c021420 	seb	v0,v0
9d000b8c:	04400004 	bltz	v0,9d000ba0 <readCalCoeffsDPS368+0x48>
9d000b90:	00000000 	nop
9d000b94:	00001025 	move	v0,zero
9d000b98:	100000a8 	b	9d000e3c <readCalCoeffsDPS368+0x2e4>
9d000b9c:	00000000 	nop

    //Read the calibration coefficients from the sensor
    *dataBuffer = 0x10;                                                                        //Set the start address of the read sequence to the first byte of the calibration coefficients
9d000ba0:	24020010 	li	v0,16
9d000ba4:	a3a20014 	sb	v0,20(sp)
    if (!readFromI2C(DPS368_I2C_ADDR, dataBuffer, 0x00000012, 0x00000001)) return 0x00000000;  //Read the memory space in which the calibration data lives in from the sensor into the dataBuffer array
9d000ba8:	27a20014 	addiu	v0,sp,20
9d000bac:	24070001 	li	a3,1
9d000bb0:	24060012 	li	a2,18
9d000bb4:	00402825 	move	a1,v0
9d000bb8:	24040076 	li	a0,118
9d000bbc:	0f4007fc 	jal	9d001ff0 <readFromI2C>
9d000bc0:	00000000 	nop
9d000bc4:	14400004 	bnez	v0,9d000bd8 <readCalCoeffsDPS368+0x80>
9d000bc8:	00000000 	nop
9d000bcc:	00001025 	move	v0,zero
9d000bd0:	1000009a 	b	9d000e3c <readCalCoeffsDPS368+0x2e4>
9d000bd4:	00000000 	nop

    uint8_t *arrayPointer = dataBuffer;  //Declare a pointer to the dataBuffer array to use for iterating through each index of the array while extracting the coefficients
9d000bd8:	27a20014 	addiu	v0,sp,20
9d000bdc:	afa20010 	sw	v0,16(sp)

    //Extract the data from the byte array into their respective variables
    dps368Cal_c0 = (*arrayPointer++ << 0x00000004) | ((*arrayPointer & 0xF0) >> 0x00000004);
9d000be0:	8fa20010 	lw	v0,16(sp)
9d000be4:	24430001 	addiu	v1,v0,1
9d000be8:	afa30010 	sw	v1,16(sp)
9d000bec:	90420000 	lbu	v0,0(v0)
9d000bf0:	00021100 	sll	v0,v0,0x4
9d000bf4:	7c021e20 	seh	v1,v0
9d000bf8:	8fa20010 	lw	v0,16(sp)
9d000bfc:	90420000 	lbu	v0,0(v0)
9d000c00:	00021102 	srl	v0,v0,0x4
9d000c04:	304200ff 	andi	v0,v0,0xff
9d000c08:	7c021620 	seh	v0,v0
9d000c0c:	00621025 	or	v0,v1,v0
9d000c10:	7c021620 	seh	v0,v0
9d000c14:	a7828018 	sh	v0,-32744(gp)
    dps368Cal_c1 = ((*arrayPointer++ & 0x0F) << 0x00000008) | (*arrayPointer++);
9d000c18:	8fa20010 	lw	v0,16(sp)
9d000c1c:	24430001 	addiu	v1,v0,1
9d000c20:	afa30010 	sw	v1,16(sp)
9d000c24:	90420000 	lbu	v0,0(v0)
9d000c28:	00021200 	sll	v0,v0,0x8
9d000c2c:	7c021620 	seh	v0,v0
9d000c30:	30420f00 	andi	v0,v0,0xf00
9d000c34:	7c021e20 	seh	v1,v0
9d000c38:	8fa20010 	lw	v0,16(sp)
9d000c3c:	24440001 	addiu	a0,v0,1
9d000c40:	afa40010 	sw	a0,16(sp)
9d000c44:	90420000 	lbu	v0,0(v0)
9d000c48:	7c021620 	seh	v0,v0
9d000c4c:	00621025 	or	v0,v1,v0
9d000c50:	7c021620 	seh	v0,v0
9d000c54:	a782801a 	sh	v0,-32742(gp)
    dps368Cal_c00 = (*arrayPointer++ << 0x0000000C) | (*arrayPointer++ << 0x00000004) | ((*arrayPointer & 0xF0) >> 0x00000004);
9d000c58:	8fa20010 	lw	v0,16(sp)
9d000c5c:	24430001 	addiu	v1,v0,1
9d000c60:	afa30010 	sw	v1,16(sp)
9d000c64:	90420000 	lbu	v0,0(v0)
9d000c68:	00021b00 	sll	v1,v0,0xc
9d000c6c:	8fa20010 	lw	v0,16(sp)
9d000c70:	24440001 	addiu	a0,v0,1
9d000c74:	afa40010 	sw	a0,16(sp)
9d000c78:	90420000 	lbu	v0,0(v0)
9d000c7c:	00021100 	sll	v0,v0,0x4
9d000c80:	00621025 	or	v0,v1,v0
9d000c84:	8fa30010 	lw	v1,16(sp)
9d000c88:	90630000 	lbu	v1,0(v1)
9d000c8c:	00031902 	srl	v1,v1,0x4
9d000c90:	306300ff 	andi	v1,v1,0xff
9d000c94:	00431025 	or	v0,v0,v1
9d000c98:	af82801c 	sw	v0,-32740(gp)
    dps368Cal_c10 = ((*arrayPointer++ & 0x0F) << 0x00000010) | (*arrayPointer++ << 0x00000008) | (*arrayPointer++);
9d000c9c:	8fa20010 	lw	v0,16(sp)
9d000ca0:	24430001 	addiu	v1,v0,1
9d000ca4:	afa30010 	sw	v1,16(sp)
9d000ca8:	90420000 	lbu	v0,0(v0)
9d000cac:	00021c00 	sll	v1,v0,0x10
9d000cb0:	3c02000f 	lui	v0,0xf
9d000cb4:	00621824 	and	v1,v1,v0
9d000cb8:	8fa20010 	lw	v0,16(sp)
9d000cbc:	24440001 	addiu	a0,v0,1
9d000cc0:	afa40010 	sw	a0,16(sp)
9d000cc4:	90420000 	lbu	v0,0(v0)
9d000cc8:	00021200 	sll	v0,v0,0x8
9d000ccc:	00621825 	or	v1,v1,v0
9d000cd0:	8fa20010 	lw	v0,16(sp)
9d000cd4:	24440001 	addiu	a0,v0,1
9d000cd8:	afa40010 	sw	a0,16(sp)
9d000cdc:	90420000 	lbu	v0,0(v0)
9d000ce0:	00621025 	or	v0,v1,v0
9d000ce4:	af828020 	sw	v0,-32736(gp)
    dps368Cal_c01 = (*arrayPointer++ << 0x00000008) | (*arrayPointer++);
9d000ce8:	8fa20010 	lw	v0,16(sp)
9d000cec:	24430001 	addiu	v1,v0,1
9d000cf0:	afa30010 	sw	v1,16(sp)
9d000cf4:	90420000 	lbu	v0,0(v0)
9d000cf8:	00021200 	sll	v0,v0,0x8
9d000cfc:	7c021e20 	seh	v1,v0
9d000d00:	8fa20010 	lw	v0,16(sp)
9d000d04:	24440001 	addiu	a0,v0,1
9d000d08:	afa40010 	sw	a0,16(sp)
9d000d0c:	90420000 	lbu	v0,0(v0)
9d000d10:	7c021620 	seh	v0,v0
9d000d14:	00621025 	or	v0,v1,v0
9d000d18:	7c021620 	seh	v0,v0
9d000d1c:	a7828024 	sh	v0,-32732(gp)
    dps368Cal_c11 = (*arrayPointer++ << 0x00000008) | (*arrayPointer++);
9d000d20:	8fa20010 	lw	v0,16(sp)
9d000d24:	24430001 	addiu	v1,v0,1
9d000d28:	afa30010 	sw	v1,16(sp)
9d000d2c:	90420000 	lbu	v0,0(v0)
9d000d30:	00021200 	sll	v0,v0,0x8
9d000d34:	7c021e20 	seh	v1,v0
9d000d38:	8fa20010 	lw	v0,16(sp)
9d000d3c:	24440001 	addiu	a0,v0,1
9d000d40:	afa40010 	sw	a0,16(sp)
9d000d44:	90420000 	lbu	v0,0(v0)
9d000d48:	7c021620 	seh	v0,v0
9d000d4c:	00621025 	or	v0,v1,v0
9d000d50:	7c021620 	seh	v0,v0
9d000d54:	a7828026 	sh	v0,-32730(gp)
    dps368Cal_c20 = (*arrayPointer++ << 0x00000008) | (*arrayPointer++);
9d000d58:	8fa20010 	lw	v0,16(sp)
9d000d5c:	24430001 	addiu	v1,v0,1
9d000d60:	afa30010 	sw	v1,16(sp)
9d000d64:	90420000 	lbu	v0,0(v0)
9d000d68:	00021200 	sll	v0,v0,0x8
9d000d6c:	7c021e20 	seh	v1,v0
9d000d70:	8fa20010 	lw	v0,16(sp)
9d000d74:	24440001 	addiu	a0,v0,1
9d000d78:	afa40010 	sw	a0,16(sp)
9d000d7c:	90420000 	lbu	v0,0(v0)
9d000d80:	7c021620 	seh	v0,v0
9d000d84:	00621025 	or	v0,v1,v0
9d000d88:	7c021620 	seh	v0,v0
9d000d8c:	a7828028 	sh	v0,-32728(gp)
    dps368Cal_c21 = (*arrayPointer++ << 0x00000008) | (*arrayPointer++);
9d000d90:	8fa20010 	lw	v0,16(sp)
9d000d94:	24430001 	addiu	v1,v0,1
9d000d98:	afa30010 	sw	v1,16(sp)
9d000d9c:	90420000 	lbu	v0,0(v0)
9d000da0:	00021200 	sll	v0,v0,0x8
9d000da4:	7c021e20 	seh	v1,v0
9d000da8:	8fa20010 	lw	v0,16(sp)
9d000dac:	24440001 	addiu	a0,v0,1
9d000db0:	afa40010 	sw	a0,16(sp)
9d000db4:	90420000 	lbu	v0,0(v0)
9d000db8:	7c021620 	seh	v0,v0
9d000dbc:	00621025 	or	v0,v1,v0
9d000dc0:	7c021620 	seh	v0,v0
9d000dc4:	a782802a 	sh	v0,-32726(gp)
    dps368Cal_c30 = (*arrayPointer++ << 0x00000008) | (*arrayPointer);
9d000dc8:	8fa20010 	lw	v0,16(sp)
9d000dcc:	24430001 	addiu	v1,v0,1
9d000dd0:	afa30010 	sw	v1,16(sp)
9d000dd4:	90420000 	lbu	v0,0(v0)
9d000dd8:	00021200 	sll	v0,v0,0x8
9d000ddc:	7c021e20 	seh	v1,v0
9d000de0:	8fa20010 	lw	v0,16(sp)
9d000de4:	90420000 	lbu	v0,0(v0)
9d000de8:	7c021620 	seh	v0,v0
9d000dec:	00621025 	or	v0,v1,v0
9d000df0:	7c021620 	seh	v0,v0
9d000df4:	a782802c 	sh	v0,-32724(gp)

    //Correct the sign of the values stored in the variables when required
    forceSign16(&dps368Cal_c0, 0x0000000C);   //Apply 12-bit 2's complements to the number to correct the sign
9d000df8:	2405000c 	li	a1,12
9d000dfc:	27848018 	addiu	a0,gp,-32744
9d000e00:	0f400ef6 	jal	9d003bd8 <forceSign16>
9d000e04:	00000000 	nop
    forceSign16(&dps368Cal_c1, 0x0000000C);   //Apply 12-bit 2's complements to the number to correct the sign
9d000e08:	2405000c 	li	a1,12
9d000e0c:	2784801a 	addiu	a0,gp,-32742
9d000e10:	0f400ef6 	jal	9d003bd8 <forceSign16>
9d000e14:	00000000 	nop
    forceSign32(&dps368Cal_c00, 0x00000014);  //Apply 20-bit 2's complements to the number to correct the sign
9d000e18:	24050014 	li	a1,20
9d000e1c:	2784801c 	addiu	a0,gp,-32740
9d000e20:	0f400f32 	jal	9d003cc8 <forceSign32>
9d000e24:	00000000 	nop
    forceSign32(&dps368Cal_c10, 0x00000014);  //Apply 20-bit 2's complements to the number to correct the sign
9d000e28:	24050014 	li	a1,20
9d000e2c:	27848020 	addiu	a0,gp,-32736
9d000e30:	0f400f32 	jal	9d003cc8 <forceSign32>
9d000e34:	00000000 	nop

    return 0xFFFFFFFF;  //Return a non-negative value to indicate the coefficients were read successfully
9d000e38:	2402ffff 	li	v0,-1
}
9d000e3c:	8fbf002c 	lw	ra,44(sp)
9d000e40:	27bd0030 	addiu	sp,sp,48
9d000e44:	03e00008 	jr	ra
9d000e48:	00000000 	nop

Disassembly of section .text.constructMeasurementLog:

9d000e4c <constructMeasurementLog>:
 ****************************/


//Construct Measurement Log Function, constructs a new string to log the provided measurement results
uint32_t constructMeasurementLog(uint8_t *stringBuffer, const float *temperature, const float *humidity, const float *pressure)
{
9d000e4c:	27bdffe0 	addiu	sp,sp,-32
9d000e50:	afbf001c 	sw	ra,28(sp)
9d000e54:	afa40020 	sw	a0,32(sp)
9d000e58:	afa50024 	sw	a1,36(sp)
9d000e5c:	afa60028 	sw	a2,40(sp)
9d000e60:	afa7002c 	sw	a3,44(sp)
    int32_t dataBuffer;     //Reserve a new 32-bit variable in RAM to use for doing number manipulation while creating the measurement report
    uint32_t stringLength;  //Create a new variable to use for tracking the length of the string being constructed

    memcpy(stringBuffer, logConstants_measurementReport, 0x00000020);  //Copy the first part of the measurement report string into the string buffer
9d000e64:	24060020 	li	a2,32
9d000e68:	3c029d00 	lui	v0,0x9d00
9d000e6c:	24452f04 	addiu	a1,v0,12036
9d000e70:	8fa40020 	lw	a0,32(sp)
9d000e74:	0f400920 	jal	9d002480 <memcpy>
9d000e78:	00000000 	nop
    stringLength = 0x00000020;                                         //Set the starting length of the string to 32 characters
9d000e7c:	24020020 	li	v0,32
9d000e80:	afa20014 	sw	v0,20(sp)
    dataBuffer = (*temperature * 100.0F);                              //Multiply the most recent temperature measurement by 100, then store it in dataBuffer with no decimal
9d000e84:	8fa20024 	lw	v0,36(sp)
9d000e88:	8c430000 	lw	v1,0(v0)
9d000e8c:	3c029d00 	lui	v0,0x9d00
9d000e90:	8c454344 	lw	a1,17220(v0)
9d000e94:	00602025 	move	a0,v1
9d000e98:	0f40078d 	jal	9d001e34 <__mulsf3>
9d000e9c:	00000000 	nop
9d000ea0:	00402025 	move	a0,v0
9d000ea4:	0f400e98 	jal	9d003a60 <__fixsfsi>
9d000ea8:	00000000 	nop
9d000eac:	afa20010 	sw	v0,16(sp)

    //Handle scenarios where the value of dataBuffer is actually a negative
    if (dataBuffer < 0x00000000)
9d000eb0:	8fa20010 	lw	v0,16(sp)
9d000eb4:	0441000b 	bgez	v0,9d000ee4 <constructMeasurementLog+0x98>
9d000eb8:	00000000 	nop
    {
        stringBuffer[stringLength++] = 0x2D;  //Add a minus character to the string buffer to indicate the negative number
9d000ebc:	8fa20014 	lw	v0,20(sp)
9d000ec0:	24430001 	addiu	v1,v0,1
9d000ec4:	afa30014 	sw	v1,20(sp)
9d000ec8:	8fa30020 	lw	v1,32(sp)
9d000ecc:	00621021 	addu	v0,v1,v0
9d000ed0:	2403002d 	li	v1,45
9d000ed4:	a0430000 	sb	v1,0(v0)
        dataBuffer = -dataBuffer;             //Force the contents of dataBuffer back into the positives again
9d000ed8:	8fa20010 	lw	v0,16(sp)
9d000edc:	00021023 	negu	v0,v0
9d000ee0:	afa20010 	sw	v0,16(sp)
    }

    uintToDecString(dataBuffer / 0x00000064, stringBuffer + stringLength);  //Convert the whole number portion of the temperature into a string and put it into the string buffer
9d000ee4:	8fa20010 	lw	v0,16(sp)
9d000ee8:	3c0351eb 	lui	v1,0x51eb
9d000eec:	3463851f 	ori	v1,v1,0x851f
9d000ef0:	00430018 	mult	v0,v1
9d000ef4:	00001810 	mfhi	v1
9d000ef8:	00031943 	sra	v1,v1,0x5
9d000efc:	000217c3 	sra	v0,v0,0x1f
9d000f00:	00621023 	subu	v0,v1,v0
9d000f04:	00402025 	move	a0,v0
9d000f08:	8fa30020 	lw	v1,32(sp)
9d000f0c:	8fa20014 	lw	v0,20(sp)
9d000f10:	00621021 	addu	v0,v1,v0
9d000f14:	00402825 	move	a1,v0
9d000f18:	0f400b07 	jal	9d002c1c <uintToDecString>
9d000f1c:	00000000 	nop
    stringLength = strlen(stringBuffer);                                    //Find the new length of the string with the whole number added into it
9d000f20:	8fa40020 	lw	a0,32(sp)
9d000f24:	0f40097a 	jal	9d0025e8 <strlen>
9d000f28:	00000000 	nop
9d000f2c:	afa20014 	sw	v0,20(sp)
    dataBuffer %= 0x00000064;                                               //Modulo the contents of dataBuffer by 100, storing the result back into the dataBuffer variable
9d000f30:	8fa30010 	lw	v1,16(sp)
9d000f34:	3c0251eb 	lui	v0,0x51eb
9d000f38:	3442851f 	ori	v0,v0,0x851f
9d000f3c:	00620018 	mult	v1,v0
9d000f40:	00001010 	mfhi	v0
9d000f44:	00022143 	sra	a0,v0,0x5
9d000f48:	000317c3 	sra	v0,v1,0x1f
9d000f4c:	00822023 	subu	a0,a0,v0
9d000f50:	00801025 	move	v0,a0
9d000f54:	00021040 	sll	v0,v0,0x1
9d000f58:	00441021 	addu	v0,v0,a0
9d000f5c:	000210c0 	sll	v0,v0,0x3
9d000f60:	00441021 	addu	v0,v0,a0
9d000f64:	00021080 	sll	v0,v0,0x2
9d000f68:	00621023 	subu	v0,v1,v0
9d000f6c:	afa20010 	sw	v0,16(sp)

    //Only add the decimal point and digits when actually required, otherwise don't bother
    if (dataBuffer)
9d000f70:	8fa20010 	lw	v0,16(sp)
9d000f74:	10400022 	beqz	v0,9d001000 <constructMeasurementLog+0x1b4>
9d000f78:	00000000 	nop
    {
        stringBuffer[stringLength++] = 0x2E;                                    //Place the decimal point right after the whole number portion
9d000f7c:	8fa20014 	lw	v0,20(sp)
9d000f80:	24430001 	addiu	v1,v0,1
9d000f84:	afa30014 	sw	v1,20(sp)
9d000f88:	8fa30020 	lw	v1,32(sp)
9d000f8c:	00621021 	addu	v0,v1,v0
9d000f90:	2403002e 	li	v1,46
9d000f94:	a0430000 	sb	v1,0(v0)
        uintToDecString(dataBuffer % 0x00000064, stringBuffer + stringLength);  //Convert the decimal portion of the temperature into a string and put it into the string buffer
9d000f98:	8fa40010 	lw	a0,16(sp)
9d000f9c:	3c0251eb 	lui	v0,0x51eb
9d000fa0:	3442851f 	ori	v0,v0,0x851f
9d000fa4:	00820018 	mult	a0,v0
9d000fa8:	00001010 	mfhi	v0
9d000fac:	00021943 	sra	v1,v0,0x5
9d000fb0:	000417c3 	sra	v0,a0,0x1f
9d000fb4:	00621823 	subu	v1,v1,v0
9d000fb8:	00601025 	move	v0,v1
9d000fbc:	00021040 	sll	v0,v0,0x1
9d000fc0:	00431021 	addu	v0,v0,v1
9d000fc4:	000210c0 	sll	v0,v0,0x3
9d000fc8:	00431021 	addu	v0,v0,v1
9d000fcc:	00021080 	sll	v0,v0,0x2
9d000fd0:	00821823 	subu	v1,a0,v0
9d000fd4:	00602025 	move	a0,v1
9d000fd8:	8fa30020 	lw	v1,32(sp)
9d000fdc:	8fa20014 	lw	v0,20(sp)
9d000fe0:	00621021 	addu	v0,v1,v0
9d000fe4:	00402825 	move	a1,v0
9d000fe8:	0f400b07 	jal	9d002c1c <uintToDecString>
9d000fec:	00000000 	nop
        stringLength = strlen(stringBuffer);                                    //Find the new length of the string with the decimal places added into it
9d000ff0:	8fa40020 	lw	a0,32(sp)
9d000ff4:	0f40097a 	jal	9d0025e8 <strlen>
9d000ff8:	00000000 	nop
9d000ffc:	afa20014 	sw	v0,20(sp)
    }

    memcpy(stringBuffer + stringLength, logConstants_measurementReport + 0x00000020, 0x00000013);  //Load the next segment of the report string into the buffer
9d001000:	8fa30020 	lw	v1,32(sp)
9d001004:	8fa20014 	lw	v0,20(sp)
9d001008:	00621821 	addu	v1,v1,v0
9d00100c:	3c029d00 	lui	v0,0x9d00
9d001010:	24422f24 	addiu	v0,v0,12068
9d001014:	24060013 	li	a2,19
9d001018:	00402825 	move	a1,v0
9d00101c:	00602025 	move	a0,v1
9d001020:	0f400920 	jal	9d002480 <memcpy>
9d001024:	00000000 	nop
    stringLength += 0x00000013;                                                                    //Add the appropriate amount to stringLength to compensate for the added characters
9d001028:	8fa20014 	lw	v0,20(sp)
9d00102c:	24420013 	addiu	v0,v0,19
9d001030:	afa20014 	sw	v0,20(sp)
    uintToDecString((uint32_t) *humidity, stringBuffer + stringLength);                            //Convert the measured RH into it's string equivalent and append it to the string buffer
9d001034:	8fa20028 	lw	v0,40(sp)
9d001038:	8c420000 	lw	v0,0(v0)
9d00103c:	00402025 	move	a0,v0
9d001040:	0f400ed7 	jal	9d003b5c <__fixunssfsi>
9d001044:	00000000 	nop
9d001048:	00402025 	move	a0,v0
9d00104c:	8fa30020 	lw	v1,32(sp)
9d001050:	8fa20014 	lw	v0,20(sp)
9d001054:	00621021 	addu	v0,v1,v0
9d001058:	00402825 	move	a1,v0
9d00105c:	0f400b07 	jal	9d002c1c <uintToDecString>
9d001060:	00000000 	nop
    stringLength = strlen(stringBuffer);                                                           //Find the new length of the string with the humidity measurement added in
9d001064:	8fa40020 	lw	a0,32(sp)
9d001068:	0f40097a 	jal	9d0025e8 <strlen>
9d00106c:	00000000 	nop
9d001070:	afa20014 	sw	v0,20(sp)

    memcpy(stringBuffer + stringLength, logConstants_measurementReport + 0x00000033, 0x00000013);  //Load the next segment of the report string into the buffer
9d001074:	8fa30020 	lw	v1,32(sp)
9d001078:	8fa20014 	lw	v0,20(sp)
9d00107c:	00621821 	addu	v1,v1,v0
9d001080:	3c029d00 	lui	v0,0x9d00
9d001084:	24422f37 	addiu	v0,v0,12087
9d001088:	24060013 	li	a2,19
9d00108c:	00402825 	move	a1,v0
9d001090:	00602025 	move	a0,v1
9d001094:	0f400920 	jal	9d002480 <memcpy>
9d001098:	00000000 	nop
    stringLength += 0x00000013;                                                                    //Add the appropriate amount to stringLength to compensate for the added characters
9d00109c:	8fa20014 	lw	v0,20(sp)
9d0010a0:	24420013 	addiu	v0,v0,19
9d0010a4:	afa20014 	sw	v0,20(sp)
    uintToDecString((uint32_t) *pressure, stringBuffer + stringLength);                            //Convert the measured pressure into a string and append it to the string buffer
9d0010a8:	8fa2002c 	lw	v0,44(sp)
9d0010ac:	8c420000 	lw	v0,0(v0)
9d0010b0:	00402025 	move	a0,v0
9d0010b4:	0f400ed7 	jal	9d003b5c <__fixunssfsi>
9d0010b8:	00000000 	nop
9d0010bc:	00402025 	move	a0,v0
9d0010c0:	8fa30020 	lw	v1,32(sp)
9d0010c4:	8fa20014 	lw	v0,20(sp)
9d0010c8:	00621021 	addu	v0,v1,v0
9d0010cc:	00402825 	move	a1,v0
9d0010d0:	0f400b07 	jal	9d002c1c <uintToDecString>
9d0010d4:	00000000 	nop
    stringLength = strlen(stringBuffer);                                                           //Find the new length of the string with the barometric pressure value added
9d0010d8:	8fa40020 	lw	a0,32(sp)
9d0010dc:	0f40097a 	jal	9d0025e8 <strlen>
9d0010e0:	00000000 	nop
9d0010e4:	afa20014 	sw	v0,20(sp)

    memcpy(stringBuffer + stringLength, logConstants_measurementReport + 0x00000046, 0x00000004);  //Add the final part of the report string into the buffer
9d0010e8:	8fa30020 	lw	v1,32(sp)
9d0010ec:	8fa20014 	lw	v0,20(sp)
9d0010f0:	00621821 	addu	v1,v1,v0
9d0010f4:	3c029d00 	lui	v0,0x9d00
9d0010f8:	24422f4a 	addiu	v0,v0,12106
9d0010fc:	24060004 	li	a2,4
9d001100:	00402825 	move	a1,v0
9d001104:	00602025 	move	a0,v1
9d001108:	0f400920 	jal	9d002480 <memcpy>
9d00110c:	00000000 	nop
    stringLength += 0x00000004;                                                                    //Add the appropriate amount to stringLength to compensate for the added characters
9d001110:	8fa20014 	lw	v0,20(sp)
9d001114:	24420004 	addiu	v0,v0,4
9d001118:	afa20014 	sw	v0,20(sp)

    return stringLength;  //Leave the function returning the final length of the constructed string
9d00111c:	8fa20014 	lw	v0,20(sp)
}
9d001120:	8fbf001c 	lw	ra,28(sp)
9d001124:	27bd0020 	addiu	sp,sp,32
9d001128:	03e00008 	jr	ra
9d00112c:	00000000 	nop

Disassembly of section .text.fpsubadd:

9d001130 <__subsf3>:
9d001130:	3c018000 00a12826                       ...<&(..

9d001138 <__addsf3>:
9d001138:	00044dc2 312900ff 00055dc2 316b00ff     .M....)1.]....k1
9d001148:	3c078000 00044200 01074025 00055200     ...<.B..%@...R..
9d001158:	01475025 252dffff 2da100fe 10200061     %PG...-%...-a. .
9d001168:	00000000                                ....

9d00116c <Blab1>:
9d00116c:	256dffff 	addiu	t5,t3,-1
9d001170:	2da100fe 	sltiu	at,t5,254
9d001174:	10200077 	beqz	at,9d001354 <BspecB>
9d001178:	00000000 	nop

9d00117c <Blab2>:
9d00117c:	012b6023 	subu	t4,t1,t3
9d001180:	0580000d 	bltz	t4,9d0011b8 <i1>
9d001184:	00000000 	nop
9d001188:	29810020 	slti	at,t4,32
9d00118c:	14200003 	bnez	at,9d00119c <i2>
9d001190:	00000000 	nop
9d001194:	10000015 	b	9d0011ec <e1>
9d001198:	240a0002 	li	t2,2

9d00119c <i2>:
9d00119c:	000a3025 	or	a2,zero,t2
9d0011a0:	018a5006 	srlv	t2,t2,t4
9d0011a4:	018a6804 	sllv	t5,t2,t4
9d0011a8:	11a60010 	beq	t5,a2,9d0011ec <e1>
9d0011ac:	00000000 	nop
9d0011b0:	1000000e 	b	9d0011ec <e1>
9d0011b4:	354a0002 	ori	t2,t2,0x2

9d0011b8 <i1>:
9d0011b8:	000b4825 	or	t1,zero,t3
9d0011bc:	000c6023 	negu	t4,t4
9d0011c0:	29810020 	slti	at,t4,32
9d0011c4:	14200003 	bnez	at,9d0011d4 <i4>
9d0011c8:	00000000 	nop
9d0011cc:	10000007 	b	9d0011ec <e1>
9d0011d0:	24080002 	li	t0,2

9d0011d4 <i4>:
9d0011d4:	00083025 	or	a2,zero,t0
9d0011d8:	01884006 	srlv	t0,t0,t4
9d0011dc:	01886804 	sllv	t5,t0,t4
9d0011e0:	11a60002 	beq	t5,a2,9d0011ec <e1>
9d0011e4:	00000000 	nop
9d0011e8:	35080002 	ori	t0,t0,0x2

9d0011ec <e1>:
9d0011ec:	00876024 	and	t4,a0,a3
9d0011f0:	01856826 	xor	t5,t4,a1
9d0011f4:	05a00010 	bltz	t5,9d001238 <Bsub1>
9d0011f8:	00000000 	nop
9d0011fc:	010a4021 	addu	t0,t0,t2
9d001200:	010a682b 	sltu	t5,t0,t2
9d001204:	11a00017 	beqz	t5,9d001264 <Bres>
9d001208:	00000000 	nop
9d00120c:	310d0001 	andi	t5,t0,0x1
9d001210:	11a00002 	beqz	t5,9d00121c <i7>
9d001214:	00000000 	nop
9d001218:	35080002 	ori	t0,t0,0x2

9d00121c <i7>:
9d00121c:	00084042 	srl	t0,t0,0x1
9d001220:	25290001 	addiu	t1,t1,1
9d001224:	240100ff 	li	at,255
9d001228:	1521000e 	bne	t1,at,9d001264 <Bres>
9d00122c:	00000000 	nop
9d001230:	1000000c 	b	9d001264 <Bres>
9d001234:	24080000 	li	t0,0

9d001238 <Bsub1>:
9d001238:	010a682b 	sltu	t5,t0,t2
9d00123c:	11a00004 	beqz	t5,9d001250 <i9>
9d001240:	010a4023 	subu	t0,t0,t2
9d001244:	00084023 	negu	t0,t0
9d001248:	10000003 	b	9d001258 <e9>
9d00124c:	01876026 	xor	t4,t4,a3

9d001250 <i9>:
9d001250:	11000050 	beqz	t0,9d001394 <Bzer>
9d001254:	00000000 	nop

9d001258 <e9>:
9d001258:	71063020 	clz	a2,t0
9d00125c:	01264823 	subu	t1,t1,a2
9d001260:	00c84004 	sllv	t0,t0,a2

9d001264 <Bres>:
9d001264:	1920000e 	blez	t1,9d0012a0 <Bund>
9d001268:	00000000 	nop

9d00126c <Blab12>:
9d00126c:	25080080 	addiu	t0,t0,128
9d001270:	2d0d0080 	sltiu	t5,t0,128
9d001274:	012d4821 	addu	t1,t1,t5
9d001278:	00086a02 	srl	t5,t0,0x8
9d00127c:	31ad0001 	andi	t5,t5,0x1
9d001280:	010d4023 	subu	t0,t0,t5
9d001284:	00084040 	sll	t0,t0,0x1
9d001288:	00084242 	srl	t0,t0,0x9
9d00128c:	00096dc0 	sll	t5,t1,0x17
9d001290:	010d4025 	or	t0,t0,t5
9d001294:	010c1025 	or	v0,t0,t4

9d001298 <B999>:
9d001298:	03e00008 	jr	ra
9d00129c:	00000000 	nop

9d0012a0 <Bund>:
9d0012a0:	24060001 	li	a2,1
9d0012a4:	00c93023 	subu	a2,a2,t1
9d0012a8:	2cc10020 	sltiu	at,a2,32
9d0012ac:	10200039 	beqz	at,9d001394 <Bzer>
9d0012b0:	00000000 	nop
9d0012b4:	3c018000 	lui	at,0x8000
9d0012b8:	01014025 	or	t0,t0,at
9d0012bc:	240d0020 	li	t5,32
9d0012c0:	01a66823 	subu	t5,t5,a2
9d0012c4:	01a84804 	sllv	t1,t0,t5
9d0012c8:	11200002 	beqz	t1,9d0012d4 <i10>
9d0012cc:	00c84006 	srlv	t0,t0,a2
9d0012d0:	35080001 	ori	t0,t0,0x1

9d0012d4 <i10>:
9d0012d4:	24090000 	li	t1,0
9d0012d8:	250d0080 	addiu	t5,t0,128
9d0012dc:	05a1ffe3 	bgez	t5,9d00126c <Blab12>
9d0012e0:	00000000 	nop
9d0012e4:	1000ffe1 	b	9d00126c <Blab12>
9d0012e8:	24090001 	li	t1,1

9d0012ec <BspecA>:
9d0012ec:	1520000e 	bnez	t1,9d001328 <i12>
9d0012f0:	00000000 	nop
9d0012f4:	01084021 	addu	t0,t0,t0
9d0012f8:	11000005 	beqz	t0,9d001310 <i13>
9d0012fc:	00000000 	nop
9d001300:	710c6020 	clz	t4,t0
9d001304:	012c4823 	subu	t1,t1,t4
9d001308:	1000ff98 	b	9d00116c <Blab1>
9d00130c:	01884004 	sllv	t0,t0,t4

9d001310 <i13>:
9d001310:	240100ff 	li	at,255
9d001314:	1161000f 	beq	t3,at,9d001354 <BspecB>
9d001318:	00000000 	nop
9d00131c:	3c018000 	lui	at,0x8000
9d001320:	14a10018 	bne	a1,at,9d001384 <BretB>
9d001324:	00000000 	nop

9d001328 <i12>:
9d001328:	01086821 	addu	t5,t0,t0
9d00132c:	15a0001b 	bnez	t5,9d00139c <Bnan>
9d001330:	00000000 	nop
9d001334:	240100ff 	li	at,255
9d001338:	15610014 	bne	t3,at,9d00138c <BretA>
9d00133c:	00000000 	nop
9d001340:	00856826 	xor	t5,a0,a1
9d001344:	05a00015 	bltz	t5,9d00139c <Bnan>
9d001348:	00000000 	nop
9d00134c:	1000000d 	b	9d001384 <BretB>
9d001350:	00000000 	nop

9d001354 <BspecB>:
9d001354:	15600008 	bnez	t3,9d001378 <i15>
9d001358:	00000000 	nop
9d00135c:	014a5021 	addu	t2,t2,t2
9d001360:	1140000a 	beqz	t2,9d00138c <BretA>
9d001364:	00000000 	nop
9d001368:	714c6020 	clz	t4,t2
9d00136c:	016c5823 	subu	t3,t3,t4
9d001370:	1000ff82 	b	9d00117c <Blab2>
9d001374:	018a5004 	sllv	t2,t2,t4

9d001378 <i15>:
9d001378:	014a6821 	addu	t5,t2,t2
9d00137c:	15a00007 	bnez	t5,9d00139c <Bnan>
9d001380:	00000000 	nop

9d001384 <BretB>:
9d001384:	1000ffc4 	b	9d001298 <B999>
9d001388:	00051025 	or	v0,zero,a1

9d00138c <BretA>:
9d00138c:	1000ffc2 	b	9d001298 <B999>
9d001390:	00041025 	or	v0,zero,a0

9d001394 <Bzer>:
9d001394:	1000ffc0 	b	9d001298 <B999>
9d001398:	24020000 	li	v0,0

9d00139c <Bnan>:
9d00139c:	1000ffbe 	b	9d001298 <B999>
9d0013a0:	3c02ffc0 	lui	v0,0xffc0
9d0013a4:	00000000 	nop

Disassembly of section .thread_handlers:

9d0013a8 <sensorDoMeasurement>:
 *  Sensor Thread  *
 *******************/

//Do Measurements Function, performs the data collection routine required to obtain new sensor measurements
void sensorDoMeasurement()
{
9d0013a8:	27bdffe0 	addiu	sp,sp,-32
9d0013ac:	afbf001c 	sw	ra,28(sp)
    uint32_t resultBuffer[0x00000002] = {0x000000FF, 0x00000000};  //Create an array of 2 32-bit unsigned integers to use for caching the results obtained from the sensors
9d0013b0:	240200ff 	li	v0,255
9d0013b4:	afa20010 	sw	v0,16(sp)
9d0013b8:	afa00014 	sw	zero,20(sp)

    requestMeasurementSHT4X(HIGH_PRECISION_NO_HEATER);  //Ask the SHT4x sensor to start a new temperature and humidity measurement
9d0013bc:	240400fd 	li	a0,253
9d0013c0:	0f401080 	jal	9d004200 <requestMeasurementSHT4X>
9d0013c4:	00000000 	nop
    setModeDPS368(CONT_BOTH);                           //Start background measurements of both pressure and temperature on the DPS368 sensor
9d0013c8:	24040007 	li	a0,7
9d0013cc:	0f400fe2 	jal	9d003f88 <setModeDPS368>
9d0013d0:	00000000 	nop

    while (resultBuffer[0x00000000]--);  //Wait a little bit before polling for measurement results
9d0013d4:	00000000 	nop
9d0013d8:	8fa20010 	lw	v0,16(sp)
9d0013dc:	2443ffff 	addiu	v1,v0,-1
9d0013e0:	afa30010 	sw	v1,16(sp)
9d0013e4:	1440fffc 	bnez	v0,9d0013d8 <sensorDoMeasurement+0x30>
9d0013e8:	00000000 	nop

    //Obtain and calculate the barometric pressure measurement
    while (getResultStatusDPS368() != BOTH_READY);                                              //Proceed only if both temperature and pressure readings are available from the DPS368
9d0013ec:	00000000 	nop
9d0013f0:	0f400fb6 	jal	9d003ed8 <getResultStatusDPS368>
9d0013f4:	00000000 	nop
9d0013f8:	00401825 	move	v1,v0
9d0013fc:	24020003 	li	v0,3
9d001400:	1462fffb 	bne	v1,v0,9d0013f0 <sensorDoMeasurement+0x48>
9d001404:	00000000 	nop
    setModeDPS368(IDLE);                                                                        //Put the DPS368 sensor back into IDLE mode to save power
9d001408:	00002025 	move	a0,zero
9d00140c:	0f400fe2 	jal	9d003f88 <setModeDPS368>
9d001410:	00000000 	nop
    getResultsFromFifoDPS368(resultBuffer, 0x00000002);                                         //Read both the temperature and pressure data from the sensor into resultBuffer
9d001414:	24050002 	li	a1,2
9d001418:	27a20010 	addiu	v0,sp,16
9d00141c:	00402025 	move	a0,v0
9d001420:	0f401073 	jal	9d0041cc <getResultsFromFifoDPS368>
9d001424:	00000000 	nop
    mostRecentPres = convertToPressureFromDPS368(*resultBuffer, *(resultBuffer + 0x00000001));  //Convert the raw sensor data into the compensated barometric pressure in Pascal
9d001428:	8fa20010 	lw	v0,16(sp)
9d00142c:	8fa30014 	lw	v1,20(sp)
9d001430:	00602825 	move	a1,v1
9d001434:	00402025 	move	a0,v0
9d001438:	0f400610 	jal	9d001840 <convertToPressureFromDPS368>
9d00143c:	00000000 	nop
9d001440:	af828048 	sw	v0,-32696(gp)

    //Obtain and calculate the temperature and relative humidity measurements
    while (!getResultsSHT4X((uint16_t *) resultBuffer, (uint16_t *) (resultBuffer + 0x00000001)));  //Poll the SHT4x for results, storing them in the resultBuffer array
9d001444:	00000000 	nop
9d001448:	27a20014 	addiu	v0,sp,20
9d00144c:	00402825 	move	a1,v0
9d001450:	27a20010 	addiu	v0,sp,16
9d001454:	00402025 	move	a0,v0
9d001458:	0f400cad 	jal	9d0032b4 <getResultsSHT4X>
9d00145c:	00000000 	nop
9d001460:	1040fff9 	beqz	v0,9d001448 <sensorDoMeasurement+0xa0>
9d001464:	00000000 	nop
    mostRecentTemp = convertToTempCFromSHT4X((uint16_t *) resultBuffer);                            //Convert the raw temperature data into it's compensated form in Celsius
9d001468:	27a20010 	addiu	v0,sp,16
9d00146c:	00402025 	move	a0,v0
9d001470:	0f400f14 	jal	9d003c50 <convertToTempCFromSHT4X>
9d001474:	00000000 	nop
9d001478:	af828040 	sw	v0,-32704(gp)
    mostRecentRH = convertToRHFromSHT4X((uint16_t *) (resultBuffer + 0x00000001));                  //Convert the raw humidity data into it's compensated form as a percentage
9d00147c:	27a20014 	addiu	v0,sp,20
9d001480:	00402025 	move	a0,v0
9d001484:	0f400bf7 	jal	9d002fdc <convertToRHFromSHT4X>
9d001488:	00000000 	nop
9d00148c:	af828044 	sw	v0,-32700(gp)

    sensorThreadState = SENSOR_REPORT_MEASUREMENTS;  //Next state of the thread is SENSOR_REPORT_MEASUREMENTS
9d001490:	24020002 	li	v0,2
9d001494:	af828038 	sw	v0,-32712(gp)
}
9d001498:	00000000 	nop
9d00149c:	8fbf001c 	lw	ra,28(sp)
9d0014a0:	27bd0020 	addiu	sp,sp,32
9d0014a4:	03e00008 	jr	ra
9d0014a8:	00000000 	nop

9d0014ac <sensorReportMeasurements>:

//Report Measurements Function, prepares the obtained measurements and then sends them over the air
void sensorReportMeasurements()
{
9d0014ac:	27bdffe0 	addiu	sp,sp,-32
9d0014b0:	afbf001c 	sw	ra,28(sp)
//    changeClockSpeed(SYSCLK_16MHZ);  //Boost the CPU clock for both interacting with the radio later on and also to keep computation time short
    LATBSET = 0x00000400;
9d0014b4:	3c02bf88 	lui	v0,0xbf88
9d0014b8:	24030400 	li	v1,1024
9d0014bc:	ac436138 	sw	v1,24888(v0)

    uint32_t logSize;                    //Create a new variable to use for storing the size of constructed log strings

    logSize = constructMeasurementLog((uint8_t *) dmaBufferTxUART, &mostRecentTemp, &mostRecentRH, &mostRecentPres);  //Construct a new measurement report log and store it in dmaBufferTxUART
9d0014c0:	27878048 	addiu	a3,gp,-32696
9d0014c4:	27868044 	addiu	a2,gp,-32700
9d0014c8:	27858040 	addiu	a1,gp,-32704
9d0014cc:	3c02a000 	lui	v0,0xa000
9d0014d0:	0f400393 	jal	9d000e4c <constructMeasurementLog>
9d0014d4:	2444025c 	addiu	a0,v0,604
9d0014d8:	afa20010 	sw	v0,16(sp)
    startTxUART((uint8_t *) dmaBufferTxUART, &logSize);                                                               //Start the transmission of the log message over UART
9d0014dc:	27a20010 	addiu	v0,sp,16
9d0014e0:	00402825 	move	a1,v0
9d0014e4:	3c02a000 	lui	v0,0xa000
9d0014e8:	0f400ff6 	jal	9d003fd8 <startTxUART>
9d0014ec:	2444025c 	addiu	a0,v0,604

    while (DCH2CON & 0x00008000) asm volatile ("wait");  //Keep the CPU in idle mode until DMA 2 is done writing to UART 2 before down-clocking the CPU
9d0014f0:	10000002 	b	9d0014fc <sensorReportMeasurements+0x50>
9d0014f4:	00000000 	nop
9d0014f8:	42000020 	wait
9d0014fc:	3c02bf88 	lui	v0,0xbf88
9d001500:	8c4231e0 	lw	v0,12768(v0)
9d001504:	30428000 	andi	v0,v0,0x8000
9d001508:	1440fffb 	bnez	v0,9d0014f8 <sensorReportMeasurements+0x4c>
9d00150c:	00000000 	nop
    while (!(U2STA & 0x00000100));                       //Wait until the transmission has completed fully before we down-clock the CPU
9d001510:	00000000 	nop
9d001514:	3c02bf80 	lui	v0,0xbf80
9d001518:	8c426210 	lw	v0,25104(v0)
9d00151c:	30420100 	andi	v0,v0,0x100
9d001520:	1040fffc 	beqz	v0,9d001514 <sensorReportMeasurements+0x68>
9d001524:	00000000 	nop
    
    LATBCLR = 0x00000400;
9d001528:	3c02bf88 	lui	v0,0xbf88
9d00152c:	24030400 	li	v1,1024
9d001530:	ac436134 	sw	v1,24884(v0)
//    changeClockSpeed(SYSCLK_1MHZ);

    //Reset the RTC before going entering sleep mode
    RTCDATE = 0x00000000;  //Reset the date value back to 0
9d001534:	3c02bf80 	lui	v0,0xbf80
9d001538:	ac400230 	sw	zero,560(v0)
    RTCTIME = 0x00000000;  //Reset the time value back to 0
9d00153c:	3c02bf80 	lui	v0,0xbf80
9d001540:	ac400220 	sw	zero,544(v0)
    RTCALRM = 0x00008600;  //Setup a single alarm to occur at the pre-set interval
9d001544:	3c02bf80 	lui	v0,0xbf80
9d001548:	34038600 	li	v1,0x8600
9d00154c:	ac430210 	sw	v1,528(v0)
    RTCCON = 0x0000A248;   //Enable the RTCC and start counting
9d001550:	3c02bf80 	lui	v0,0xbf80
9d001554:	3403a248 	li	v1,0xa248
9d001558:	ac430200 	sw	v1,512(v0)

    if (!radioThreadState) radioThreadState = RADIO_SEND_MEASUREMENTS;  //Request that the radio start sending a new packet
9d00155c:	8f82803c 	lw	v0,-32708(gp)
9d001560:	14400003 	bnez	v0,9d001570 <sensorReportMeasurements+0xc4>
9d001564:	00000000 	nop
9d001568:	24020002 	li	v0,2
9d00156c:	af82803c 	sw	v0,-32708(gp)
    
    sensorThreadState = SENSOR_SLEEP;  //Next state of the thread is SENSOR_SLEEP
9d001570:	af808038 	sw	zero,-32712(gp)
}
9d001574:	00000000 	nop
9d001578:	8fbf001c 	lw	ra,28(sp)
9d00157c:	27bd0020 	addiu	sp,sp,32
9d001580:	03e00008 	jr	ra
9d001584:	00000000 	nop

9d001588 <sensorMeasureFail>:

//Measure Fail Function, handles any exceptions that occur when collecting measurements from the sensors
void sensorMeasureFail()
{
    sensorThreadState = SENSOR_SLEEP;  //Next state of the thread is SENSOR_SLEEP
9d001588:	af808038 	sw	zero,-32712(gp)
}
9d00158c:	00000000 	nop
9d001590:	03e00008 	jr	ra
9d001594:	00000000 	nop

9d001598 <radioWakeUp>:
 ******************/

//Wake Up Function, wakes the radio up and puts it into standby mode
void radioWakeUp()
{
    radioThreadState = RADIO_SLEEP;  //Next state of the thread is RADIO_SLEEP
9d001598:	af80803c 	sw	zero,-32708(gp)
}
9d00159c:	00000000 	nop
9d0015a0:	03e00008 	jr	ra
9d0015a4:	00000000 	nop

9d0015a8 <radioSendMeasurements>:

//Send Measurements Function, sends the last recorded sensor values on air
void radioSendMeasurements()
{
9d0015a8:	27bdffd8 	addiu	sp,sp,-40
9d0015ac:	afbf0024 	sw	ra,36(sp)
    packetMeasureReport_t packetBuffer;                                                      //Allocate a new packetMeasureReport_t structure in memory to store the generated packet for transmission
    newMeasureReportPacket(&packetBuffer, &mostRecentTemp, &mostRecentRH, &mostRecentPres);  //Generate a new measurement report packet containing the most recent measurement data
9d0015b0:	27878048 	addiu	a3,gp,-32696
9d0015b4:	27868044 	addiu	a2,gp,-32700
9d0015b8:	27858040 	addiu	a1,gp,-32704
9d0015bc:	27a20010 	addiu	v0,sp,16
9d0015c0:	00402025 	move	a0,v0
9d0015c4:	0f400a7a 	jal	9d0029e8 <newMeasureReportPacket>
9d0015c8:	00000000 	nop
    writePacketSX1231H(packetBuffer.bytes, PACKET_LENGTH_MEASUREREPORT);                     //Write the packet bytes to the radio module to begin the transmission
9d0015cc:	2405000b 	li	a1,11
9d0015d0:	27a20010 	addiu	v0,sp,16
9d0015d4:	00402025 	move	a0,v0
9d0015d8:	0f400e33 	jal	9d0038cc <writePacketSX1231H>
9d0015dc:	00000000 	nop

    radioThreadState = RADIO_SLEEP;  //Next state of the thread is RADIO_POWER_DOWN
9d0015e0:	af80803c 	sw	zero,-32708(gp)
}
9d0015e4:	00000000 	nop
9d0015e8:	8fbf0024 	lw	ra,36(sp)
9d0015ec:	27bd0028 	addiu	sp,sp,40
9d0015f0:	03e00008 	jr	ra
9d0015f4:	00000000 	nop

9d0015f8 <radioPowerDown>:

void radioPowerDown()
{
    
}
9d0015f8:	00000000 	nop
9d0015fc:	03e00008 	jr	ra
9d001600:	00000000 	nop

9d001604 <threadSleep>:

//Thread Sleep Function, provides a blank handler function to use when a thread is asleep
void threadSleep()
{
    //Literally do nothing lol
}
9d001604:	00000000 	nop
9d001608:	03e00008 	jr	ra
9d00160c:	00000000 	nop

Disassembly of section .text.fp32div:

9d001610 <__divsf3>:
9d001610:	3c0b8000 000445c2 310800ff 000555c2     ...<.E.....1.U..
9d001620:	314a00ff 00043a00 00eb3825 00054a00     ..J1.:..%8...J..
9d001630:	012b4825 00857026 016e5824 250effff     %H+.&p..$Xn....%
9d001640:	2dc100fe 1020003f 00000000              ...-?. .....

9d00164c <Dlab1>:
9d00164c:	254effff 	addiu	t6,t2,-1
9d001650:	2dc100fe 	sltiu	at,t6,254
9d001654:	10200053 	beqz	at,9d0017a4 <DspecB>
9d001658:	00000000 	nop

9d00165c <Dlab2>:
9d00165c:	00e9082b 	sltu	at,a3,t1
9d001660:	14200003 	bnez	at,9d001670 <i27>
9d001664:	00000000 	nop
9d001668:	00073842 	srl	a3,a3,0x1
9d00166c:	25080001 	addiu	t0,t0,1

9d001670 <i27>:
9d001670:	00096382 	srl	t4,t1,0xe
9d001674:	018001f4 	teq	t4,zero,0x7
9d001678:	00ec001b 	divu	zero,a3,t4
9d00167c:	00002012 	mflo	a0
9d001680:	00003010 	mfhi	a2
9d001684:	312d3fff 	andi	t5,t1,0x3fff
9d001688:	01a40019 	multu	t5,a0
9d00168c:	00002812 	mflo	a1
9d001690:	00063380 	sll	a2,a2,0xe
9d001694:	00c5702b 	sltu	t6,a2,a1
9d001698:	11c00004 	beqz	t6,9d0016ac <i28>
9d00169c:	00c53023 	subu	a2,a2,a1
9d0016a0:	2484ffff 	addiu	a0,a0,-1
9d0016a4:	00c93021 	addu	a2,a2,t1
9d0016a8:	00c9702b 	sltu	t6,a2,t1

9d0016ac <i28>:
9d0016ac:	018001f4 	teq	t4,zero,0x7
9d0016b0:	00cc001b 	divu	zero,a2,t4
9d0016b4:	00003812 	mflo	a3
9d0016b8:	00003010 	mfhi	a2
9d0016bc:	01a70019 	multu	t5,a3
9d0016c0:	00002812 	mflo	a1
9d0016c4:	00063380 	sll	a2,a2,0xe
9d0016c8:	00c5702b 	sltu	t6,a2,a1
9d0016cc:	11c00004 	beqz	t6,9d0016e0 <i29>
9d0016d0:	00c53023 	subu	a2,a2,a1
9d0016d4:	24e7ffff 	addiu	a3,a3,-1
9d0016d8:	00c93021 	addu	a2,a2,t1
9d0016dc:	00c9702b 	sltu	t6,a2,t1

9d0016e0 <i29>:
9d0016e0:	00047380 	sll	t6,a0,0xe
9d0016e4:	00ee3821 	addu	a3,a3,t6
9d0016e8:	10c00002 	beqz	a2,9d0016f4 <i30>
9d0016ec:	00073900 	sll	a3,a3,0x4
9d0016f0:	34e70001 	ori	a3,a3,0x1

9d0016f4 <i30>:
9d0016f4:	240e007e 	li	t6,126
9d0016f8:	01ca7023 	subu	t6,t6,t2
9d0016fc:	010e4021 	addu	t0,t0,t6
9d001700:	250effff 	addiu	t6,t0,-1
9d001704:	2dc100fe 	sltiu	at,t6,254
9d001708:	10200034 	beqz	at,9d0017dc <Doveund>
9d00170c:	00000000 	nop

9d001710 <Dlab8>:
9d001710:	24e70080 	addiu	a3,a3,128
9d001714:	2cee0080 	sltiu	t6,a3,128
9d001718:	010e4021 	addu	t0,t0,t6
9d00171c:	00077202 	srl	t6,a3,0x8
9d001720:	31ce0001 	andi	t6,t6,0x1
9d001724:	00ee3823 	subu	a3,a3,t6
9d001728:	00073840 	sll	a3,a3,0x1
9d00172c:	00073a42 	srl	a3,a3,0x9
9d001730:	000875c0 	sll	t6,t0,0x17
9d001734:	00ee3825 	or	a3,a3,t6
9d001738:	00eb1025 	or	v0,a3,t3

9d00173c <D999>:
9d00173c:	03e00008 	jr	ra
9d001740:	00000000 	nop

9d001744 <DspecA>:
9d001744:	15000008 	bnez	t0,9d001768 <i31>
9d001748:	00000000 	nop
9d00174c:	00e73821 	addu	a3,a3,a3
9d001750:	10e00005 	beqz	a3,9d001768 <i31>
9d001754:	00000000 	nop
9d001758:	70ec6020 	clz	t4,a3
9d00175c:	010c4023 	subu	t0,t0,t4
9d001760:	1000ffba 	b	9d00164c <Dlab1>
9d001764:	01873804 	sllv	a3,a3,t4

9d001768 <i31>:
9d001768:	15480004 	bne	t2,t0,9d00177c <i33>
9d00176c:	00000000 	nop
9d001770:	01297021 	addu	t6,t1,t1
9d001774:	11c0002f 	beqz	t6,9d001834 <Dnan>
9d001778:	00000000 	nop

9d00177c <i33>:
9d00177c:	240100ff 	li	at,255
9d001780:	11410008 	beq	t2,at,9d0017a4 <DspecB>
9d001784:	00000000 	nop
9d001788:	11000012 	beqz	t0,9d0017d4 <Dzer>
9d00178c:	00000000 	nop
9d001790:	00e77021 	addu	t6,a3,a3
9d001794:	15c00027 	bnez	t6,9d001834 <Dnan>
9d001798:	00000000 	nop
9d00179c:	10000022 	b	9d001828 <Dinf>
9d0017a0:	00000000 	nop

9d0017a4 <DspecB>:
9d0017a4:	15400008 	bnez	t2,9d0017c8 <i34>
9d0017a8:	00000000 	nop
9d0017ac:	01294821 	addu	t1,t1,t1
9d0017b0:	1120001d 	beqz	t1,9d001828 <Dinf>
9d0017b4:	00000000 	nop
9d0017b8:	712c6020 	clz	t4,t1
9d0017bc:	014c5023 	subu	t2,t2,t4
9d0017c0:	1000ffa6 	b	9d00165c <Dlab2>
9d0017c4:	01894804 	sllv	t1,t1,t4

9d0017c8 <i34>:
9d0017c8:	01297021 	addu	t6,t1,t1
9d0017cc:	15c00019 	bnez	t6,9d001834 <Dnan>
9d0017d0:	00000000 	nop

9d0017d4 <Dzer>:
9d0017d4:	1000ffd9 	b	9d00173c <D999>
9d0017d8:	000b1025 	or	v0,zero,t3

9d0017dc <Doveund>:
9d0017dc:	1d000012 	bgtz	t0,9d001828 <Dinf>
9d0017e0:	00000000 	nop
9d0017e4:	240c0001 	li	t4,1
9d0017e8:	01886023 	subu	t4,t4,t0
9d0017ec:	2d810020 	sltiu	at,t4,32
9d0017f0:	1020fff8 	beqz	at,9d0017d4 <Dzer>
9d0017f4:	00000000 	nop
9d0017f8:	240e0020 	li	t6,32
9d0017fc:	01cc7023 	subu	t6,t6,t4
9d001800:	01c74004 	sllv	t0,a3,t6
9d001804:	11000002 	beqz	t0,9d001810 <i37>
9d001808:	01873806 	srlv	a3,a3,t4
9d00180c:	34e70002 	ori	a3,a3,0x2

9d001810 <i37>:
9d001810:	24080000 	li	t0,0
9d001814:	24ee0080 	addiu	t6,a3,128
9d001818:	05c1ffbd 	bgez	t6,9d001710 <Dlab8>
9d00181c:	00000000 	nop
9d001820:	1000ffbb 	b	9d001710 <Dlab8>
9d001824:	24080001 	li	t0,1

9d001828 <Dinf>:
9d001828:	3c017f80 	lui	at,0x7f80
9d00182c:	1000ffc3 	b	9d00173c <D999>
9d001830:	01611025 	or	v0,t3,at

9d001834 <Dnan>:
9d001834:	1000ffc1 	b	9d00173c <D999>
9d001838:	3c02ffc0 	lui	v0,0xffc0
9d00183c:	00000000 	nop

Disassembly of section .text.convertToPressureFromDPS368:

9d001840 <convertToPressureFromDPS368>:
{
9d001840:	27bdffd0 	addiu	sp,sp,-48
9d001844:	afbf002c 	sw	ra,44(sp)
9d001848:	afb10028 	sw	s1,40(sp)
9d00184c:	afb00024 	sw	s0,36(sp)
9d001850:	afa40030 	sw	a0,48(sp)
9d001854:	afa50034 	sw	a1,52(sp)
    forceSign32(&rawPressure, 0x00000018);     //Convert the provided 24-bit unsigned 2's complemented pressure value into a signed 32-bit integer
9d001858:	24050018 	li	a1,24
9d00185c:	27a40030 	addiu	a0,sp,48
9d001860:	0f400f32 	jal	9d003cc8 <forceSign32>
9d001864:	00000000 	nop
    forceSign32(&rawTemperature, 0x00000018);  //Convert the provided 24-bit unsigned 2's complemented temperature value into a signed 32-bit integer
9d001868:	27a20034 	addiu	v0,sp,52
9d00186c:	24050018 	li	a1,24
9d001870:	00402025 	move	a0,v0
9d001874:	0f400f32 	jal	9d003cc8 <forceSign32>
9d001878:	00000000 	nop
    float scaledPres = (float) (int32_t) rawPressure / presScalingFactorDPS368;     //Calculate the scaled pressure result based on the pressure oversampling configuration
9d00187c:	8fa20030 	lw	v0,48(sp)
9d001880:	00402025 	move	a0,v0
9d001884:	0f400f9e 	jal	9d003e78 <__floatsisf>
9d001888:	00000000 	nop
9d00188c:	00408025 	move	s0,v0
9d001890:	8f828010 	lw	v0,-32752(gp)
9d001894:	00402025 	move	a0,v0
9d001898:	0f401009 	jal	9d004024 <__floatunsisf>
9d00189c:	00000000 	nop
9d0018a0:	00402825 	move	a1,v0
9d0018a4:	02002025 	move	a0,s0
9d0018a8:	0f400584 	jal	9d001610 <__divsf3>
9d0018ac:	00000000 	nop
9d0018b0:	afa20010 	sw	v0,16(sp)
    float scaledTemp = (float) (int32_t) rawTemperature / tempScalingFactorDPS368;  //Calculate the scaled temperature result based on the temperature oversampling configuration
9d0018b4:	8fa20034 	lw	v0,52(sp)
9d0018b8:	00402025 	move	a0,v0
9d0018bc:	0f400f9e 	jal	9d003e78 <__floatsisf>
9d0018c0:	00000000 	nop
9d0018c4:	00408025 	move	s0,v0
9d0018c8:	8f828014 	lw	v0,-32748(gp)
9d0018cc:	00402025 	move	a0,v0
9d0018d0:	0f401009 	jal	9d004024 <__floatunsisf>
9d0018d4:	00000000 	nop
9d0018d8:	00402825 	move	a1,v0
9d0018dc:	02002025 	move	a0,s0
9d0018e0:	0f400584 	jal	9d001610 <__divsf3>
9d0018e4:	00000000 	nop
9d0018e8:	afa20014 	sw	v0,20(sp)
    float compensatedPres = (((scaledPres * dps368Cal_c30 + dps368Cal_c20) * scaledPres + dps368Cal_c10) * scaledPres) +
9d0018ec:	8782802c 	lh	v0,-32724(gp)
9d0018f0:	00402025 	move	a0,v0
9d0018f4:	0f400f9e 	jal	9d003e78 <__floatsisf>
9d0018f8:	00000000 	nop
9d0018fc:	8fa50010 	lw	a1,16(sp)
9d001900:	00402025 	move	a0,v0
9d001904:	0f40078d 	jal	9d001e34 <__mulsf3>
9d001908:	00000000 	nop
9d00190c:	00408025 	move	s0,v0
9d001910:	87828028 	lh	v0,-32728(gp)
9d001914:	00402025 	move	a0,v0
9d001918:	0f400f9e 	jal	9d003e78 <__floatsisf>
9d00191c:	00000000 	nop
9d001920:	00402825 	move	a1,v0
9d001924:	02002025 	move	a0,s0
9d001928:	0f40044e 	jal	9d001138 <__addsf3>
9d00192c:	00000000 	nop
9d001930:	8fa50010 	lw	a1,16(sp)
9d001934:	00402025 	move	a0,v0
9d001938:	0f40078d 	jal	9d001e34 <__mulsf3>
9d00193c:	00000000 	nop
9d001940:	00408025 	move	s0,v0
9d001944:	8f828020 	lw	v0,-32736(gp)
9d001948:	00402025 	move	a0,v0
9d00194c:	0f400f9e 	jal	9d003e78 <__floatsisf>
9d001950:	00000000 	nop
9d001954:	00402825 	move	a1,v0
9d001958:	02002025 	move	a0,s0
9d00195c:	0f40044e 	jal	9d001138 <__addsf3>
9d001960:	00000000 	nop
9d001964:	8fa50010 	lw	a1,16(sp)
9d001968:	00402025 	move	a0,v0
9d00196c:	0f40078d 	jal	9d001e34 <__mulsf3>
9d001970:	00000000 	nop
9d001974:	00408025 	move	s0,v0
                            ((scaledPres * dps368Cal_c21 + dps368Cal_c11) * scaledPres * scaledTemp) + (scaledTemp + dps368Cal_c01) + dps368Cal_c00;
9d001978:	8782802a 	lh	v0,-32726(gp)
9d00197c:	00402025 	move	a0,v0
9d001980:	0f400f9e 	jal	9d003e78 <__floatsisf>
9d001984:	00000000 	nop
9d001988:	8fa50010 	lw	a1,16(sp)
9d00198c:	00402025 	move	a0,v0
9d001990:	0f40078d 	jal	9d001e34 <__mulsf3>
9d001994:	00000000 	nop
9d001998:	00408825 	move	s1,v0
9d00199c:	87828026 	lh	v0,-32730(gp)
9d0019a0:	00402025 	move	a0,v0
9d0019a4:	0f400f9e 	jal	9d003e78 <__floatsisf>
9d0019a8:	00000000 	nop
9d0019ac:	00402825 	move	a1,v0
9d0019b0:	02202025 	move	a0,s1
9d0019b4:	0f40044e 	jal	9d001138 <__addsf3>
9d0019b8:	00000000 	nop
9d0019bc:	8fa50010 	lw	a1,16(sp)
9d0019c0:	00402025 	move	a0,v0
9d0019c4:	0f40078d 	jal	9d001e34 <__mulsf3>
9d0019c8:	00000000 	nop
9d0019cc:	8fa50014 	lw	a1,20(sp)
9d0019d0:	00402025 	move	a0,v0
9d0019d4:	0f40078d 	jal	9d001e34 <__mulsf3>
9d0019d8:	00000000 	nop
    float compensatedPres = (((scaledPres * dps368Cal_c30 + dps368Cal_c20) * scaledPres + dps368Cal_c10) * scaledPres) +
9d0019dc:	00402825 	move	a1,v0
9d0019e0:	02002025 	move	a0,s0
9d0019e4:	0f40044e 	jal	9d001138 <__addsf3>
9d0019e8:	00000000 	nop
9d0019ec:	00408025 	move	s0,v0
                            ((scaledPres * dps368Cal_c21 + dps368Cal_c11) * scaledPres * scaledTemp) + (scaledTemp + dps368Cal_c01) + dps368Cal_c00;
9d0019f0:	87828024 	lh	v0,-32732(gp)
9d0019f4:	00402025 	move	a0,v0
9d0019f8:	0f400f9e 	jal	9d003e78 <__floatsisf>
9d0019fc:	00000000 	nop
9d001a00:	8fa50014 	lw	a1,20(sp)
9d001a04:	00402025 	move	a0,v0
9d001a08:	0f40044e 	jal	9d001138 <__addsf3>
9d001a0c:	00000000 	nop
9d001a10:	00402825 	move	a1,v0
9d001a14:	02002025 	move	a0,s0
9d001a18:	0f40044e 	jal	9d001138 <__addsf3>
9d001a1c:	00000000 	nop
9d001a20:	00408025 	move	s0,v0
9d001a24:	8f82801c 	lw	v0,-32740(gp)
9d001a28:	00402025 	move	a0,v0
9d001a2c:	0f400f9e 	jal	9d003e78 <__floatsisf>
9d001a30:	00000000 	nop
    float compensatedPres = (((scaledPres * dps368Cal_c30 + dps368Cal_c20) * scaledPres + dps368Cal_c10) * scaledPres) +
9d001a34:	00402825 	move	a1,v0
9d001a38:	02002025 	move	a0,s0
9d001a3c:	0f40044e 	jal	9d001138 <__addsf3>
9d001a40:	00000000 	nop
9d001a44:	afa20018 	sw	v0,24(sp)
    return compensatedPres;  //Return the calculated compensated pressure
9d001a48:	8fa20018 	lw	v0,24(sp)
}
9d001a4c:	8fbf002c 	lw	ra,44(sp)
9d001a50:	8fb10028 	lw	s1,40(sp)
9d001a54:	8fb00024 	lw	s0,36(sp)
9d001a58:	27bd0030 	addiu	sp,sp,48
9d001a5c:	03e00008 	jr	ra
9d001a60:	00000000 	nop

Disassembly of section .text.initializeDPS368:

9d001a64 <initializeDPS368>:
{
9d001a64:	27bdffd8 	addiu	sp,sp,-40
9d001a68:	afbf0024 	sw	ra,36(sp)
9d001a6c:	afa40028 	sw	a0,40(sp)
9d001a70:	afa5002c 	sw	a1,44(sp)
9d001a74:	afa60030 	sw	a2,48(sp)
9d001a78:	afa70034 	sw	a3,52(sp)
    presOversample &= 0x00000007;  //Keep only the 3 least significant bits of the provided pressure oversampling setting
9d001a7c:	8fa20028 	lw	v0,40(sp)
9d001a80:	30420007 	andi	v0,v0,0x7
9d001a84:	afa20028 	sw	v0,40(sp)
    tempOversample &= 0x00000007;  //Keep only the 3 least significant bits of the provided temperature oversampling setting
9d001a88:	8fa20030 	lw	v0,48(sp)
9d001a8c:	30420007 	andi	v0,v0,0x7
9d001a90:	afa20030 	sw	v0,48(sp)
    presScalingFactorDPS368 = dps368Cal_scalingFactors[presOversample];  //Use the lookup table to set the scaling factor for pressure results based on the given oversampling setting
9d001a94:	3c029d00 	lui	v0,0x9d00
9d001a98:	8fa30028 	lw	v1,40(sp)
9d001a9c:	00031880 	sll	v1,v1,0x2
9d001aa0:	24424230 	addiu	v0,v0,16944
9d001aa4:	00621021 	addu	v0,v1,v0
9d001aa8:	8c420000 	lw	v0,0(v0)
9d001aac:	af828010 	sw	v0,-32752(gp)
    tempScalingFactorDPS368 = dps368Cal_scalingFactors[tempOversample];  //Use the lookup table to set the scaling factor for temperature results based on the given oversampling setting
9d001ab0:	3c029d00 	lui	v0,0x9d00
9d001ab4:	8fa30030 	lw	v1,48(sp)
9d001ab8:	00031880 	sll	v1,v1,0x2
9d001abc:	24424230 	addiu	v0,v0,16944
9d001ac0:	00621021 	addu	v0,v1,v0
9d001ac4:	8c420000 	lw	v0,0(v0)
9d001ac8:	af828014 	sw	v0,-32748(gp)
    uint8_t *arrayPointer = dataBuffer + 0x00000002;  //Declare a pointer that points to the array
9d001acc:	27a20014 	addiu	v0,sp,20
9d001ad0:	24420002 	addiu	v0,v0,2
9d001ad4:	afa20010 	sw	v0,16(sp)
    *arrayPointer = 0x28;  //Write the address of the COEF_SRCE register on the sensor into the array
9d001ad8:	8fa20010 	lw	v0,16(sp)
9d001adc:	24030028 	li	v1,40
9d001ae0:	a0430000 	sb	v1,0(v0)
    if (!readFromI2C(DPS368_I2C_ADDR, arrayPointer, 0x00000001, 0x01)) return 0x00000000;  //Attempt to read the contents of the register, exiting the function when no response is obtained
9d001ae4:	24070001 	li	a3,1
9d001ae8:	24060001 	li	a2,1
9d001aec:	8fa50010 	lw	a1,16(sp)
9d001af0:	24040076 	li	a0,118
9d001af4:	0f4007fc 	jal	9d001ff0 <readFromI2C>
9d001af8:	00000000 	nop
9d001afc:	14400004 	bnez	v0,9d001b10 <initializeDPS368+0xac>
9d001b00:	00000000 	nop
9d001b04:	00001025 	move	v0,zero
9d001b08:	10000053 	b	9d001c58 <initializeDPS368+0x1f4>
9d001b0c:	00000000 	nop
    arrayPointer = dataBuffer;  //Re-point arrayPointer back to the first index of the dataBuffer array
9d001b10:	27a20014 	addiu	v0,sp,20
9d001b14:	afa20010 	sw	v0,16(sp)
    *arrayPointer++ = 0x06;     //Write the address of the PRS_CFG register in the sensor to the first index of the configuration bytes
9d001b18:	8fa20010 	lw	v0,16(sp)
9d001b1c:	24430001 	addiu	v1,v0,1
9d001b20:	afa30010 	sw	v1,16(sp)
9d001b24:	24030006 	li	v1,6
9d001b28:	a0430000 	sb	v1,0(v0)
    *arrayPointer++ = ((presMeasureRate & 0x00000007) << 0x00000004) | (presOversample);                           //Form the configuration byte for the PRS_CFG register
9d001b2c:	8fa2002c 	lw	v0,44(sp)
9d001b30:	304200ff 	andi	v0,v0,0xff
9d001b34:	00021100 	sll	v0,v0,0x4
9d001b38:	304200ff 	andi	v0,v0,0xff
9d001b3c:	30420070 	andi	v0,v0,0x70
9d001b40:	304400ff 	andi	a0,v0,0xff
9d001b44:	8fa20028 	lw	v0,40(sp)
9d001b48:	304300ff 	andi	v1,v0,0xff
9d001b4c:	8fa20010 	lw	v0,16(sp)
9d001b50:	24450001 	addiu	a1,v0,1
9d001b54:	afa50010 	sw	a1,16(sp)
9d001b58:	00831825 	or	v1,a0,v1
9d001b5c:	306300ff 	andi	v1,v1,0xff
9d001b60:	a0430000 	sb	v1,0(v0)
    *arrayPointer++ = ((tempMeasureRate & 0x00000007) << 0x00000004) | (tempOversample) | (*arrayPointer & 0x80);  //Form the configuration byte for the TMP_CFG register
9d001b64:	8fa20034 	lw	v0,52(sp)
9d001b68:	304200ff 	andi	v0,v0,0xff
9d001b6c:	00021100 	sll	v0,v0,0x4
9d001b70:	304200ff 	andi	v0,v0,0xff
9d001b74:	30420070 	andi	v0,v0,0x70
9d001b78:	304300ff 	andi	v1,v0,0xff
9d001b7c:	8fa20030 	lw	v0,48(sp)
9d001b80:	304200ff 	andi	v0,v0,0xff
9d001b84:	00621025 	or	v0,v1,v0
9d001b88:	304400ff 	andi	a0,v0,0xff
9d001b8c:	8fa20010 	lw	v0,16(sp)
9d001b90:	90420000 	lbu	v0,0(v0)
9d001b94:	7c023004 	ins	v0,zero,0x0,0x7
9d001b98:	304300ff 	andi	v1,v0,0xff
9d001b9c:	8fa20010 	lw	v0,16(sp)
9d001ba0:	24450001 	addiu	a1,v0,1
9d001ba4:	afa50010 	sw	a1,16(sp)
9d001ba8:	00831825 	or	v1,a0,v1
9d001bac:	306300ff 	andi	v1,v1,0xff
9d001bb0:	a0430000 	sb	v1,0(v0)
    *arrayPointer++ = 0x00;                                                                                        //Form the configuration byte for the MEAS_CFG register
9d001bb4:	8fa20010 	lw	v0,16(sp)
9d001bb8:	24430001 	addiu	v1,v0,1
9d001bbc:	afa30010 	sw	v1,16(sp)
9d001bc0:	a0400000 	sb	zero,0(v0)
    *arrayPointer = 0x00;                                                                                          //Form the starting configuration byte for the CFG_REG register
9d001bc4:	8fa20010 	lw	v0,16(sp)
9d001bc8:	a0400000 	sb	zero,0(v0)
    if (enableFIFO) *arrayPointer |= 0x02;                    //Set Bit-1 in CFG_REG to enable the use of the FIFO buffer
9d001bcc:	8fa20038 	lw	v0,56(sp)
9d001bd0:	10400007 	beqz	v0,9d001bf0 <initializeDPS368+0x18c>
9d001bd4:	00000000 	nop
9d001bd8:	8fa20010 	lw	v0,16(sp)
9d001bdc:	90420000 	lbu	v0,0(v0)
9d001be0:	34420002 	ori	v0,v0,0x2
9d001be4:	304300ff 	andi	v1,v0,0xff
9d001be8:	8fa20010 	lw	v0,16(sp)
9d001bec:	a0430000 	sb	v1,0(v0)
    if (presOversample >= 0x00000004) *arrayPointer |= 0x04;  //Set Bit-2 in CFG_REG to activate the pressure result bit-shift mode when oversampling 8 or more times per measurement
9d001bf0:	8fa20028 	lw	v0,40(sp)
9d001bf4:	2c420004 	sltiu	v0,v0,4
9d001bf8:	14400007 	bnez	v0,9d001c18 <initializeDPS368+0x1b4>
9d001bfc:	00000000 	nop
9d001c00:	8fa20010 	lw	v0,16(sp)
9d001c04:	90420000 	lbu	v0,0(v0)
9d001c08:	34420004 	ori	v0,v0,0x4
9d001c0c:	304300ff 	andi	v1,v0,0xff
9d001c10:	8fa20010 	lw	v0,16(sp)
9d001c14:	a0430000 	sb	v1,0(v0)
    if (tempOversample >= 0x00000004) *arrayPointer |= 0x08;  //Set Bit-3 in CFG_REG to activate the temperature result bit-shift mode when oversampling 8 or more times per measurement
9d001c18:	8fa20030 	lw	v0,48(sp)
9d001c1c:	2c420004 	sltiu	v0,v0,4
9d001c20:	14400007 	bnez	v0,9d001c40 <initializeDPS368+0x1dc>
9d001c24:	00000000 	nop
9d001c28:	8fa20010 	lw	v0,16(sp)
9d001c2c:	90420000 	lbu	v0,0(v0)
9d001c30:	34420008 	ori	v0,v0,0x8
9d001c34:	304300ff 	andi	v1,v0,0xff
9d001c38:	8fa20010 	lw	v0,16(sp)
9d001c3c:	a0430000 	sb	v1,0(v0)
    return writeToI2C(DPS368_I2C_ADDR, dataBuffer, 0x00000005);  //Send the configuration data to the sensor returning whether the I2C write operation was successful or not
9d001c40:	27a20014 	addiu	v0,sp,20
9d001c44:	24060005 	li	a2,5
9d001c48:	00402825 	move	a1,v0
9d001c4c:	24040076 	li	a0,118
9d001c50:	0f400ac3 	jal	9d002b0c <writeToI2C>
9d001c54:	00000000 	nop
}
9d001c58:	8fbf0024 	lw	ra,36(sp)
9d001c5c:	27bd0028 	addiu	sp,sp,40
9d001c60:	03e00008 	jr	ra
9d001c64:	00000000 	nop

Disassembly of section .text.setupMCU:

9d001c68 <setupMCU>:
 *  Main Program  *
 ******************/

//Setup MCU Function, sets the appropriate control registers on the MCU needed to make things work for the application
inline void setupMCU()
{
9d001c68:	27bdffe8 	addiu	sp,sp,-24
9d001c6c:	afbf0014 	sw	ra,20(sp)
    asm volatile ("di");  //Disable interrupts for the duration of the setup routine
9d001c70:	41606000 	di

    //Configure Port A
    LATA = 0x00000000;   //Clear all of Port A to logic LOW
9d001c74:	3c02bf88 	lui	v0,0xbf88
9d001c78:	ac406030 	sw	zero,24624(v0)
    TRISA = 0x00000018;  //Set RA0 and RA1 to outputs
9d001c7c:	3c02bf88 	lui	v0,0xbf88
9d001c80:	24030018 	li	v1,24
9d001c84:	ac436010 	sw	v1,24592(v0)

    //Configure Port B
    ANSELB = 0x00006003;  //Force RB2, RB3, and RB15 to fully digital IO, allowing the I2C peripheral and external interrupt to function correctly
9d001c88:	3c02bf88 	lui	v0,0xbf88
9d001c8c:	24036003 	li	v1,24579
9d001c90:	ac436100 	sw	v1,24832(v0)
    LATB = 0x00001000;    //Clear all of Port B to logic LOW, setting RB12 to logic HIGH
9d001c94:	3c02bf88 	lui	v0,0xbf88
9d001c98:	24031000 	li	v1,4096
9d001c9c:	ac436130 	sw	v1,24880(v0)
    ODCB = 0x00001000;    //Enable the open-drain function on RB12
9d001ca0:	3c02bf88 	lui	v0,0xbf88
9d001ca4:	24031000 	li	v1,4096
9d001ca8:	ac436140 	sw	v1,24896(v0)
    CNENB = 0x000003C0;   //Enable change notification interrupts on inputs RB6 through RB9
9d001cac:	3c02bf88 	lui	v0,0xbf88
9d001cb0:	240303c0 	li	v1,960
9d001cb4:	ac436180 	sw	v1,24960(v0)
    TRISB = 0x0000EBFF;   //Set RB10 and RB12 to outputs
9d001cb8:	3c02bf88 	lui	v0,0xbf88
9d001cbc:	3403ebff 	li	v1,0xebff
9d001cc0:	ac436110 	sw	v1,24848(v0)

    //Configure PPS connections
    RPA3R = 0x00000002;   //Assign RA3 to the TX output of UART2
9d001cc4:	3c02bf81 	lui	v0,0xbf81
9d001cc8:	24030002 	li	v1,2
9d001ccc:	ac43fb0c 	sw	v1,-1268(v0)
    U2RXR = 0x00000001;   //Assign RB5 to the RX input of UART2
9d001cd0:	3c02bf81 	lui	v0,0xbf81
9d001cd4:	24030001 	li	v1,1
9d001cd8:	ac43fa58 	sw	v1,-1448(v0)
    RPB13R = 0x00000003;  //Assign RB13 to the SDO output of SPI1
9d001cdc:	3c02bf81 	lui	v0,0xbf81
9d001ce0:	24030003 	li	v1,3
9d001ce4:	ac43fb60 	sw	v1,-1184(v0)
    SDI1R = 0x00000003;   //Assign RB11 to the SDI input of SPI1
9d001ce8:	3c02bf81 	lui	v0,0xbf81
9d001cec:	24030003 	li	v1,3
9d001cf0:	ac43fa84 	sw	v1,-1404(v0)
    INT4R = 0x00000003;   //Assign RB15 to the 4th external interrupt
9d001cf4:	3c02bf81 	lui	v0,0xbf81
9d001cf8:	24030003 	li	v1,3
9d001cfc:	ac43fa10 	sw	v1,-1520(v0)
    
    //Enable and configure the first SPI peripheral, SPI1
    SPI1BRG = 0x00000001;   //Set the clock frequency of SPI1 to operate at 4MHz
9d001d00:	3c02bf80 	lui	v0,0xbf80
9d001d04:	24030001 	li	v1,1
9d001d08:	ac435830 	sw	v1,22576(v0)
    SPI1CON2 = 0x00000C00;  //Disable all audio codec functionality of SPI1
9d001d0c:	3c02bf80 	lui	v0,0xbf80
9d001d10:	24030c00 	li	v1,3072
9d001d14:	ac435840 	sw	v1,22592(v0)
    SPI1CON = 0x00008120;   //Enable SPI1 in master mode, configured for 8-bit words in standard buffer mode
9d001d18:	3c02bf80 	lui	v0,0xbf80
9d001d1c:	34038120 	li	v1,0x8120
9d001d20:	ac435800 	sw	v1,22528(v0)

    //Enable and configure the second I2C peripheral, I2C2
    I2C2BRG = 0x00000008;  //Set the bus speed of I2C2 to ~429kHz
9d001d24:	3c02bf80 	lui	v0,0xbf80
9d001d28:	24030008 	li	v1,8
9d001d2c:	ac435140 	sw	v1,20800(v0)
    I2C2CON = 0x0000A000;  //Enable I2C2 with the stop in idle mode active
9d001d30:	3c02bf80 	lui	v0,0xbf80
9d001d34:	3403a000 	li	v1,0xa000
9d001d38:	ac435100 	sw	v1,20736(v0)

    //Enable and configure the second UART peripheral, UART2
    U2BRG = 0x00000019;   //Set the baud rate of UART2 to operate at roughly 19200bps
9d001d3c:	3c02bf80 	lui	v0,0xbf80
9d001d40:	24030019 	li	v1,25
9d001d44:	ac436240 	sw	v1,25152(v0)
    U2STA = 0x00008400;   //Enable the transmitter with the interrupt asserted on an empty TX buffer
9d001d48:	3c02bf80 	lui	v0,0xbf80
9d001d4c:	34038400 	li	v1,0x8400
9d001d50:	ac436210 	sw	v1,25104(v0)
    U2MODE = 0x00008000;  //Enable UART2 in standard baud mode
9d001d54:	3c02bf80 	lui	v0,0xbf80
9d001d58:	34038000 	li	v1,0x8000
9d001d5c:	ac436200 	sw	v1,25088(v0)

    //Prepare for configuration of the RTCC peripheral
    SYSKEY = 0x00000000;  //Reset the register lock state machine by writing a 0 to it
9d001d60:	3c02bf81 	lui	v0,0xbf81
9d001d64:	ac40f230 	sw	zero,-3536(v0)
    SYSKEY = 0xAA996655;  //Write the first unlock key to the SYSKEY register
9d001d68:	3c02bf81 	lui	v0,0xbf81
9d001d6c:	3c03aa99 	lui	v1,0xaa99
9d001d70:	34636655 	ori	v1,v1,0x6655
9d001d74:	ac43f230 	sw	v1,-3536(v0)
    SYSKEY = 0x556699AA;  //Write the second unlock key to the register to finally unlock all protected registers
9d001d78:	3c02bf81 	lui	v0,0xbf81
9d001d7c:	3c035566 	lui	v1,0x5566
9d001d80:	346399aa 	ori	v1,v1,0x99aa
9d001d84:	ac43f230 	sw	v1,-3536(v0)
    RTCCON = 0x00000008;  //Set Bit-3 of RTCCON to enable writes to all RTCC related registers
9d001d88:	3c02bf80 	lui	v0,0xbf80
9d001d8c:	24030008 	li	v1,8
9d001d90:	ac430200 	sw	v1,512(v0)
    SYSKEY = 0x00000000;  //Lock the protected registers now that we're done writing to protected registers
9d001d94:	3c02bf81 	lui	v0,0xbf81
9d001d98:	ac40f230 	sw	zero,-3536(v0)

    //Configure the RTCC
    ALRMTIME = configSampleInterval;  //Set the alarm time of the RTCC to the application configured sample interval
9d001d9c:	24030500 	li	v1,1280
9d001da0:	3c02bf80 	lui	v0,0xbf80
9d001da4:	ac430240 	sw	v1,576(v0)
    ALRMDATE = 0x00000000;            //Set the desired RTCC alarm date
9d001da8:	3c02bf80 	lui	v0,0xbf80
9d001dac:	ac400250 	sw	zero,592(v0)
    RTCCON = 0x00002208;              //Configure the RTCC to use SOSC as the source clock with stop-in-idle mode active
9d001db0:	3c02bf80 	lui	v0,0xbf80
9d001db4:	24032208 	li	v1,8712
9d001db8:	ac430200 	sw	v1,512(v0)
//    T1CON = 0x00000016;  //Enable Timer 1 using the secondary oscillator as the clock source with a 256 cycle pre-scaler
//    T1CON = 0x00000002;
//    TMR1 = 0x00000000;   //Clear the contents of the Timer 1 count register

    //Enable the DMA peripheral
    DMACON = 0x00008000;
9d001dbc:	3c02bf88 	lui	v0,0xbf88
9d001dc0:	34038000 	li	v1,0x8000
9d001dc4:	ac433000 	sw	v1,12288(v0)

    //Configure DMA 1 for SPI TX transfers

    //Configure DMA 2 for UART TX transfers
    DCH2DSIZ = 0x00000001;          //Destination pointer has a size of 1 byte
9d001dc8:	3c02bf88 	lui	v0,0xbf88
9d001dcc:	24030001 	li	v1,1
9d001dd0:	ac433240 	sw	v1,12864(v0)
    DCH2CSIZ = 0x00000001;          //Use a cell size of 1, ensuring only 1 byte is transfered at a time
9d001dd4:	3c02bf88 	lui	v0,0xbf88
9d001dd8:	24030001 	li	v1,1
9d001ddc:	ac433270 	sw	v1,12912(v0)
    DCH2DSA = KVA_TO_PA(&U2TXREG);  //Assign the destination address of DMA2 to the transmit buffer of UART2
9d001de0:	3c02bf80 	lui	v0,0xbf80
9d001de4:	24426220 	addiu	v0,v0,25120
9d001de8:	7c43e000 	ext	v1,v0,0x0,0x1d
9d001dec:	3c02bf88 	lui	v0,0xbf88
9d001df0:	ac433220 	sw	v1,12832(v0)
    DCH2DAT = 0x00000000;           //Use a NULL character as the termination byte for the transfer sequence
9d001df4:	3c02bf88 	lui	v0,0xbf88
9d001df8:	ac403290 	sw	zero,12944(v0)
    DCH2CON = 0x00000000;           //Setup DMA2 for pattern matching with the lowest DMA priority
9d001dfc:	3c02bf88 	lui	v0,0xbf88
9d001e00:	ac4031e0 	sw	zero,12768(v0)
    DCH2ECON = 0x00003730;          //Using pattern match mode, allow start events from IRQ 55 (UART2 TX interrupt)
9d001e04:	3c02bf88 	lui	v0,0xbf88
9d001e08:	24033730 	li	v1,14128
9d001e0c:	ac4331f0 	sw	v1,12784(v0)
    DCH2INT = 0x00080000;           //Enable block transfer complete interrupts for DMA 2
9d001e10:	3c02bf88 	lui	v0,0xbf88
9d001e14:	3c030008 	lui	v1,0x8

    setupInterrupts();               //Setup the interrupt controller of the MCU and enable interrupts
9d001e18:	0f400e56 	jal	9d003958 <setupInterrupts>
9d001e1c:	ac433200 	sw	v1,12800(v0)
}
9d001e20:	00000000 	nop
9d001e24:	8fbf0014 	lw	ra,20(sp)
9d001e28:	27bd0018 	addiu	sp,sp,24
9d001e2c:	03e00008 	jr	ra
9d001e30:	00000000 	nop

Disassembly of section .text.fp32mul:

9d001e34 <__mulsf3>:
9d001e34:	00043dc2 30e700ff 00054dc2 312900ff     .=.....0.M....)1
9d001e44:	3c0a8000 00043200 00ca3025 00054200     ...<.2..%0...B..
9d001e54:	010a4025 00856026 014c5024 24ecffff     %@..&`..$PL....$
9d001e64:	2d8100fe 10200021 00000000              ...-!. .....

9d001e70 <Clab1>:
9d001e70:	252cffff 	addiu	t4,t1,-1
9d001e74:	2d8100fe 	sltiu	at,t4,254
9d001e78:	10200036 	beqz	at,9d001f54 <CspecB>
9d001e7c:	00000000 	nop

9d001e80 <Clab2>:
9d001e80:	00c80019 	multu	a2,t0
9d001e84:	00005812 	mflo	t3
9d001e88:	11600002 	beqz	t3,9d001e94 <i17>
9d001e8c:	00003010 	mfhi	a2
9d001e90:	34c60001 	ori	a2,a2,0x1

9d001e94 <i17>:
9d001e94:	04c00003 	bltz	a2,9d001ea4 <i18>
9d001e98:	00000000 	nop
9d001e9c:	00063040 	sll	a2,a2,0x1
9d001ea0:	24e7ffff 	addiu	a3,a3,-1

9d001ea4 <i18>:
9d001ea4:	252cff82 	addiu	t4,t1,-126
9d001ea8:	00ec3821 	addu	a3,a3,t4
9d001eac:	24ecffff 	addiu	t4,a3,-1
9d001eb0:	2d8100fe 	sltiu	at,t4,254
9d001eb4:	1020003a 	beqz	at,9d001fa0 <Coveund>
9d001eb8:	00000000 	nop

9d001ebc <Clab8>:
9d001ebc:	24c60080 	addiu	a2,a2,128
9d001ec0:	2ccc0080 	sltiu	t4,a2,128
9d001ec4:	00ec3821 	addu	a3,a3,t4
9d001ec8:	00066202 	srl	t4,a2,0x8
9d001ecc:	318c0001 	andi	t4,t4,0x1
9d001ed0:	00cc3023 	subu	a2,a2,t4
9d001ed4:	00063040 	sll	a2,a2,0x1
9d001ed8:	00063242 	srl	a2,a2,0x9
9d001edc:	000765c0 	sll	t4,a3,0x17
9d001ee0:	00cc3025 	or	a2,a2,t4
9d001ee4:	00ca1025 	or	v0,a2,t2

9d001ee8 <C999>:
9d001ee8:	03e00008 	jr	ra
9d001eec:	00000000 	nop

9d001ef0 <CspecA>:
9d001ef0:	14e0000d 	bnez	a3,9d001f28 <i19>
9d001ef4:	00000000 	nop
9d001ef8:	00c63021 	addu	a2,a2,a2
9d001efc:	10c00005 	beqz	a2,9d001f14 <i20>
9d001f00:	00000000 	nop
9d001f04:	70cb5820 	clz	t3,a2
9d001f08:	00eb3823 	subu	a3,a3,t3
9d001f0c:	1000ffd8 	b	9d001e70 <Clab1>
9d001f10:	01663004 	sllv	a2,a2,t3

9d001f14 <i20>:
9d001f14:	240100ff 	li	at,255
9d001f18:	1121001f 	beq	t1,at,9d001f98 <Cnan>
9d001f1c:	00000000 	nop
9d001f20:	10000015 	b	9d001f78 <Czer>
9d001f24:	00000000 	nop

9d001f28 <i19>:
9d001f28:	00c66021 	addu	t4,a2,a2
9d001f2c:	1580001a 	bnez	t4,9d001f98 <Cnan>
9d001f30:	00000000 	nop
9d001f34:	15200004 	bnez	t1,9d001f48 <i21>
9d001f38:	00000000 	nop
9d001f3c:	01086021 	addu	t4,t0,t0
9d001f40:	11800015 	beqz	t4,9d001f98 <Cnan>
9d001f44:	00000000 	nop

9d001f48 <i21>:
9d001f48:	240100ff 	li	at,255
9d001f4c:	1521000f 	bne	t1,at,9d001f8c <Cinf>
9d001f50:	00000000 	nop

9d001f54 <CspecB>:
9d001f54:	1520000a 	bnez	t1,9d001f80 <i22>
9d001f58:	00000000 	nop
9d001f5c:	01084021 	addu	t0,t0,t0
9d001f60:	11000005 	beqz	t0,9d001f78 <Czer>
9d001f64:	00000000 	nop
9d001f68:	710b5820 	clz	t3,t0
9d001f6c:	012b4823 	subu	t1,t1,t3
9d001f70:	1000ffc3 	b	9d001e80 <Clab2>
9d001f74:	01684004 	sllv	t0,t0,t3

9d001f78 <Czer>:
9d001f78:	1000ffdb 	b	9d001ee8 <C999>
9d001f7c:	000a1025 	or	v0,zero,t2

9d001f80 <i22>:
9d001f80:	01086021 	addu	t4,t0,t0
9d001f84:	15800004 	bnez	t4,9d001f98 <Cnan>
9d001f88:	00000000 	nop

9d001f8c <Cinf>:
9d001f8c:	3c017f80 	lui	at,0x7f80
9d001f90:	1000ffd5 	b	9d001ee8 <C999>
9d001f94:	01411025 	or	v0,t2,at

9d001f98 <Cnan>:
9d001f98:	1000ffd3 	b	9d001ee8 <C999>
9d001f9c:	3c02ffc0 	lui	v0,0xffc0

9d001fa0 <Coveund>:
9d001fa0:	1ce0fffa 	bgtz	a3,9d001f8c <Cinf>
9d001fa4:	00000000 	nop
9d001fa8:	240b0001 	li	t3,1
9d001fac:	01675823 	subu	t3,t3,a3
9d001fb0:	2d610020 	sltiu	at,t3,32
9d001fb4:	1020fff0 	beqz	at,9d001f78 <Czer>
9d001fb8:	00000000 	nop
9d001fbc:	240c0020 	li	t4,32
9d001fc0:	018b6023 	subu	t4,t4,t3
9d001fc4:	01863804 	sllv	a3,a2,t4
9d001fc8:	10e00002 	beqz	a3,9d001fd4 <i25>
9d001fcc:	01663006 	srlv	a2,a2,t3
9d001fd0:	34c60002 	ori	a2,a2,0x2

9d001fd4 <i25>:
9d001fd4:	24070000 	li	a3,0
9d001fd8:	24cc0080 	addiu	t4,a2,128
9d001fdc:	0581ffb7 	bgez	t4,9d001ebc <Clab8>
9d001fe0:	00000000 	nop
9d001fe4:	1000ffb5 	b	9d001ebc <Clab8>
9d001fe8:	24070001 	li	a3,1
9d001fec:	00000000 	nop

Disassembly of section .text.readFromI2C:

9d001ff0 <readFromI2C>:
    return 0xFFFFFFFF;  //Return a non-zero value to indicate a successful transmission
}

//Read from I2C Function, reads the desired number of bytes from the slave device at the provided address using the I2C2 peripheral
uint32_t readFromI2C(uint32_t address, uint8_t *bytes, uint32_t readLength, uint32_t addressLength)
{
9d001ff0:	27bdffe0 	addiu	sp,sp,-32
9d001ff4:	afbf001c 	sw	ra,28(sp)
9d001ff8:	afa40020 	sw	a0,32(sp)
9d001ffc:	afa50024 	sw	a1,36(sp)
9d002000:	afa60028 	sw	a2,40(sp)
9d002004:	afa7002c 	sw	a3,44(sp)
    //Determine whether or not an address shall be requested first prior to reading
    if (addressLength)
9d002008:	8fa2002c 	lw	v0,44(sp)
9d00200c:	1040000b 	beqz	v0,9d00203c <readFromI2C+0x4c>
9d002010:	00000000 	nop
    {
        if (!writeToI2C(address, bytes, addressLength)) return 0x00000000;  //Inform the device of the desired register address to read from using the address passed through *bytes
9d002014:	8fa6002c 	lw	a2,44(sp)
9d002018:	8fa50024 	lw	a1,36(sp)
9d00201c:	8fa40020 	lw	a0,32(sp)
9d002020:	0f400ac3 	jal	9d002b0c <writeToI2C>
9d002024:	00000000 	nop
9d002028:	14400004 	bnez	v0,9d00203c <readFromI2C+0x4c>
9d00202c:	00000000 	nop
9d002030:	00001025 	move	v0,zero
9d002034:	10000054 	b	9d002188 <readFromI2C+0x198>
9d002038:	00000000 	nop
    }

    //Start condition generation
    I2C2CONSET = 0x00000001;       //Generate a start condition on the I2C bus, this signals that new data is about to be sent to all slaves on the line
9d00203c:	3c02bf80 	lui	v0,0xbf80
9d002040:	24030001 	li	v1,1
9d002044:	ac435108 	sw	v1,20744(v0)
    while (I2C2CON & 0x00000001);  //Wait until the start condition is done sending to conform to I2C timing specifications
9d002048:	00000000 	nop
9d00204c:	3c02bf80 	lui	v0,0xbf80
9d002050:	8c425100 	lw	v0,20736(v0)
9d002054:	30420001 	andi	v0,v0,0x1
9d002058:	1440fffc 	bnez	v0,9d00204c <readFromI2C+0x5c>
9d00205c:	00000000 	nop

    //Sending address and read request flag
    I2C2TRN = (address << 0x00000001) | 0x00000001;  //Shift the address byte to the left by 1 bit, forcing setting Bit-0 to indicate a read request, finally writing it all to the transmit register
9d002060:	8fa20020 	lw	v0,32(sp)
9d002064:	00021040 	sll	v0,v0,0x1
9d002068:	34430001 	ori	v1,v0,0x1
9d00206c:	3c02bf80 	lui	v0,0xbf80
9d002070:	ac435150 	sw	v1,20816(v0)
    while (I2C2STAT & 0x00004000);                   //Wait until the address and read request flag have finished being sent, and the ACK flag has been read by the master
9d002074:	00000000 	nop
9d002078:	3c02bf80 	lui	v0,0xbf80
9d00207c:	8c425110 	lw	v0,20752(v0)
9d002080:	30424000 	andi	v0,v0,0x4000
9d002084:	1440fffc 	bnez	v0,9d002078 <readFromI2C+0x88>
9d002088:	00000000 	nop
    if (I2C2STAT & 0x00008000) return 0x00000000;    //Leave the function early in cases where no acknowledge is returned by the slave device
9d00208c:	3c02bf80 	lui	v0,0xbf80
9d002090:	8c425110 	lw	v0,20752(v0)
9d002094:	30428000 	andi	v0,v0,0x8000
9d002098:	10400004 	beqz	v0,9d0020ac <readFromI2C+0xbc>
9d00209c:	00000000 	nop
9d0020a0:	00001025 	move	v0,zero
9d0020a4:	10000038 	b	9d002188 <readFromI2C+0x198>
9d0020a8:	00000000 	nop

    uint8_t *ptrStop = bytes + readLength;  //Calculate the address of the bytes pointer to stop the read process at
9d0020ac:	8fa30024 	lw	v1,36(sp)
9d0020b0:	8fa20028 	lw	v0,40(sp)
9d0020b4:	00621021 	addu	v0,v1,v0
9d0020b8:	afa20010 	sw	v0,16(sp)

    //Read the next byte from the slave and store it in the provided buffer
    while (bytes != ptrStop)
9d0020bc:	10000021 	b	9d002144 <readFromI2C+0x154>
9d0020c0:	00000000 	nop
    {
        I2C2CONSET = 0x00000008;       //Start the receive process by setting the RCEN bit
9d0020c4:	3c02bf80 	lui	v0,0xbf80
9d0020c8:	24030008 	li	v1,8
9d0020cc:	ac435108 	sw	v1,20744(v0)
        while (I2C2CON & 0x00000008);  //Wait until the receive process has completed
9d0020d0:	00000000 	nop
9d0020d4:	3c02bf80 	lui	v0,0xbf80
9d0020d8:	8c425100 	lw	v0,20736(v0)
9d0020dc:	30420008 	andi	v0,v0,0x8
9d0020e0:	1440fffc 	bnez	v0,9d0020d4 <readFromI2C+0xe4>
9d0020e4:	00000000 	nop

        *bytes++ = I2C2RCV;  //Write the byte received from the slave device into the next available byte of the provided buffer array
9d0020e8:	3c02bf80 	lui	v0,0xbf80
9d0020ec:	8c445160 	lw	a0,20832(v0)
9d0020f0:	8fa20024 	lw	v0,36(sp)
9d0020f4:	24430001 	addiu	v1,v0,1
9d0020f8:	afa30024 	sw	v1,36(sp)
9d0020fc:	308300ff 	andi	v1,a0,0xff
9d002100:	a0430000 	sb	v1,0(v0)

        if (bytes == ptrStop) I2C2CONSET = 0x00000020;  //Configure the I2C peripheral to send an NACK response next if we've just received the last byte
9d002104:	8fa30024 	lw	v1,36(sp)
9d002108:	8fa20010 	lw	v0,16(sp)
9d00210c:	14620004 	bne	v1,v0,9d002120 <readFromI2C+0x130>
9d002110:	00000000 	nop
9d002114:	3c02bf80 	lui	v0,0xbf80
9d002118:	24030020 	li	v1,32
9d00211c:	ac435108 	sw	v1,20744(v0)

        I2C2CONSET = 0x00000010;       //Send an ACK response to the slave device on the I2C bus to confirm that the byte was received
9d002120:	3c02bf80 	lui	v0,0xbf80
9d002124:	24030010 	li	v1,16
9d002128:	ac435108 	sw	v1,20744(v0)
        while (I2C2CON & 0x00000010);  //Wait until the ACK condition is done sending
9d00212c:	00000000 	nop
9d002130:	3c02bf80 	lui	v0,0xbf80
9d002134:	8c425100 	lw	v0,20736(v0)
9d002138:	30420010 	andi	v0,v0,0x10
9d00213c:	1440fffc 	bnez	v0,9d002130 <readFromI2C+0x140>
9d002140:	00000000 	nop
    while (bytes != ptrStop)
9d002144:	8fa30024 	lw	v1,36(sp)
9d002148:	8fa20010 	lw	v0,16(sp)
9d00214c:	1462ffdd 	bne	v1,v0,9d0020c4 <readFromI2C+0xd4>
9d002150:	00000000 	nop
    }

    I2C2CONCLR = 0x00000020;  //Clear the ACKDT bit of the I2C control register now that sending NACK responses is no longer required
9d002154:	3c02bf80 	lui	v0,0xbf80
9d002158:	24030020 	li	v1,32
9d00215c:	ac435104 	sw	v1,20740(v0)

    //Stop condition generation
    I2C2CONSET = 0x00000004;       //Generate a stop condition on the I2C bus, this signals the end of transmission to the slave device
9d002160:	3c02bf80 	lui	v0,0xbf80
9d002164:	24030004 	li	v1,4
9d002168:	ac435108 	sw	v1,20744(v0)
    while (I2C2CON & 0x00000004);  //Wait until the stop condition is done sending
9d00216c:	00000000 	nop
9d002170:	3c02bf80 	lui	v0,0xbf80
9d002174:	8c425100 	lw	v0,20736(v0)
9d002178:	30420004 	andi	v0,v0,0x4
9d00217c:	1440fffc 	bnez	v0,9d002170 <readFromI2C+0x180>
9d002180:	00000000 	nop

    return 0xFFFFFFFF;  //Return a non-zero value to indicate a successful reception
9d002184:	2402ffff 	li	v0,-1
}
9d002188:	8fbf001c 	lw	ra,28(sp)
9d00218c:	27bd0020 	addiu	sp,sp,32
9d002190:	03e00008 	jr	ra
9d002194:	00000000 	nop

Disassembly of section .text.getResultsAtAddressDPS368:

9d002198 <getResultsAtAddressDPS368>:

//Get Results At Address Function, obtains the requested number of 24-bit results from the sensor at the provided start address
uint32_t getResultsAtAddressDPS368(uint32_t address, uint32_t *results, uint32_t count)
{
9d002198:	27bdffd0 	addiu	sp,sp,-48
9d00219c:	afbf002c 	sw	ra,44(sp)
9d0021a0:	afbe0028 	sw	s8,40(sp)
9d0021a4:	afb00024 	sw	s0,36(sp)
9d0021a8:	03a0f025 	move	s8,sp
9d0021ac:	afc40030 	sw	a0,48(s8)
9d0021b0:	afc50034 	sw	a1,52(s8)
9d0021b4:	afc60038 	sw	a2,56(s8)
9d0021b8:	03a02025 	move	a0,sp
9d0021bc:	00808025 	move	s0,a0
    uint32_t byteCount = count * 0x00000003;  //Calculate the number of bytes that need to be read to obtain the requested result count
9d0021c0:	8fc50038 	lw	a1,56(s8)
9d0021c4:	00a02025 	move	a0,a1
9d0021c8:	00042040 	sll	a0,a0,0x1
9d0021cc:	00852021 	addu	a0,a0,a1
9d0021d0:	afc40014 	sw	a0,20(s8)
    uint8_t dataBuffer[byteCount];            //Create an array containing 3 bytes for every result requested to retrieve
9d0021d4:	8fc40014 	lw	a0,20(s8)
9d0021d8:	00802825 	move	a1,a0
9d0021dc:	24a5ffff 	addiu	a1,a1,-1
9d0021e0:	afc50018 	sw	a1,24(s8)
9d0021e4:	00806025 	move	t4,a0
9d0021e8:	00006825 	move	t5,zero
9d0021ec:	000c2f42 	srl	a1,t4,0x1d
9d0021f0:	000d48c0 	sll	t1,t5,0x3
9d0021f4:	00a94825 	or	t1,a1,t1
9d0021f8:	000c40c0 	sll	t0,t4,0x3
9d0021fc:	00805025 	move	t2,a0
9d002200:	00005825 	move	t3,zero
9d002204:	000a2f42 	srl	a1,t2,0x1d
9d002208:	000b18c0 	sll	v1,t3,0x3
9d00220c:	00a31825 	or	v1,a1,v1
9d002210:	000a10c0 	sll	v0,t2,0x3
9d002214:	24820007 	addiu	v0,a0,7
9d002218:	000210c2 	srl	v0,v0,0x3
9d00221c:	000210c0 	sll	v0,v0,0x3
9d002220:	03a2e823 	subu	sp,sp,v0
9d002224:	27a20010 	addiu	v0,sp,16
9d002228:	24420000 	addiu	v0,v0,0
9d00222c:	afc2001c 	sw	v0,28(s8)

    *dataBuffer = address;  //Begin the read process at the provided start address
9d002230:	8fc20030 	lw	v0,48(s8)
9d002234:	304300ff 	andi	v1,v0,0xff
9d002238:	8fc2001c 	lw	v0,28(s8)
9d00223c:	a0430000 	sb	v1,0(v0)
    if (!readFromI2C(DPS368_I2C_ADDR, dataBuffer, byteCount, 0x00000001)) return 0x00000000;  //Attempt to read the contents of result registers on the sensor
9d002240:	8fc2001c 	lw	v0,28(s8)
9d002244:	24070001 	li	a3,1
9d002248:	8fc60014 	lw	a2,20(s8)
9d00224c:	00402825 	move	a1,v0
9d002250:	24040076 	li	a0,118
9d002254:	0f4007fc 	jal	9d001ff0 <readFromI2C>
9d002258:	00000000 	nop
9d00225c:	14400004 	bnez	v0,9d002270 <getResultsAtAddressDPS368+0xd8>
9d002260:	00000000 	nop
9d002264:	00001025 	move	v0,zero
9d002268:	10000020 	b	9d0022ec <getResultsAtAddressDPS368+0x154>
9d00226c:	00000000 	nop

    uint8_t *arrayPointer = dataBuffer;  //Declare a pointer to the dataBuffer array to use for iterating through each index of the array while extracting the measurement results
9d002270:	8fc2001c 	lw	v0,28(s8)
9d002274:	afc20010 	sw	v0,16(s8)

    //Extract each individual result from the obtained byte array and store them into the array provided
    while (count--)
9d002278:	10000016 	b	9d0022d4 <getResultsAtAddressDPS368+0x13c>
9d00227c:	00000000 	nop
    {
        *results++ = (*arrayPointer++ << 0x00000010) | (*arrayPointer++ << 0x00000008) | (*arrayPointer++);  //Combine the next 3 bytes in the dataBuffer array to form a new 24-bit measurement
9d002280:	8fc20010 	lw	v0,16(s8)
9d002284:	24430001 	addiu	v1,v0,1
9d002288:	afc30010 	sw	v1,16(s8)
9d00228c:	90420000 	lbu	v0,0(v0)
9d002290:	00021c00 	sll	v1,v0,0x10
9d002294:	8fc20010 	lw	v0,16(s8)
9d002298:	24440001 	addiu	a0,v0,1
9d00229c:	afc40010 	sw	a0,16(s8)
9d0022a0:	90420000 	lbu	v0,0(v0)
9d0022a4:	00021200 	sll	v0,v0,0x8
9d0022a8:	00621825 	or	v1,v1,v0
9d0022ac:	8fc20010 	lw	v0,16(s8)
9d0022b0:	24440001 	addiu	a0,v0,1
9d0022b4:	afc40010 	sw	a0,16(s8)
9d0022b8:	90420000 	lbu	v0,0(v0)
9d0022bc:	00622025 	or	a0,v1,v0
9d0022c0:	8fc20034 	lw	v0,52(s8)
9d0022c4:	24430004 	addiu	v1,v0,4
9d0022c8:	afc30034 	sw	v1,52(s8)
9d0022cc:	00801825 	move	v1,a0
9d0022d0:	ac430000 	sw	v1,0(v0)
    while (count--)
9d0022d4:	8fc20038 	lw	v0,56(s8)
9d0022d8:	2443ffff 	addiu	v1,v0,-1
9d0022dc:	afc30038 	sw	v1,56(s8)
9d0022e0:	1440ffe7 	bnez	v0,9d002280 <getResultsAtAddressDPS368+0xe8>
9d0022e4:	00000000 	nop
    }

    return 0xFFFFFFFF;  //Return a non-negative value to indicate the results were obtained successfully
9d0022e8:	2402ffff 	li	v0,-1
9d0022ec:	0200e825 	move	sp,s0
}
9d0022f0:	03c0e825 	move	sp,s8
9d0022f4:	8fbf002c 	lw	ra,44(sp)
9d0022f8:	8fbe0028 	lw	s8,40(sp)
9d0022fc:	8fb00024 	lw	s0,36(sp)
9d002300:	27bd0030 	addiu	sp,sp,48
9d002304:	03e00008 	jr	ra
9d002308:	00000000 	nop

Disassembly of section .text.functionSetSSD1803A:

9d00230c <functionSetSSD1803A>:
//           8           6          4          2         0
//    UD2 | UD1 | BS1 | DH` | BE | BS0 | REV | DH | RE | IS

//Function Set Function, selects what function registers the LCD controller is to respond to
uint32_t functionSetSSD1803A(registers_SSD1803A_t registerSelect)
{
9d00230c:	27bdffe0 	addiu	sp,sp,-32
9d002310:	afbf001c 	sw	ra,28(sp)
9d002314:	afa40020 	sw	a0,32(sp)
    //Don't do anything if the controller already has the desired register set selected
    if ((statusRegister_SSD1803A & 0x00000003) != registerSelect)
9d002318:	8f828030 	lw	v0,-32720(gp)
9d00231c:	30420003 	andi	v0,v0,0x3
9d002320:	8fa30020 	lw	v1,32(sp)
9d002324:	10620051 	beq	v1,v0,9d00246c <functionSetSSD1803A+0x160>
9d002328:	00000000 	nop
    {
        uint8_t commandByte = ((statusRegister_SSD1803A & 0x00000028) >> 0x00000003) | 0x00000038;  //Calculate the first expected output command and store it in a new buffer
9d00232c:	8f828030 	lw	v0,-32720(gp)
9d002330:	000210c2 	srl	v0,v0,0x3
9d002334:	304200ff 	andi	v0,v0,0xff
9d002338:	30420005 	andi	v0,v0,0x5
9d00233c:	304200ff 	andi	v0,v0,0xff
9d002340:	34420038 	ori	v0,v0,0x38
9d002344:	a3a20010 	sb	v0,16(sp)

        //Determine if we need to leave the extended register selection first when the requested IS bit is different from it's current state on the LCD controller
        // if ((statusRegister_SSD1803A & 0x00000002) == 0x00000002 && (statusRegister_SSD1803A & 0x00000001 ^ specialRegisters) == 0x00000000)
        if (((statusRegister_SSD1803A & 0x00000003) ^ (registerSelect & 0x00000001)) ^ 0x00000002)
9d002348:	8f828030 	lw	v0,-32720(gp)
9d00234c:	30430003 	andi	v1,v0,0x3
9d002350:	8fa20020 	lw	v0,32(sp)
9d002354:	30420001 	andi	v0,v0,0x1
9d002358:	00621826 	xor	v1,v1,v0
9d00235c:	24020002 	li	v0,2
9d002360:	1062000d 	beq	v1,v0,9d002398 <functionSetSSD1803A+0x8c>
9d002364:	00000000 	nop
        {
            if (!sendCommandSSD1803A(commandByte)) return 0x00000000;  //Try to take the LCD controller out of the extended registers
9d002368:	93a20010 	lbu	v0,16(sp)
9d00236c:	00402025 	move	a0,v0
9d002370:	0f401051 	jal	9d004144 <sendCommandSSD1803A>
9d002374:	00000000 	nop
9d002378:	14400004 	bnez	v0,9d00238c <functionSetSSD1803A+0x80>
9d00237c:	00000000 	nop
9d002380:	00001025 	move	v0,zero
9d002384:	1000003a 	b	9d002470 <functionSetSSD1803A+0x164>
9d002388:	00000000 	nop
            statusRegister_SSD1803A &= 0xFFFFFFFD;                     //Clear the RE bit in the driver status register to match
9d00238c:	8f828030 	lw	v0,-32720(gp)
9d002390:	7c020844 	ins	v0,zero,0x1,0x1
9d002394:	af828030 	sw	v0,-32720(gp)
        }

        //Determine how to handle this based on the requested changes based on the current state of the LCD controller
        if (statusRegister_SSD1803A & 0x00000002)
9d002398:	8f828030 	lw	v0,-32720(gp)
9d00239c:	30420002 	andi	v0,v0,0x2
9d0023a0:	10400019 	beqz	v0,9d002408 <functionSetSSD1803A+0xfc>
9d0023a4:	00000000 	nop
        {
            if (!sendCommandSSD1803A((registerSelect & 0x00000002) | commandByte)) return 0x00000000;          //Attempt to select the desired registers on the LCD controller chipset
9d0023a8:	8fa20020 	lw	v0,32(sp)
9d0023ac:	304200ff 	andi	v0,v0,0xff
9d0023b0:	30420002 	andi	v0,v0,0x2
9d0023b4:	304300ff 	andi	v1,v0,0xff
9d0023b8:	93a20010 	lbu	v0,16(sp)
9d0023bc:	00621025 	or	v0,v1,v0
9d0023c0:	304200ff 	andi	v0,v0,0xff
9d0023c4:	00402025 	move	a0,v0
9d0023c8:	0f401051 	jal	9d004144 <sendCommandSSD1803A>
9d0023cc:	00000000 	nop
9d0023d0:	14400004 	bnez	v0,9d0023e4 <functionSetSSD1803A+0xd8>
9d0023d4:	00000000 	nop
9d0023d8:	00001025 	move	v0,zero
9d0023dc:	10000024 	b	9d002470 <functionSetSSD1803A+0x164>
9d0023e0:	00000000 	nop
            statusRegister_SSD1803A = (statusRegister_SSD1803A & 0xFFFFFFFD) | (registerSelect & 0x00000002);  //Update the RE bit of the drivers status register to match the new value
9d0023e4:	8f828030 	lw	v0,-32720(gp)
9d0023e8:	7c020844 	ins	v0,zero,0x1,0x1
9d0023ec:	00401825 	move	v1,v0
9d0023f0:	8fa20020 	lw	v0,32(sp)
9d0023f4:	30420002 	andi	v0,v0,0x2
9d0023f8:	00621025 	or	v0,v1,v0
9d0023fc:	af828030 	sw	v0,-32720(gp)
9d002400:	1000001a 	b	9d00246c <functionSetSSD1803A+0x160>
9d002404:	00000000 	nop
        }
        else
        {
            commandByte = (statusRegister_SSD1803A & 0x00000004) | registerSelect | 0x00000038;  //Form the correct command byte to send to the LCD controller
9d002408:	8f828030 	lw	v0,-32720(gp)
9d00240c:	304200ff 	andi	v0,v0,0xff
9d002410:	30420004 	andi	v0,v0,0x4
9d002414:	304300ff 	andi	v1,v0,0xff
9d002418:	8fa20020 	lw	v0,32(sp)
9d00241c:	304200ff 	andi	v0,v0,0xff
9d002420:	00621025 	or	v0,v1,v0
9d002424:	304200ff 	andi	v0,v0,0xff
9d002428:	34420038 	ori	v0,v0,0x38
9d00242c:	a3a20010 	sb	v0,16(sp)
            if (!sendCommandSSD1803A(commandByte)) return 0x00000000;                            //Try sending the command to the LCD controller
9d002430:	93a20010 	lbu	v0,16(sp)
9d002434:	00402025 	move	a0,v0
9d002438:	0f401051 	jal	9d004144 <sendCommandSSD1803A>
9d00243c:	00000000 	nop
9d002440:	14400004 	bnez	v0,9d002454 <functionSetSSD1803A+0x148>
9d002444:	00000000 	nop
9d002448:	00001025 	move	v0,zero
9d00244c:	10000008 	b	9d002470 <functionSetSSD1803A+0x164>
9d002450:	00000000 	nop
            statusRegister_SSD1803A = statusRegister_SSD1803A & 0xFFFFFFFC | registerSelect;     //Update the RE and IS bits of the drivers status register to match the new values
9d002454:	8f828030 	lw	v0,-32720(gp)
9d002458:	7c020804 	ins	v0,zero,0x0,0x2
9d00245c:	00401825 	move	v1,v0
9d002460:	8fa20020 	lw	v0,32(sp)
9d002464:	00621025 	or	v0,v1,v0
9d002468:	af828030 	sw	v0,-32720(gp)
        }
    }

    return 0xFFFFFFFF;  //Return a value of true to indicate that operation completed successfully
9d00246c:	2402ffff 	li	v0,-1
}
9d002470:	8fbf001c 	lw	ra,28(sp)
9d002474:	27bd0020 	addiu	sp,sp,32
9d002478:	03e00008 	jr	ra
9d00247c:	00000000 	nop

Disassembly of section .text:

9d002480 <memcpy>:
9d002480:	00801025 	move	v0,a0
9d002484:	10c00056 	beqz	a2,9d0025e0 <memcpy+0x160>
9d002488:	2cca000c 	sltiu	t2,a2,12
9d00248c:	1540004d 	bnez	t2,9d0025c4 <memcpy+0x144>
9d002490:	00a41826 	xor	v1,a1,a0
9d002494:	30630003 	andi	v1,v1,0x3
9d002498:	00043823 	negu	a3,a0
9d00249c:	10600029 	beqz	v1,9d002544 <memcpy+0xc4>
9d0024a0:	30e70003 	andi	a3,a3,0x3
9d0024a4:	10e00006 	beqz	a3,9d0024c0 <memcpy+0x40>
9d0024a8:	00c73023 	subu	a2,a2,a3
9d0024ac:	98a30000 	lwr	v1,0(a1)
9d0024b0:	88a30003 	lwl	v1,3(a1)
9d0024b4:	00a72821 	addu	a1,a1,a3
9d0024b8:	b8830000 	swr	v1,0(a0)
9d0024bc:	00872021 	addu	a0,a0,a3
9d0024c0:	30c3000f 	andi	v1,a2,0xf
9d0024c4:	00c33823 	subu	a3,a2,v1
9d0024c8:	10e00011 	beqz	a3,9d002510 <memcpy+0x90>
9d0024cc:	00603025 	move	a2,v1
9d0024d0:	00e53821 	addu	a3,a3,a1
9d0024d4:	98a30000 	lwr	v1,0(a1)
9d0024d8:	88a30003 	lwl	v1,3(a1)
9d0024dc:	98a80004 	lwr	t0,4(a1)
9d0024e0:	88a80007 	lwl	t0,7(a1)
9d0024e4:	98a90008 	lwr	t1,8(a1)
9d0024e8:	88a9000b 	lwl	t1,11(a1)
9d0024ec:	98aa000c 	lwr	t2,12(a1)
9d0024f0:	88aa000f 	lwl	t2,15(a1)
9d0024f4:	ac830000 	sw	v1,0(a0)
9d0024f8:	ac880004 	sw	t0,4(a0)
9d0024fc:	ac890008 	sw	t1,8(a0)
9d002500:	24a50010 	addiu	a1,a1,16
9d002504:	24840010 	addiu	a0,a0,16
9d002508:	14a7fff2 	bne	a1,a3,9d0024d4 <memcpy+0x54>
9d00250c:	ac8afffc 	sw	t2,-4(a0)
9d002510:	30c30003 	andi	v1,a2,0x3
9d002514:	00c33823 	subu	a3,a2,v1
9d002518:	10e0002a 	beqz	a3,9d0025c4 <memcpy+0x144>
9d00251c:	00603025 	move	a2,v1
9d002520:	00e53821 	addu	a3,a3,a1
9d002524:	98a30000 	lwr	v1,0(a1)
9d002528:	88a30003 	lwl	v1,3(a1)
9d00252c:	24a50004 	addiu	a1,a1,4
9d002530:	24840004 	addiu	a0,a0,4
9d002534:	14a7fffb 	bne	a1,a3,9d002524 <memcpy+0xa4>
9d002538:	ac83fffc 	sw	v1,-4(a0)
9d00253c:	10000021 	b	9d0025c4 <memcpy+0x144>
9d002540:	00000000 	nop
9d002544:	10e00005 	beqz	a3,9d00255c <memcpy+0xdc>
9d002548:	00c73023 	subu	a2,a2,a3
9d00254c:	98a30000 	lwr	v1,0(a1)
9d002550:	00a72821 	addu	a1,a1,a3
9d002554:	b8830000 	swr	v1,0(a0)
9d002558:	00872021 	addu	a0,a0,a3
9d00255c:	30c3000f 	andi	v1,a2,0xf
9d002560:	00c33823 	subu	a3,a2,v1
9d002564:	10e0000d 	beqz	a3,9d00259c <memcpy+0x11c>
9d002568:	00603025 	move	a2,v1
9d00256c:	00e53821 	addu	a3,a3,a1
9d002570:	8ca30000 	lw	v1,0(a1)
9d002574:	8ca80004 	lw	t0,4(a1)
9d002578:	8ca90008 	lw	t1,8(a1)
9d00257c:	8caa000c 	lw	t2,12(a1)
9d002580:	ac830000 	sw	v1,0(a0)
9d002584:	ac880004 	sw	t0,4(a0)
9d002588:	ac890008 	sw	t1,8(a0)
9d00258c:	24a50010 	addiu	a1,a1,16
9d002590:	24840010 	addiu	a0,a0,16
9d002594:	14a7fff6 	bne	a1,a3,9d002570 <memcpy+0xf0>
9d002598:	ac8afffc 	sw	t2,-4(a0)
9d00259c:	30c30003 	andi	v1,a2,0x3
9d0025a0:	00c33823 	subu	a3,a2,v1
9d0025a4:	10e00007 	beqz	a3,9d0025c4 <memcpy+0x144>
9d0025a8:	00603025 	move	a2,v1
9d0025ac:	00e53821 	addu	a3,a3,a1
9d0025b0:	8ca30000 	lw	v1,0(a1)
9d0025b4:	24a50004 	addiu	a1,a1,4
9d0025b8:	24840004 	addiu	a0,a0,4
9d0025bc:	14a7fffc 	bne	a1,a3,9d0025b0 <memcpy+0x130>
9d0025c0:	ac83fffc 	sw	v1,-4(a0)
9d0025c4:	10c00006 	beqz	a2,9d0025e0 <memcpy+0x160>
9d0025c8:	00c53821 	addu	a3,a2,a1
9d0025cc:	90a30000 	lbu	v1,0(a1)
9d0025d0:	24a50001 	addiu	a1,a1,1
9d0025d4:	24840001 	addiu	a0,a0,1
9d0025d8:	14a7fffc 	bne	a1,a3,9d0025cc <memcpy+0x14c>
9d0025dc:	a083ffff 	sb	v1,-1(a0)
9d0025e0:	03e00008 	jr	ra
9d0025e4:	00000000 	nop

9d0025e8 <strlen>:
9d0025e8:	908a0000 	lbu	t2,0(a0)
9d0025ec:	00801025 	move	v0,a0
9d0025f0:	15400003 	bnez	t2,9d002600 <strlen+0x18>
9d0025f4:	00000000 	nop
9d0025f8:	03e00008 	jr	ra
9d0025fc:	24020000 	li	v0,0
9d002600:	908a0001 	lbu	t2,1(a0)
9d002604:	15400003 	bnez	t2,9d002614 <strlen+0x2c>
9d002608:	00000000 	nop
9d00260c:	03e00008 	jr	ra
9d002610:	24020001 	li	v0,1
9d002614:	908a0002 	lbu	t2,2(a0)
9d002618:	15400003 	bnez	t2,9d002628 <strlen+0x40>
9d00261c:	00000000 	nop
9d002620:	03e00008 	jr	ra
9d002624:	24020002 	li	v0,2
9d002628:	908a0003 	lbu	t2,3(a0)
9d00262c:	15400003 	bnez	t2,9d00263c <strlen+0x54>
9d002630:	00042082 	srl	a0,a0,0x2
9d002634:	03e00008 	jr	ra
9d002638:	24020003 	li	v0,3
9d00263c:	24840001 	addiu	a0,a0,1
9d002640:	00042080 	sll	a0,a0,0x2
9d002644:	8c8a0000 	lw	t2,0(a0)
9d002648:	3c090101 	lui	t1,0x101
9d00264c:	35290101 	ori	t1,t1,0x101
9d002650:	000979c0 	sll	t7,t1,0x7
9d002654:	01494023 	subu	t0,t2,t1
9d002658:	010f4024 	and	t0,t0,t7
9d00265c:	11000006 	beqz	t0,9d002678 <strlen+0x90>
9d002660:	010a6024 	and	t4,t0,t2
9d002664:	11880004 	beq	t4,t0,9d002678 <strlen+0x90>
9d002668:	00000000 	nop
9d00266c:	908a0000 	lbu	t2,0(a0)
9d002670:	10000022 	b	9d0026fc <strlen+0x114>
9d002674:	24840000 	addiu	a0,a0,0
9d002678:	8c8b0004 	lw	t3,4(a0)
9d00267c:	01694023 	subu	t0,t3,t1
9d002680:	010f4024 	and	t0,t0,t7
9d002684:	11000006 	beqz	t0,9d0026a0 <strlen+0xb8>
9d002688:	010b6024 	and	t4,t0,t3
9d00268c:	11880004 	beq	t4,t0,9d0026a0 <strlen+0xb8>
9d002690:	00000000 	nop
9d002694:	908a0004 	lbu	t2,4(a0)
9d002698:	10000018 	b	9d0026fc <strlen+0x114>
9d00269c:	24840004 	addiu	a0,a0,4
9d0026a0:	8c8a0008 	lw	t2,8(a0)
9d0026a4:	01494023 	subu	t0,t2,t1
9d0026a8:	010f4024 	and	t0,t0,t7
9d0026ac:	11000006 	beqz	t0,9d0026c8 <strlen+0xe0>
9d0026b0:	010a6024 	and	t4,t0,t2
9d0026b4:	11880004 	beq	t4,t0,9d0026c8 <strlen+0xe0>
9d0026b8:	00000000 	nop
9d0026bc:	908a0008 	lbu	t2,8(a0)
9d0026c0:	1000000e 	b	9d0026fc <strlen+0x114>
9d0026c4:	24840008 	addiu	a0,a0,8
9d0026c8:	8c8b000c 	lw	t3,12(a0)
9d0026cc:	01694023 	subu	t0,t3,t1
9d0026d0:	010f4024 	and	t0,t0,t7
9d0026d4:	11000006 	beqz	t0,9d0026f0 <strlen+0x108>
9d0026d8:	010b6024 	and	t4,t0,t3
9d0026dc:	11880004 	beq	t4,t0,9d0026f0 <strlen+0x108>
9d0026e0:	00000000 	nop
9d0026e4:	908a000c 	lbu	t2,12(a0)
9d0026e8:	10000004 	b	9d0026fc <strlen+0x114>
9d0026ec:	2484000c 	addiu	a0,a0,12
9d0026f0:	8c8a0010 	lw	t2,16(a0)
9d0026f4:	1000ffd7 	b	9d002654 <strlen+0x6c>
9d0026f8:	24840010 	addiu	a0,a0,16
9d0026fc:	15400004 	bnez	t2,9d002710 <strlen+0x128>
9d002700:	00000000 	nop
9d002704:	24840000 	addiu	a0,a0,0
9d002708:	03e00008 	jr	ra
9d00270c:	00821023 	subu	v0,a0,v0
9d002710:	908a0001 	lbu	t2,1(a0)
9d002714:	15400004 	bnez	t2,9d002728 <strlen+0x140>
9d002718:	00000000 	nop
9d00271c:	24840001 	addiu	a0,a0,1
9d002720:	03e00008 	jr	ra
9d002724:	00821023 	subu	v0,a0,v0
9d002728:	908a0002 	lbu	t2,2(a0)
9d00272c:	15400004 	bnez	t2,9d002740 <strlen+0x158>
9d002730:	00000000 	nop
9d002734:	24840002 	addiu	a0,a0,2
9d002738:	03e00008 	jr	ra
9d00273c:	00821023 	subu	v0,a0,v0
9d002740:	908a0003 	lbu	t2,3(a0)
9d002744:	24840003 	addiu	a0,a0,3
9d002748:	03e00008 	jr	ra
9d00274c:	00821023 	subu	v0,a0,v0

Disassembly of section .text.setPowerLevelSX1231H:

9d002750 <setPowerLevelSX1231H>:
    interactWithRegistersSX1231H(REGADDR_OPMODE, &registerValue, 0x00000001, 0x00000000);  //Send the configuration byte to the transceiver IC
}

//Set Power Level Function, sets the TX output power strength
void setPowerLevelSX1231H(uint32_t txPower)
{
9d002750:	27bdffe0 	addiu	sp,sp,-32
9d002754:	afbf001c 	sw	ra,28(sp)
9d002758:	afa40020 	sw	a0,32(sp)
    uint8_t paLevel = 0x00;               //Create a buffer variable to use for storing the value that will be written to RegPaLevel
9d00275c:	a3a00010 	sb	zero,16(sp)
    uint8_t overcurrentRegister = 0x19;   //Create another buffer for storing the value to be written to the overcurrent settings register
9d002760:	24020019 	li	v0,25
9d002764:	a3a20011 	sb	v0,17(sp)
    uint8_t pa1HighPowerRegister = 0x55;  //Make a buffer for the high power settings register of PA1, defaulting to disabling high power mode
9d002768:	24020055 	li	v0,85
9d00276c:	a3a20012 	sb	v0,18(sp)
    uint8_t pa2HighPowerRegister = 0x70;  //Make a buffer for the high power settings register of PA2, defaulting to disabling high power mode
9d002770:	24020070 	li	v0,112
9d002774:	a3a20013 	sb	v0,19(sp)

    if (txPower > 0x00000017) txPower = 0x00000017;  //Force any value of txPower greater than 0x17 back to 0x17 to prevent the offsets from messing up
9d002778:	8fa20020 	lw	v0,32(sp)
9d00277c:	2c420018 	sltiu	v0,v0,24
9d002780:	14400003 	bnez	v0,9d002790 <setPowerLevelSX1231H+0x40>
9d002784:	00000000 	nop
9d002788:	24020017 	li	v0,23
9d00278c:	afa20020 	sw	v0,32(sp)

    if (txPower >= 0x000000008)
9d002790:	8fa20020 	lw	v0,32(sp)
9d002794:	2c420008 	sltiu	v0,v0,8
9d002798:	1440000c 	bnez	v0,9d0027cc <setPowerLevelSX1231H+0x7c>
9d00279c:	00000000 	nop
    {
        paLevel = 0x68 + txPower;  //Enable both PA1 and PA2 when operating in high power mode, setting the output level as requested
9d0027a0:	8fa20020 	lw	v0,32(sp)
9d0027a4:	304200ff 	andi	v0,v0,0xff
9d0027a8:	24420068 	addiu	v0,v0,104
9d0027ac:	304200ff 	andi	v0,v0,0xff
9d0027b0:	a3a20010 	sb	v0,16(sp)

        pa1HighPowerRegister = 0x5D;  //Put PA1 into high power mode
9d0027b4:	2402005d 	li	v0,93
9d0027b8:	a3a20012 	sb	v0,18(sp)
        pa2HighPowerRegister = 0x7C;  //Put PA2 into high power mode
9d0027bc:	2402007c 	li	v0,124
9d0027c0:	a3a20013 	sb	v0,19(sp)
9d0027c4:	10000014 	b	9d002818 <setPowerLevelSX1231H+0xc8>
9d0027c8:	00000000 	nop
    }
    else if (txPower >= 0x00000005)
9d0027cc:	8fa20020 	lw	v0,32(sp)
9d0027d0:	2c420005 	sltiu	v0,v0,5
9d0027d4:	14400008 	bnez	v0,9d0027f8 <setPowerLevelSX1231H+0xa8>
9d0027d8:	00000000 	nop
    {
        paLevel = 0x6B + txPower;  //Enable both PA1 and PA2, setting the output accordingly
9d0027dc:	8fa20020 	lw	v0,32(sp)
9d0027e0:	304200ff 	andi	v0,v0,0xff
9d0027e4:	2442006b 	addiu	v0,v0,107
9d0027e8:	304200ff 	andi	v0,v0,0xff
9d0027ec:	a3a20010 	sb	v0,16(sp)
9d0027f0:	10000009 	b	9d002818 <setPowerLevelSX1231H+0xc8>
9d0027f4:	00000000 	nop
    }
    else if (txPower)
9d0027f8:	8fa20020 	lw	v0,32(sp)
9d0027fc:	10400006 	beqz	v0,9d002818 <setPowerLevelSX1231H+0xc8>
9d002800:	00000000 	nop
    {
        paLevel = 0x4F + txPower;  //Enable PA1, and set the output level accordingly
9d002804:	8fa20020 	lw	v0,32(sp)
9d002808:	304200ff 	andi	v0,v0,0xff
9d00280c:	2442004f 	addiu	v0,v0,79
9d002810:	304200ff 	andi	v0,v0,0xff
9d002814:	a3a20010 	sb	v0,16(sp)
    }

    interactWithRegistersSX1231H(REGADDR_PALEVEL, &paLevel, 0x00000001, 0x00000000);               //Write the value of paLevel to the RegPaLevel register on the transceiver IC
9d002818:	00003825 	move	a3,zero
9d00281c:	24060001 	li	a2,1
9d002820:	27a20010 	addiu	v0,sp,16
9d002824:	00402825 	move	a1,v0
9d002828:	24040011 	li	a0,17
9d00282c:	0f400a27 	jal	9d00289c <interactWithRegistersSX1231H>
9d002830:	00000000 	nop
    interactWithRegistersSX1231H(REGADDR_OCP, &overcurrentRegister, 0x00000001, 0x00000000);       //Write the value of overcurrentRegister to the RegOcp register on the transceiver IC
9d002834:	27a20011 	addiu	v0,sp,17
9d002838:	00003825 	move	a3,zero
9d00283c:	24060001 	li	a2,1
9d002840:	00402825 	move	a1,v0
9d002844:	24040013 	li	a0,19
9d002848:	0f400a27 	jal	9d00289c <interactWithRegistersSX1231H>
9d00284c:	00000000 	nop
    interactWithRegistersSX1231H(REGADDR_TESTPA1, &pa1HighPowerRegister, 0x00000001, 0x00000000);  //Write the value of pa1HighPowerRegister to the RegTestPa1 register on the transceiver IC
9d002850:	27a20012 	addiu	v0,sp,18
9d002854:	00003825 	move	a3,zero
9d002858:	24060001 	li	a2,1
9d00285c:	00402825 	move	a1,v0
9d002860:	2404005a 	li	a0,90
9d002864:	0f400a27 	jal	9d00289c <interactWithRegistersSX1231H>
9d002868:	00000000 	nop
    interactWithRegistersSX1231H(REGADDR_TESTPA2, &pa2HighPowerRegister, 0x00000001, 0x00000000);  //Write the value of pa2HighPowerRegister to the RegTestPa2 register on the transceiver IC
9d00286c:	27a20013 	addiu	v0,sp,19
9d002870:	00003825 	move	a3,zero
9d002874:	24060001 	li	a2,1
9d002878:	00402825 	move	a1,v0
9d00287c:	2404005c 	li	a0,92
9d002880:	0f400a27 	jal	9d00289c <interactWithRegistersSX1231H>
9d002884:	00000000 	nop
}
9d002888:	00000000 	nop
9d00288c:	8fbf001c 	lw	ra,28(sp)
9d002890:	27bd0020 	addiu	sp,sp,32
9d002894:	03e00008 	jr	ra
9d002898:	00000000 	nop

Disassembly of section .text.interactWithRegistersSX1231H:

9d00289c <interactWithRegistersSX1231H>:
 *****************************************/


//Interact With Registers Functions, reads/writes to the registers in the transceiver at the given start address using/into dataBytes 
void interactWithRegistersSX1231H(uint32_t startAddress, uint8_t *dataBytes, uint32_t bufferLength, uint32_t readMode)
{
9d00289c:	afa40000 	sw	a0,0(sp)
9d0028a0:	afa50004 	sw	a1,4(sp)
9d0028a4:	afa60008 	sw	a2,8(sp)
9d0028a8:	afa7000c 	sw	a3,12(sp)
    while (SPI1CON & 0x00000800);  //Wait until the SPI1 peripheral is in idle mode before starting the data transaction
9d0028ac:	00000000 	nop
9d0028b0:	3c02bf80 	lui	v0,0xbf80
9d0028b4:	8c425800 	lw	v0,22528(v0)
9d0028b8:	30420800 	andi	v0,v0,0x800
9d0028bc:	1440fffc 	bnez	v0,9d0028b0 <interactWithRegistersSX1231H+0x14>
9d0028c0:	00000000 	nop

    startAddress |= 0x00000080;                //Force-set Bit-7 of the startAddress variable to indicate the assumed write operation
9d0028c4:	8fa20000 	lw	v0,0(sp)
9d0028c8:	34420080 	ori	v0,v0,0x80
9d0028cc:	afa20000 	sw	v0,0(sp)
    if (readMode) startAddress &= 0x0000007F;  //Clear Bit-7 of startAddress when the readMode parameter is not 0
9d0028d0:	8fa2000c 	lw	v0,12(sp)
9d0028d4:	10400004 	beqz	v0,9d0028e8 <interactWithRegistersSX1231H+0x4c>
9d0028d8:	00000000 	nop
9d0028dc:	8fa20000 	lw	v0,0(sp)
9d0028e0:	3042007f 	andi	v0,v0,0x7f
9d0028e4:	afa20000 	sw	v0,0(sp)

    LATBCLR = 0x00001000;    //Clear RB12 to pull the SS line down to logic LOW
9d0028e8:	3c02bf88 	lui	v0,0xbf88
9d0028ec:	24031000 	li	v1,4096
9d0028f0:	ac436134 	sw	v1,24884(v0)
    SPI1BUF = startAddress;  //Begin the transaction by writing the contents of the startAddress variable to the data buffer of SPI2
9d0028f4:	3c02bf80 	lui	v0,0xbf80
9d0028f8:	8fa30000 	lw	v1,0(sp)
9d0028fc:	ac435820 	sw	v1,22560(v0)

    while (SPI1STAT & 0x00000800);  //Wait until the SPI2 peripheral is no longer busy before continuing
9d002900:	00000000 	nop
9d002904:	3c02bf80 	lui	v0,0xbf80
9d002908:	8c425810 	lw	v0,22544(v0)
9d00290c:	30420800 	andi	v0,v0,0x800
9d002910:	1440fffc 	bnez	v0,9d002904 <interactWithRegistersSX1231H+0x68>
9d002914:	00000000 	nop
    SPI1BUF;                        //Read from the SPI2 peripherals input buffer to clear it
9d002918:	3c02bf80 	lui	v0,0xbf80
9d00291c:	8c425820 	lw	v0,22560(v0)
    SPI1STATCLR = 0x00000040;       //Clear the Read Buffer Overflow flag in the SPI1 status register
9d002920:	3c02bf80 	lui	v0,0xbf80
9d002924:	24030040 	li	v1,64
9d002928:	ac435814 	sw	v1,22548(v0)
    
    //Perform the data exchange for the size of the provided buffer
    while (bufferLength--)
9d00292c:	10000023 	b	9d0029bc <interactWithRegistersSX1231H+0x120>
9d002930:	00000000 	nop
    {
        //Determine what data to send based on what operation is being performed
        if (readMode)
9d002934:	8fa2000c 	lw	v0,12(sp)
9d002938:	10400005 	beqz	v0,9d002950 <interactWithRegistersSX1231H+0xb4>
9d00293c:	00000000 	nop
        {
            SPI1BUF = 0x00;  //Send a series of blank of 0's when performing a read operation
9d002940:	3c02bf80 	lui	v0,0xbf80
9d002944:	ac405820 	sw	zero,22560(v0)
9d002948:	10000008 	b	9d00296c <interactWithRegistersSX1231H+0xd0>
9d00294c:	00000000 	nop
        }
        else
        {
            SPI1BUF = *(dataBytes++);  //Transmit the value stored at the address given by the dataBytes pointer, incrementing the pointer address by 1 afterwards
9d002950:	8fa20004 	lw	v0,4(sp)
9d002954:	24430001 	addiu	v1,v0,1
9d002958:	afa30004 	sw	v1,4(sp)
9d00295c:	90420000 	lbu	v0,0(v0)
9d002960:	00401825 	move	v1,v0
9d002964:	3c02bf80 	lui	v0,0xbf80
9d002968:	ac435820 	sw	v1,22560(v0)
        }

        while (SPI1STAT & 0x00000800);  //Wait until the SPI1 peripheral is no longer busy before continuing
9d00296c:	00000000 	nop
9d002970:	3c02bf80 	lui	v0,0xbf80
9d002974:	8c425810 	lw	v0,22544(v0)
9d002978:	30420800 	andi	v0,v0,0x800
9d00297c:	1440fffc 	bnez	v0,9d002970 <interactWithRegistersSX1231H+0xd4>
9d002980:	00000000 	nop

        //Collect the obtained data byte when in read mode from the SPI1 peripheral, ignoring the first byte in the sequence
        if (readMode)
9d002984:	8fa2000c 	lw	v0,12(sp)
9d002988:	1040000a 	beqz	v0,9d0029b4 <interactWithRegistersSX1231H+0x118>
9d00298c:	00000000 	nop
        {
            *(dataBytes++) = (SPI1BUF & 0x000000FF);  //Write the contents of the SPI1 receive buffer into the address specified by the dataBytes pointer
9d002990:	3c02bf80 	lui	v0,0xbf80
9d002994:	8c445820 	lw	a0,22560(v0)
9d002998:	8fa20004 	lw	v0,4(sp)
9d00299c:	24430001 	addiu	v1,v0,1
9d0029a0:	afa30004 	sw	v1,4(sp)
9d0029a4:	308300ff 	andi	v1,a0,0xff
9d0029a8:	a0430000 	sb	v1,0(v0)
9d0029ac:	10000003 	b	9d0029bc <interactWithRegistersSX1231H+0x120>
9d0029b0:	00000000 	nop
        }
        else
        {
            SPI1BUF;  //Clear the SPI1 receive buffer and its associated flags by reading from the SPI1BUF register
9d0029b4:	3c02bf80 	lui	v0,0xbf80
9d0029b8:	8c425820 	lw	v0,22560(v0)
    while (bufferLength--)
9d0029bc:	8fa20008 	lw	v0,8(sp)
9d0029c0:	2443ffff 	addiu	v1,v0,-1
9d0029c4:	afa30008 	sw	v1,8(sp)
9d0029c8:	1440ffda 	bnez	v0,9d002934 <interactWithRegistersSX1231H+0x98>
9d0029cc:	00000000 	nop
        }
    }

    LATBSET = 0x00001000;  //Clear RB12 to bring the SS line back up to its idle state of logic HIGH
9d0029d0:	3c02bf88 	lui	v0,0xbf88
9d0029d4:	24031000 	li	v1,4096
9d0029d8:	ac436138 	sw	v1,24888(v0)
}
9d0029dc:	00000000 	nop
9d0029e0:	03e00008 	jr	ra
9d0029e4:	00000000 	nop

Disassembly of section .text.newMeasureReportPacket:

9d0029e8 <newMeasureReportPacket>:
    packetBuffer->auxArgument = argument;  //Set the auxArgument value of the packet to the argument provided
}

//New Measure Report Packet Function, generates a new measurement report packet at the provided address
void newMeasureReportPacket(packetMeasureReport_t *packetBuffer, const float *temperature, const float *humidity, const float *pressure)
{
9d0029e8:	27bdffe0 	addiu	sp,sp,-32
9d0029ec:	afbf001c 	sw	ra,28(sp)
9d0029f0:	afa40020 	sw	a0,32(sp)
9d0029f4:	afa50024 	sw	a1,36(sp)
9d0029f8:	afa60028 	sw	a2,40(sp)
9d0029fc:	afa7002c 	sw	a3,44(sp)
    generateHeader(&packetBuffer->packetHeader, MEASURE_REPORT, PACKET_LENGTH_MEASUREREPORT);  //Generate a new packet header for the MEASURE_REPORT type
9d002a00:	8fa20020 	lw	v0,32(sp)
9d002a04:	2406000b 	li	a2,11
9d002a08:	24050002 	li	a1,2
9d002a0c:	00402025 	move	a0,v0
9d002a10:	0f400dea 	jal	9d0037a8 <generateHeader>
9d002a14:	00000000 	nop
    
    //Prepare the data to use in the payload
    uint32_t dataBuffer;  //Create a temporary 32-bit unsigned variable to use for data manipulation while constructing the payload

    //Put the temperature value into the payload
    dataBuffer = (int32_t) (*temperature * 100.0F);
9d002a18:	8fa20024 	lw	v0,36(sp)
9d002a1c:	8c430000 	lw	v1,0(v0)
9d002a20:	3c029d00 	lui	v0,0x9d00
9d002a24:	8c45435c 	lw	a1,17244(v0)
9d002a28:	00602025 	move	a0,v1
9d002a2c:	0f40078d 	jal	9d001e34 <__mulsf3>
9d002a30:	00000000 	nop
9d002a34:	00402025 	move	a0,v0
9d002a38:	0f400e98 	jal	9d003a60 <__fixsfsi>
9d002a3c:	00000000 	nop
9d002a40:	afa20010 	sw	v0,16(sp)
    packetBuffer->reportedTempLSB = dataBuffer & 0x000000FF;  //Store the first byte of dataBuffer in the reportedTempLSB part of the packet
9d002a44:	8fa20010 	lw	v0,16(sp)
9d002a48:	304300ff 	andi	v1,v0,0xff
9d002a4c:	8fa20020 	lw	v0,32(sp)
9d002a50:	a0430006 	sb	v1,6(v0)
    dataBuffer >>= 0x00000008;                                //Shift the contents of dataBuffer over to the right by 8 bits
9d002a54:	8fa20010 	lw	v0,16(sp)
9d002a58:	00021202 	srl	v0,v0,0x8
9d002a5c:	afa20010 	sw	v0,16(sp)
    packetBuffer->reportedTempMSB = dataBuffer & 0x000000FF;  //Write the remaining byte of dataBuffer into the reportedTempMSB portion of the packet
9d002a60:	8fa20010 	lw	v0,16(sp)
9d002a64:	304300ff 	andi	v1,v0,0xff
9d002a68:	8fa20020 	lw	v0,32(sp)
9d002a6c:	a0430005 	sb	v1,5(v0)

    //Put the relative humidity value into the payload
    dataBuffer = (uint32_t) *humidity;
9d002a70:	8fa20028 	lw	v0,40(sp)
9d002a74:	8c420000 	lw	v0,0(v0)
9d002a78:	00402025 	move	a0,v0
9d002a7c:	0f400ed7 	jal	9d003b5c <__fixunssfsi>
9d002a80:	00000000 	nop
9d002a84:	afa20010 	sw	v0,16(sp)
    packetBuffer->reportedRH = dataBuffer;  //Copy the contents of dataBuffer into the reportedRH part of the packet
9d002a88:	8fa20010 	lw	v0,16(sp)
9d002a8c:	304300ff 	andi	v1,v0,0xff
9d002a90:	8fa20020 	lw	v0,32(sp)
9d002a94:	a0430007 	sb	v1,7(v0)

    //Put the barometric pressure value into the payload
    dataBuffer = (uint32_t) *pressure;
9d002a98:	8fa2002c 	lw	v0,44(sp)
9d002a9c:	8c420000 	lw	v0,0(v0)
9d002aa0:	00402025 	move	a0,v0
9d002aa4:	0f400ed7 	jal	9d003b5c <__fixunssfsi>
9d002aa8:	00000000 	nop
9d002aac:	afa20010 	sw	v0,16(sp)
    packetBuffer->reportedPresLSB = dataBuffer & 0x000000FF;  //Store the first byte of dataBuffer in the reportedPresLSB part of the packet
9d002ab0:	8fa20010 	lw	v0,16(sp)
9d002ab4:	304300ff 	andi	v1,v0,0xff
9d002ab8:	8fa20020 	lw	v0,32(sp)
9d002abc:	a043000a 	sb	v1,10(v0)
    dataBuffer >>= 0x00000008;                                //Shift the contents of dataBuffer over to the right by 8 bits
9d002ac0:	8fa20010 	lw	v0,16(sp)
9d002ac4:	00021202 	srl	v0,v0,0x8
9d002ac8:	afa20010 	sw	v0,16(sp)
    packetBuffer->reportedPresMSB = dataBuffer & 0x000000FF;  //Write the second byte of dataBuffer into the reportedPresMSB portion of the packet
9d002acc:	8fa20010 	lw	v0,16(sp)
9d002ad0:	304300ff 	andi	v1,v0,0xff
9d002ad4:	8fa20020 	lw	v0,32(sp)
9d002ad8:	a0430009 	sb	v1,9(v0)
    dataBuffer >>= 0x00000008;                                //Shift the contents of dataBuffer over to the right by 8 bits
9d002adc:	8fa20010 	lw	v0,16(sp)
9d002ae0:	00021202 	srl	v0,v0,0x8
9d002ae4:	afa20010 	sw	v0,16(sp)
    packetBuffer->reportedPresHSB = dataBuffer & 0x000000FF;  //Write the third byte of dataBuffer into the reportedPresHSB portion of the packed
9d002ae8:	8fa20010 	lw	v0,16(sp)
9d002aec:	304300ff 	andi	v1,v0,0xff
9d002af0:	8fa20020 	lw	v0,32(sp)
9d002af4:	a0430008 	sb	v1,8(v0)
}
9d002af8:	00000000 	nop
9d002afc:	8fbf001c 	lw	ra,28(sp)
9d002b00:	27bd0020 	addiu	sp,sp,32
9d002b04:	03e00008 	jr	ra
9d002b08:	00000000 	nop

Disassembly of section .text.writeToI2C:

9d002b0c <writeToI2C>:
{
9d002b0c:	afa40000 	sw	a0,0(sp)
9d002b10:	afa50004 	sw	a1,4(sp)
9d002b14:	afa60008 	sw	a2,8(sp)
    I2C2CONSET = 0x00000001;       //Generate a start condition on the I2C bus, this signals that new data is about to be sent to all slaves on the line
9d002b18:	3c02bf80 	lui	v0,0xbf80
9d002b1c:	24030001 	li	v1,1
9d002b20:	ac435108 	sw	v1,20744(v0)
    while (I2C2CON & 0x00000001);  //Wait until the start condition is done sending to conform to I2C timing specifications
9d002b24:	00000000 	nop
9d002b28:	3c02bf80 	lui	v0,0xbf80
9d002b2c:	8c425100 	lw	v0,20736(v0)
9d002b30:	30420001 	andi	v0,v0,0x1
9d002b34:	1440fffc 	bnez	v0,9d002b28 <writeToI2C+0x1c>
9d002b38:	00000000 	nop
    I2C2TRN = (address << 0x00000001);             //Shift the value of the address over to the left by 1 bit, then write it to the transmit register
9d002b3c:	8fa20000 	lw	v0,0(sp)
9d002b40:	00021840 	sll	v1,v0,0x1
9d002b44:	3c02bf80 	lui	v0,0xbf80
9d002b48:	ac435150 	sw	v1,20816(v0)
    while (I2C2STAT & 0x00004000);                 //Wait until the address and write flag have finished being sent, and the ACK flag has been read by the master.
9d002b4c:	00000000 	nop
9d002b50:	3c02bf80 	lui	v0,0xbf80
9d002b54:	8c425110 	lw	v0,20752(v0)
9d002b58:	30424000 	andi	v0,v0,0x4000
9d002b5c:	1440fffc 	bnez	v0,9d002b50 <writeToI2C+0x44>
9d002b60:	00000000 	nop
    if (I2C2STAT & 0x00008000) return 0x00000000;  //Leave the function early in cases where no acknowledge is returned by the slave device
9d002b64:	3c02bf80 	lui	v0,0xbf80
9d002b68:	8c425110 	lw	v0,20752(v0)
9d002b6c:	30428000 	andi	v0,v0,0x8000
9d002b70:	10400019 	beqz	v0,9d002bd8 <writeToI2C+0xcc>
9d002b74:	00000000 	nop
9d002b78:	00001025 	move	v0,zero
9d002b7c:	10000025 	b	9d002c14 <writeToI2C+0x108>
9d002b80:	00000000 	nop
        I2C2TRN = *bytes++;                            //Send the next byte in the array out to the I2C bus
9d002b84:	8fa20004 	lw	v0,4(sp)
9d002b88:	24430001 	addiu	v1,v0,1
9d002b8c:	afa30004 	sw	v1,4(sp)
9d002b90:	90420000 	lbu	v0,0(v0)
9d002b94:	00401825 	move	v1,v0
9d002b98:	3c02bf80 	lui	v0,0xbf80
9d002b9c:	ac435150 	sw	v1,20816(v0)
        while (I2C2STAT & 0x00004000);                 //Wait until the byte has finished transmitting before checking for acknowledgement
9d002ba0:	00000000 	nop
9d002ba4:	3c02bf80 	lui	v0,0xbf80
9d002ba8:	8c425110 	lw	v0,20752(v0)
9d002bac:	30424000 	andi	v0,v0,0x4000
9d002bb0:	1440fffc 	bnez	v0,9d002ba4 <writeToI2C+0x98>
9d002bb4:	00000000 	nop
        if (I2C2STAT & 0x00008000) return 0x00000000;  //Leave the function early, the acknowledge bit was not received from the slave device
9d002bb8:	3c02bf80 	lui	v0,0xbf80
9d002bbc:	8c425110 	lw	v0,20752(v0)
9d002bc0:	30428000 	andi	v0,v0,0x8000
9d002bc4:	10400004 	beqz	v0,9d002bd8 <writeToI2C+0xcc>
9d002bc8:	00000000 	nop
9d002bcc:	00001025 	move	v0,zero
9d002bd0:	10000010 	b	9d002c14 <writeToI2C+0x108>
9d002bd4:	00000000 	nop
    while (length--)
9d002bd8:	8fa20008 	lw	v0,8(sp)
9d002bdc:	2443ffff 	addiu	v1,v0,-1
9d002be0:	afa30008 	sw	v1,8(sp)
9d002be4:	1440ffe7 	bnez	v0,9d002b84 <writeToI2C+0x78>
9d002be8:	00000000 	nop
    I2C2CONSET = 0x00000004;       //Generate a stop condition on the I2C bus, this signals the end of the transmission to the slave device
9d002bec:	3c02bf80 	lui	v0,0xbf80
9d002bf0:	24030004 	li	v1,4
9d002bf4:	ac435108 	sw	v1,20744(v0)
    while (I2C2CON & 0x00000004);  //Wait until the stop condition is done sending
9d002bf8:	00000000 	nop
9d002bfc:	3c02bf80 	lui	v0,0xbf80
9d002c00:	8c425100 	lw	v0,20736(v0)
9d002c04:	30420004 	andi	v0,v0,0x4
9d002c08:	1440fffc 	bnez	v0,9d002bfc <writeToI2C+0xf0>
9d002c0c:	00000000 	nop
    return 0xFFFFFFFF;  //Return a non-zero value to indicate a successful transmission
9d002c10:	2402ffff 	li	v0,-1
}
9d002c14:	03e00008 	jr	ra
9d002c18:	00000000 	nop

Disassembly of section .text.uintToDecString:

9d002c1c <uintToDecString>:
 ***********************/


//Unsigned Integer To Decimal String, converts the provided unsigned integer into it's string representation
void uintToDecString(uint32_t numberToConvert, uint8_t *stringBuffer)
{
9d002c1c:	27bdffe8 	addiu	sp,sp,-24
9d002c20:	afa40018 	sw	a0,24(sp)
9d002c24:	afa5001c 	sw	a1,28(sp)
	uint32_t counter = 0x00000000;      //Create a variable to use for tracking the digit that's being converted
9d002c28:	afa00000 	sw	zero,0(sp)
    uint8_t tempBuffer[0x0000000B];     //Create an array of 11 bytes to use for storing the generated ASCII digits before copying them into the main byte 
    uint8_t *tempPointer = tempBuffer;  //Initialize a new pointer that points at the tempBuffer array
9d002c2c:	27a20008 	addiu	v0,sp,8
9d002c30:	afa20004 	sw	v0,4(sp)

    //Perform digit separation for the size of the provided buffer
	while (counter++ <= 0x0000000B)
9d002c34:	1000001d 	b	9d002cac <uintToDecString+0x90>
9d002c38:	00000000 	nop
    {
    	*(tempPointer++) = (numberToConvert % 0x0000000A) | 0x00000030;  //Modulo the contents of numberToConvert by 10, ORing 0x30 to the result to convert the digit into an ASCII character
9d002c3c:	8fa40018 	lw	a0,24(sp)
9d002c40:	3c02cccc 	lui	v0,0xcccc
9d002c44:	3442cccd 	ori	v0,v0,0xcccd
9d002c48:	00820019 	multu	a0,v0
9d002c4c:	00001010 	mfhi	v0
9d002c50:	000218c2 	srl	v1,v0,0x3
9d002c54:	00601025 	move	v0,v1
9d002c58:	00021080 	sll	v0,v0,0x2
9d002c5c:	00431021 	addu	v0,v0,v1
9d002c60:	00021040 	sll	v0,v0,0x1
9d002c64:	00821823 	subu	v1,a0,v0
9d002c68:	306300ff 	andi	v1,v1,0xff
9d002c6c:	8fa20004 	lw	v0,4(sp)
9d002c70:	24440001 	addiu	a0,v0,1
9d002c74:	afa40004 	sw	a0,4(sp)
9d002c78:	34630030 	ori	v1,v1,0x30
9d002c7c:	306300ff 	andi	v1,v1,0xff
9d002c80:	a0430000 	sb	v1,0(v0)
        numberToConvert /= 0x0000000A;                                   //Divide numberToConvert by 10, then put the result back into the numberToConvert variable
9d002c84:	8fa30018 	lw	v1,24(sp)
9d002c88:	3c02cccc 	lui	v0,0xcccc
9d002c8c:	3442cccd 	ori	v0,v0,0xcccd
9d002c90:	00620019 	multu	v1,v0
9d002c94:	00001010 	mfhi	v0
9d002c98:	000210c2 	srl	v0,v0,0x3
9d002c9c:	afa20018 	sw	v0,24(sp)
        if (!numberToConvert) break;                                     //Break from the loop whenever numberToConvert becomes empty
9d002ca0:	8fa20018 	lw	v0,24(sp)
9d002ca4:	10400009 	beqz	v0,9d002ccc <uintToDecString+0xb0>
9d002ca8:	00000000 	nop
	while (counter++ <= 0x0000000B)
9d002cac:	8fa20000 	lw	v0,0(sp)
9d002cb0:	24430001 	addiu	v1,v0,1
9d002cb4:	afa30000 	sw	v1,0(sp)
9d002cb8:	2c42000c 	sltiu	v0,v0,12
9d002cbc:	1440ffdf 	bnez	v0,9d002c3c <uintToDecString+0x20>
9d002cc0:	00000000 	nop
9d002cc4:	1000000d 	b	9d002cfc <uintToDecString+0xe0>
9d002cc8:	00000000 	nop
        if (!numberToConvert) break;                                     //Break from the loop whenever numberToConvert becomes empty
9d002ccc:	00000000 	nop
    }

    //Starting from the array index given by the value of the counter variable, start reversing the contents of the character array so that it's legible
    while (counter--) *(stringBuffer++) = *(--tempPointer);  //Copy the character at the address before the one stored in tempPointer into the next character in the stringBuffer array
9d002cd0:	1000000a 	b	9d002cfc <uintToDecString+0xe0>
9d002cd4:	00000000 	nop
9d002cd8:	8fa20004 	lw	v0,4(sp)
9d002cdc:	2442ffff 	addiu	v0,v0,-1
9d002ce0:	afa20004 	sw	v0,4(sp)
9d002ce4:	8fa2001c 	lw	v0,28(sp)
9d002ce8:	24430001 	addiu	v1,v0,1
9d002cec:	afa3001c 	sw	v1,28(sp)
9d002cf0:	8fa30004 	lw	v1,4(sp)
9d002cf4:	90630000 	lbu	v1,0(v1)
9d002cf8:	a0430000 	sb	v1,0(v0)
9d002cfc:	8fa20000 	lw	v0,0(sp)
9d002d00:	2443ffff 	addiu	v1,v0,-1
9d002d04:	afa30000 	sw	v1,0(sp)
9d002d08:	1440fff3 	bnez	v0,9d002cd8 <uintToDecString+0xbc>
9d002d0c:	00000000 	nop

    *stringBuffer = 0x00;  //Complete the string by null terminating it with 0x00
9d002d10:	8fa2001c 	lw	v0,28(sp)
9d002d14:	a0400000 	sb	zero,0(v0)
}
9d002d18:	00000000 	nop
9d002d1c:	27bd0018 	addiu	sp,sp,24
9d002d20:	03e00008 	jr	ra
9d002d24:	00000000 	nop

Disassembly of section .text.setupExternals:

9d002d28 <setupExternals>:

//Setup Devices Function, configures any externally connected hardware devices with the correct settings needed for the application to work
inline void setupExternals()
{
9d002d28:	27bdffd8 	addiu	sp,sp,-40
9d002d2c:	afbf0024 	sw	ra,36(sp)
    //Put the barometric pressure sensor into the desired operating mode
    initializeDPS368(OVERSAMPLE_32, BACKGROUND_1HZ, OVERSAMPLE_8, BACKGROUND_1HZ, 0x00000000);  //Send the desired operating configuration to the DPS368 pressure sensor
9d002d30:	afa00010 	sw	zero,16(sp)
9d002d34:	00003825 	move	a3,zero
9d002d38:	24060003 	li	a2,3
9d002d3c:	00002825 	move	a1,zero
9d002d40:	24040005 	li	a0,5
9d002d44:	0f400699 	jal	9d001a64 <initializeDPS368>
9d002d48:	00000000 	nop

    //Initialize the radio module
    initializeSX1231H(FSK_F_BT10);
9d002d4c:	24040001 	li	a0,1
9d002d50:	0f400cd6 	jal	9d003358 <initializeSX1231H>
9d002d54:	00000000 	nop
    setCarrierFreqSX1231H(configRadioCarrier);
9d002d58:	3c0219ce 	lui	v0,0x19ce
9d002d5c:	34424af0 	ori	v0,v0,0x4af0
9d002d60:	00402025 	move	a0,v0
9d002d64:	0f400c56 	jal	9d003158 <setCarrierFreqSX1231H>
9d002d68:	00000000 	nop
    setBitRateSX1231H(configRadioBitrate);
9d002d6c:	24020960 	li	v0,2400
9d002d70:	00402025 	move	a0,v0
9d002d74:	0f400e78 	jal	9d0039e0 <setBitRateSX1231H>
9d002d78:	00000000 	nop
    setFreqDeviationSX1231H(configRadioBitrate * 2);
9d002d7c:	24020960 	li	v0,2400
9d002d80:	00021040 	sll	v0,v0,0x1
9d002d84:	00402025 	move	a0,v0
9d002d88:	0f400dc4 	jal	9d003710 <setFreqDeviationSX1231H>
9d002d8c:	00000000 	nop
    setPowerLevelSX1231H(0x00000010);
9d002d90:	24040010 	li	a0,16
9d002d94:	0f4009d4 	jal	9d002750 <setPowerLevelSX1231H>
9d002d98:	00000000 	nop
    setDeviceModeSX1231H(SLEEP);
9d002d9c:	00002025 	move	a0,zero
9d002da0:	0f400f6a 	jal	9d003da8 <setDeviceModeSX1231H>
9d002da4:	00000000 	nop

    //Initialize the LCD display
    initializeSSD1803A(LINES_4, VIEW_BOTTOM, DISPLAY_ON_NO_CURSOR, BIAS_6TH, IR1);  //Send the desired operating configuration to the LCD controller chipset
9d002da8:	24020069 	li	v0,105
9d002dac:	afa20010 	sw	v0,16(sp)
9d002db0:	24070003 	li	a3,3
9d002db4:	2406000c 	li	a2,12
9d002db8:	24050006 	li	a1,6
9d002dbc:	2404001c 	li	a0,28
9d002dc0:	0f4001e0 	jal	9d000780 <initializeSSD1803A>
9d002dc4:	00000000 	nop
    setContrastSSD1803A(0x00000060);                                                //Set the LCDs contrast
9d002dc8:	24040060 	li	a0,96
9d002dcc:	0f400c82 	jal	9d003208 <setContrastSSD1803A>
9d002dd0:	00000000 	nop

    uint32_t counter = 0x000000FF;  //Allow a maximum of 255 attempts when trying to read the calibration data from the pressure sensor
9d002dd4:	240200ff 	li	v0,255
9d002dd8:	afa20018 	sw	v0,24(sp)

    //Attempt to load the calibration data from the sensor
    while (counter--)
9d002ddc:	10000005 	b	9d002df4 <setupExternals+0xcc>
9d002de0:	00000000 	nop
    {
        if (readCalCoeffsDPS368()) break;  //Break the loop when the calibration data is read from the sensor
9d002de4:	0f4002d6 	jal	9d000b58 <readCalCoeffsDPS368>
9d002de8:	00000000 	nop
9d002dec:	14400008 	bnez	v0,9d002e10 <setupExternals+0xe8>
9d002df0:	00000000 	nop
    while (counter--)
9d002df4:	8fa20018 	lw	v0,24(sp)
9d002df8:	2443ffff 	addiu	v1,v0,-1
9d002dfc:	afa30018 	sw	v1,24(sp)
9d002e00:	1440fff8 	bnez	v0,9d002de4 <setupExternals+0xbc>
9d002e04:	00000000 	nop
    }
}
9d002e08:	10000002 	b	9d002e14 <setupExternals+0xec>
9d002e0c:	00000000 	nop
	...
9d002e18:	8fbf0024 	lw	ra,36(sp)
9d002e1c:	27bd0028 	addiu	sp,sp,40
9d002e20:	03e00008 	jr	ra
9d002e24:	00000000 	nop

Disassembly of section .text.general_exception:

9d002e28 <_general_exception_context>:
9d002e28:	27bdffa8 	addiu	sp,sp,-88
9d002e2c:	afa10004 	sw	at,4(sp)
9d002e30:	afa20008 	sw	v0,8(sp)
9d002e34:	afa3000c 	sw	v1,12(sp)
9d002e38:	afa40010 	sw	a0,16(sp)
9d002e3c:	afa50014 	sw	a1,20(sp)
9d002e40:	afa60018 	sw	a2,24(sp)
9d002e44:	afa7001c 	sw	a3,28(sp)
9d002e48:	afa80020 	sw	t0,32(sp)
9d002e4c:	afa90024 	sw	t1,36(sp)
9d002e50:	afaa0028 	sw	t2,40(sp)
9d002e54:	afab002c 	sw	t3,44(sp)
9d002e58:	afac0030 	sw	t4,48(sp)
9d002e5c:	afad0034 	sw	t5,52(sp)
9d002e60:	afae0038 	sw	t6,56(sp)
9d002e64:	afaf003c 	sw	t7,60(sp)
9d002e68:	afb80040 	sw	t8,64(sp)
9d002e6c:	afb90044 	sw	t9,68(sp)
9d002e70:	afbf0048 	sw	ra,72(sp)
9d002e74:	00004012 	mflo	t0
9d002e78:	afa8004c 	sw	t0,76(sp)
9d002e7c:	00004010 	mfhi	t0
9d002e80:	afa80050 	sw	t0,80(sp)
9d002e84:	3c1a9d00 	lui	k0,0x9d00
9d002e88:	275a40b4 	addiu	k0,k0,16564
9d002e8c:	00000000 	nop
9d002e90:	40046800 	mfc0	a0,c0_cause
9d002e94:	40056000 	mfc0	a1,c0_status
9d002e98:	0340f809 	jalr	k0
9d002e9c:	00000000 	nop
9d002ea0:	8fa80050 	lw	t0,80(sp)
9d002ea4:	01000011 	mthi	t0
9d002ea8:	8fa8004c 	lw	t0,76(sp)
9d002eac:	01000013 	mtlo	t0
9d002eb0:	8fa10004 	lw	at,4(sp)
9d002eb4:	8fa20008 	lw	v0,8(sp)
9d002eb8:	8fa3000c 	lw	v1,12(sp)
9d002ebc:	8fa40010 	lw	a0,16(sp)
9d002ec0:	8fa50014 	lw	a1,20(sp)
9d002ec4:	8fa60018 	lw	a2,24(sp)
9d002ec8:	8fa7001c 	lw	a3,28(sp)
9d002ecc:	8fa80020 	lw	t0,32(sp)
9d002ed0:	8fa90024 	lw	t1,36(sp)
9d002ed4:	8faa0028 	lw	t2,40(sp)
9d002ed8:	8fab002c 	lw	t3,44(sp)
9d002edc:	8fac0030 	lw	t4,48(sp)
9d002ee0:	8fad0034 	lw	t5,52(sp)
9d002ee4:	8fae0038 	lw	t6,56(sp)
9d002ee8:	8faf003c 	lw	t7,60(sp)
9d002eec:	8fb80040 	lw	t8,64(sp)
9d002ef0:	8fb90044 	lw	t9,68(sp)
9d002ef4:	8fbf0048 	lw	ra,72(sp)
9d002ef8:	27bd0058 	addiu	sp,sp,88
9d002efc:	000000c0 	ehb
9d002f00:	42000018 	eret

Disassembly of section .logging_constants:

9d002f04 <logConstants_measurementReport>:
9d002f04:	0a0a0a0a 7361654d 6d657275 0a746e65     ....Measurement.
9d002f14:	65542020 7265706d 72757461 20203a65       Temperature:  
9d002f24:	200a4320 20202020 696d7548 79746964      C.     Humidity
9d002f34:	2020203a 20200a25 50202020 73736572     :   %.     Press
9d002f44:	3a657275 50202020 00000061              ure:   Pa...

9d002f50 <logConstants_packet>:
9d002f50:	61500a0a 74656b63 2020200a 676e654c     ..Packet.   Leng
9d002f60:	203a6874 20200a20 72646441 3a737365     th:  .  Address:
9d002f70:	200a2020 20202020 65707954 0a20203a       .     Type:  .
9d002f80:	72462020 20656d61 20203a23 2020200a       Frame #:  .   
9d002f90:	52202020 203a7761 0c000000                 Raw: ....

9d002f9c <logConstants_rssi>:
9d002f9c:	61520a0a 0a6f6964 53522020 203a4953     ..Radio.  RSSI: 
9d002fac:	42642020 0000006d                         dBm...

9d002fb4 <logConstants_packetType_acknowledge>:
9d002fb4:	4e4b4341 454c574f 00454744 0c000000     ACKNOWLEDGE.....

9d002fc4 <logConstants_packetType_event>:
9d002fc4:	4e455645 00000054                       EVENT...

9d002fcc <logConstants_packetType_measureReport>:
9d002fcc:	5341454d 5f455255 4f504552 00005452     MEASURE_REPORT..

Disassembly of section .text.convertToRHFromSHT4X:

9d002fdc <convertToRHFromSHT4X>:
    return ((float) *rawSensorValue / 65535.0F * 315.0F) - -49.0F;  //Calculate the temperature in Fahrenheit
}

//Convert To Relative Humidity From SHT4X, returns the relative humidity in % from the provided raw SHT4X sensor data
float convertToRHFromSHT4X(const uint16_t *rawSensorValue)
{
9d002fdc:	27bdffe0 	addiu	sp,sp,-32
9d002fe0:	afbf001c 	sw	ra,28(sp)
9d002fe4:	afa40020 	sw	a0,32(sp)
    float returnValue = ((float) *rawSensorValue / 65535.0F * 125.0F) - 6.0F;  //Calculate the actual humidity as a percentage
9d002fe8:	8fa20020 	lw	v0,32(sp)
9d002fec:	94420000 	lhu	v0,0(v0)
9d002ff0:	00402025 	move	a0,v0
9d002ff4:	0f401009 	jal	9d004024 <__floatunsisf>
9d002ff8:	00000000 	nop
9d002ffc:	00401825 	move	v1,v0
9d003000:	3c029d00 	lui	v0,0x9d00
9d003004:	8c454278 	lw	a1,17016(v0)
9d003008:	00602025 	move	a0,v1
9d00300c:	0f400584 	jal	9d001610 <__divsf3>
9d003010:	00000000 	nop
9d003014:	00401825 	move	v1,v0
9d003018:	3c029d00 	lui	v0,0x9d00
9d00301c:	8c45428c 	lw	a1,17036(v0)
9d003020:	00602025 	move	a0,v1
9d003024:	0f40078d 	jal	9d001e34 <__mulsf3>
9d003028:	00000000 	nop
9d00302c:	00401825 	move	v1,v0
9d003030:	3c029d00 	lui	v0,0x9d00
9d003034:	8c454290 	lw	a1,17040(v0)
9d003038:	00602025 	move	a0,v1
9d00303c:	0f40044c 	jal	9d001130 <__subsf3>
9d003040:	00000000 	nop
9d003044:	afa20010 	sw	v0,16(sp)
    if (returnValue > 100) returnValue = 100;  //Bound the calculated relative humidity to an upper limit of 100% RH
9d003048:	3c029d00 	lui	v0,0x9d00
9d00304c:	8c454294 	lw	a1,17044(v0)
9d003050:	8fa40010 	lw	a0,16(sp)
9d003054:	0f400d76 	jal	9d0035d8 <__eqsf2>
9d003058:	00000000 	nop
9d00305c:	18400004 	blez	v0,9d003070 <convertToRHFromSHT4X+0x94>
9d003060:	00000000 	nop
9d003064:	3c029d00 	lui	v0,0x9d00
9d003068:	8c424294 	lw	v0,17044(v0)
9d00306c:	afa20010 	sw	v0,16(sp)
    if (returnValue < 0) returnValue = 0;      //Bound the calculated relative humidity to a lower limit of 0% RH
9d003070:	00002825 	move	a1,zero
9d003074:	8fa40010 	lw	a0,16(sp)
9d003078:	0f400d9d 	jal	9d003674 <fpcmplt>
9d00307c:	00000000 	nop
9d003080:	04410003 	bgez	v0,9d003090 <convertToRHFromSHT4X+0xb4>
9d003084:	00000000 	nop
9d003088:	00001025 	move	v0,zero
9d00308c:	afa20010 	sw	v0,16(sp)

    return returnValue;  //Return the calculated relative humidity
9d003090:	8fa20010 	lw	v0,16(sp)
}
9d003094:	8fbf001c 	lw	ra,28(sp)
9d003098:	27bd0020 	addiu	sp,sp,32
9d00309c:	03e00008 	jr	ra
9d0030a0:	00000000 	nop

Disassembly of section .text.dma2ISR:

9d0030a4 <dma2ISR>:
    sensorThreadState = SENSOR_DO_MEASUREMENTS;  //Wake the sensor thread into the SENSOR_DO_MEASUREMENTS state
}

//DMA Channel 2 Interrupt Handler Function, called when DMA2 aborts or finishes transferring a block of data
void __ISR(_DMA_2_VECTOR, IPL2SOFT) dma2ISR()
{
9d0030a4:	415de800 	rdpgpr	sp,sp
9d0030a8:	401a7000 	mfc0	k0,c0_epc
9d0030ac:	401b6000 	mfc0	k1,c0_status
9d0030b0:	27bdffe0 	addiu	sp,sp,-32
9d0030b4:	afba001c 	sw	k0,28(sp)
9d0030b8:	401a6002 	mfc0	k0,c0_srsctl
9d0030bc:	afbb0018 	sw	k1,24(sp)
9d0030c0:	afba0014 	sw	k0,20(sp)
9d0030c4:	7c1b7844 	ins	k1,zero,0x1,0xf
9d0030c8:	377b0800 	ori	k1,k1,0x800
9d0030cc:	409b6000 	mtc0	k1,c0_status
9d0030d0:	afbe000c 	sw	s8,12(sp)
9d0030d4:	afb10008 	sw	s1,8(sp)
9d0030d8:	afb00004 	sw	s0,4(sp)
9d0030dc:	afa30000 	sw	v1,0(sp)
9d0030e0:	03a0f025 	move	s8,sp
    IFS1CLR = 0x40000000;  //Clear the DMA 2 interrupt flag
9d0030e4:	3c10bf88 	lui	s0,0xbf88
9d0030e8:	3c114000 	lui	s1,0x4000
9d0030ec:	ae111044 	sw	s1,4164(s0)

    DCH2INT = 0x00080000;           //Clear the interrupts flags for DMA 2 itself
9d0030f0:	3c10bf88 	lui	s0,0xbf88
9d0030f4:	3c110008 	lui	s1,0x8
9d0030f8:	ae113200 	sw	s1,12800(s0)
    while (!(U2STA & 0x00000100));  //Wait until the transmission has completed fully before leaving
9d0030fc:	00000000 	nop
9d003100:	3c10bf80 	lui	s0,0xbf80
9d003104:	8e106210 	lw	s0,25104(s0)
9d003108:	32100100 	andi	s0,s0,0x100
9d00310c:	1200fffc 	beqz	s0,9d003100 <dma2ISR+0x5c>
9d003110:	00000000 	nop
}
9d003114:	00000000 	nop
9d003118:	03c0e825 	move	sp,s8
9d00311c:	8fbe000c 	lw	s8,12(sp)
9d003120:	8fb10008 	lw	s1,8(sp)
9d003124:	8fb00004 	lw	s0,4(sp)
9d003128:	8fa30000 	lw	v1,0(sp)
9d00312c:	41606000 	di
9d003130:	000000c0 	ehb
9d003134:	8fba001c 	lw	k0,28(sp)
9d003138:	8fbb0018 	lw	k1,24(sp)
9d00313c:	409a7000 	mtc0	k0,c0_epc
9d003140:	8fba0014 	lw	k0,20(sp)
9d003144:	27bd0020 	addiu	sp,sp,32
9d003148:	409a6002 	mtc0	k0,c0_srsctl
9d00314c:	41dde800 	wrpgpr	sp,sp
9d003150:	409b6000 	mtc0	k1,c0_status
9d003154:	42000018 	eret

Disassembly of section .text.setCarrierFreqSX1231H:

9d003158 <setCarrierFreqSX1231H>:
{
9d003158:	27bdffd8 	addiu	sp,sp,-40
9d00315c:	afbf0024 	sw	ra,36(sp)
9d003160:	afa40028 	sw	a0,40(sp)
    float calculatedFrequency = (float) freqRF / SX1231H_F_STEP;  //Calculate the value of Frf to provide the transceiver IC to achieve the desired carrier frequency
9d003164:	8fa40028 	lw	a0,40(sp)
9d003168:	0f401009 	jal	9d004024 <__floatunsisf>
9d00316c:	00000000 	nop
9d003170:	00401825 	move	v1,v0
9d003174:	3c029d00 	lui	v0,0x9d00
9d003178:	8c454270 	lw	a1,17008(v0)
9d00317c:	00602025 	move	a0,v1
9d003180:	0f400584 	jal	9d001610 <__divsf3>
9d003184:	00000000 	nop
9d003188:	afa20010 	sw	v0,16(sp)
    uint32_t regFrfValue = calculatedFrequency;                   //Force cast the calculated value into an unsigned 32-bit integer to make byte separation easier
9d00318c:	8fa40010 	lw	a0,16(sp)
9d003190:	0f400ed7 	jal	9d003b5c <__fixunssfsi>
9d003194:	00000000 	nop
9d003198:	afa20014 	sw	v0,20(sp)
    registerValues[0x00000002] = regFrfValue & 0x000000FF;  //Write the first 8 bits of regFrfValue into the 3rd element of the registerValues array
9d00319c:	8fa20014 	lw	v0,20(sp)
9d0031a0:	304200ff 	andi	v0,v0,0xff
9d0031a4:	a3a2001a 	sb	v0,26(sp)
    regFrfValue >>= 0x00000008;                             //Shift the contents of regFrfValue to the right by 8 bits
9d0031a8:	8fa20014 	lw	v0,20(sp)
9d0031ac:	00021202 	srl	v0,v0,0x8
9d0031b0:	afa20014 	sw	v0,20(sp)
    registerValues[0x00000001] = regFrfValue & 0x000000FF;  //Write the next 8 bits of regFrfValue into the 2nd element of the registerValues array
9d0031b4:	8fa20014 	lw	v0,20(sp)
9d0031b8:	304200ff 	andi	v0,v0,0xff
9d0031bc:	a3a20019 	sb	v0,25(sp)
    regFrfValue >>= 0x00000008;                             //Shift the contents of regFrfValue to the right by 8 bits
9d0031c0:	8fa20014 	lw	v0,20(sp)
9d0031c4:	00021202 	srl	v0,v0,0x8
9d0031c8:	afa20014 	sw	v0,20(sp)
    registerValues[0x00000000] = regFrfValue & 0x000000FF;  //Write the final 8 bits of the regFrfValue variable into the first index of the array
9d0031cc:	8fa20014 	lw	v0,20(sp)
9d0031d0:	304200ff 	andi	v0,v0,0xff
9d0031d4:	a3a20018 	sb	v0,24(sp)
    interactWithRegistersSX1231H(REGADDR_FRF_MSB, registerValues, 0x00000003, 0x00000000);  //Send the configuration bytes to the transceiver IC
9d0031d8:	27a20018 	addiu	v0,sp,24
9d0031dc:	00003825 	move	a3,zero
9d0031e0:	24060003 	li	a2,3
9d0031e4:	00402825 	move	a1,v0
9d0031e8:	24040007 	li	a0,7
9d0031ec:	0f400a27 	jal	9d00289c <interactWithRegistersSX1231H>
9d0031f0:	00000000 	nop
}
9d0031f4:	00000000 	nop
9d0031f8:	8fbf0024 	lw	ra,36(sp)
9d0031fc:	27bd0028 	addiu	sp,sp,40
9d003200:	03e00008 	jr	ra
9d003204:	00000000 	nop

Disassembly of section .text.setContrastSSD1803A:

9d003208 <setContrastSSD1803A>:
{
9d003208:	27bdffe8 	addiu	sp,sp,-24
9d00320c:	afbf0014 	sw	ra,20(sp)
9d003210:	00801025 	move	v0,a0
9d003214:	a3a20018 	sb	v0,24(sp)
    if (!functionSetSSD1803A(RE_0_IS_1)) return 0x00000000;                                 //Try selecting the special instruction registers on the LCD controller
9d003218:	24040001 	li	a0,1
9d00321c:	0f4008c3 	jal	9d00230c <functionSetSSD1803A>
9d003220:	00000000 	nop
9d003224:	14400004 	bnez	v0,9d003238 <setContrastSSD1803A+0x30>
9d003228:	00000000 	nop
9d00322c:	00001025 	move	v0,zero
9d003230:	1000001c 	b	9d0032a4 <setContrastSSD1803A+0x9c>
9d003234:	00000000 	nop
    if (!sendCommandSSD1803A((newContrast & 0x0000000F) | 0x00000070)) return 0x00000000;   //Send the LSB of the requested contrast setting to the controller
9d003238:	83a20018 	lb	v0,24(sp)
9d00323c:	3042000f 	andi	v0,v0,0xf
9d003240:	7c021420 	seb	v0,v0
9d003244:	34420070 	ori	v0,v0,0x70
9d003248:	7c021420 	seb	v0,v0
9d00324c:	304200ff 	andi	v0,v0,0xff
9d003250:	00402025 	move	a0,v0
9d003254:	0f401051 	jal	9d004144 <sendCommandSSD1803A>
9d003258:	00000000 	nop
9d00325c:	14400004 	bnez	v0,9d003270 <setContrastSSD1803A+0x68>
9d003260:	00000000 	nop
9d003264:	00001025 	move	v0,zero
9d003268:	1000000e 	b	9d0032a4 <setContrastSSD1803A+0x9c>
9d00326c:	00000000 	nop
    if (!sendCommandSSD1803A((newContrast >> 0x00000004) | 0x00000054)) return 0x00000000;  //Send the MSB of the requested contrast setting to the controller
9d003270:	93a20018 	lbu	v0,24(sp)
9d003274:	00021102 	srl	v0,v0,0x4
9d003278:	304200ff 	andi	v0,v0,0xff
9d00327c:	34420054 	ori	v0,v0,0x54
9d003280:	304200ff 	andi	v0,v0,0xff
9d003284:	00402025 	move	a0,v0
9d003288:	0f401051 	jal	9d004144 <sendCommandSSD1803A>
9d00328c:	00000000 	nop
9d003290:	14400004 	bnez	v0,9d0032a4 <setContrastSSD1803A+0x9c>
9d003294:	00000000 	nop
9d003298:	00001025 	move	v0,zero
9d00329c:	10000001 	b	9d0032a4 <setContrastSSD1803A+0x9c>
9d0032a0:	00000000 	nop
}
9d0032a4:	8fbf0014 	lw	ra,20(sp)
9d0032a8:	27bd0018 	addiu	sp,sp,24
9d0032ac:	03e00008 	jr	ra
9d0032b0:	00000000 	nop

Disassembly of section .text.getResultsSHT4X:

9d0032b4 <getResultsSHT4X>:
{
9d0032b4:	27bdffe0 	addiu	sp,sp,-32
9d0032b8:	afbf001c 	sw	ra,28(sp)
9d0032bc:	afa40020 	sw	a0,32(sp)
9d0032c0:	afa50024 	sw	a1,36(sp)
    if (!readFromI2C(SHT4X_I2C_ADDR, dataBuffer, 0x00000006, 0x00)) return 0x00000000;  //Attempt to read from the sensors FIFO buffer, exit the function with 0x00 if the sensor is non-responsive
9d0032c4:	00003825 	move	a3,zero
9d0032c8:	24060006 	li	a2,6
9d0032cc:	27a20010 	addiu	v0,sp,16
9d0032d0:	00402825 	move	a1,v0
9d0032d4:	24040044 	li	a0,68
9d0032d8:	0f4007fc 	jal	9d001ff0 <readFromI2C>
9d0032dc:	00000000 	nop
9d0032e0:	14400004 	bnez	v0,9d0032f4 <getResultsSHT4X+0x40>
9d0032e4:	00000000 	nop
9d0032e8:	00001025 	move	v0,zero
9d0032ec:	10000016 	b	9d003348 <getResultsSHT4X+0x94>
9d0032f0:	00000000 	nop
    *rawTemperature = (dataBuffer[0x00000000] << 0x00000008) + dataBuffer[0x00000001];  //Consolidate the raw temperature measurement from the byte array obtained from the sensor
9d0032f4:	93a20010 	lbu	v0,16(sp)
9d0032f8:	3042ffff 	andi	v0,v0,0xffff
9d0032fc:	00021200 	sll	v0,v0,0x8
9d003300:	3043ffff 	andi	v1,v0,0xffff
9d003304:	93a20011 	lbu	v0,17(sp)
9d003308:	3042ffff 	andi	v0,v0,0xffff
9d00330c:	00621021 	addu	v0,v1,v0
9d003310:	3043ffff 	andi	v1,v0,0xffff
9d003314:	8fa20020 	lw	v0,32(sp)
9d003318:	a4430000 	sh	v1,0(v0)
    *rawHumidity = (dataBuffer[0x00000003] << 0x00000008) + dataBuffer[0x00000004];     //Consolidate the raw humidity measurement from the byte array obtained from the sensor
9d00331c:	93a20013 	lbu	v0,19(sp)
9d003320:	3042ffff 	andi	v0,v0,0xffff
9d003324:	00021200 	sll	v0,v0,0x8
9d003328:	3043ffff 	andi	v1,v0,0xffff
9d00332c:	93a20014 	lbu	v0,20(sp)
9d003330:	3042ffff 	andi	v0,v0,0xffff
9d003334:	00621021 	addu	v0,v1,v0
9d003338:	3043ffff 	andi	v1,v0,0xffff
9d00333c:	8fa20024 	lw	v0,36(sp)
9d003340:	a4430000 	sh	v1,0(v0)
    return 0xFFFFFFFF;  //Indicate a successful FIFO read by returning 0xFF
9d003344:	2402ffff 	li	v0,-1
}
9d003348:	8fbf001c 	lw	ra,28(sp)
9d00334c:	27bd0020 	addiu	sp,sp,32
9d003350:	03e00008 	jr	ra
9d003354:	00000000 	nop

Disassembly of section .text.initializeSX1231H:

9d003358 <initializeSX1231H>:
{
9d003358:	27bdffe0 	addiu	sp,sp,-32
9d00335c:	afbf001c 	sw	ra,28(sp)
9d003360:	afa40020 	sw	a0,32(sp)
    configBytes[0x00000000] = 0x04;        //Put the transceiver into STANDBY mode by default
9d003364:	24020004 	li	v0,4
9d003368:	a3a20010 	sb	v0,16(sp)
    configBytes[0x00000001] = modulation;  //Set the desired modulation scheme
9d00336c:	8fa20020 	lw	v0,32(sp)
9d003370:	304200ff 	andi	v0,v0,0xff
9d003374:	a3a20011 	sb	v0,17(sp)
    interactWithRegistersSX1231H(0x00000001, configBytes, 0x00000002, 0x00000000);  //Send the configuration bytes to the transceiver IC with a starting address of 0x01 (RegOpMode)
9d003378:	00003825 	move	a3,zero
9d00337c:	24060002 	li	a2,2
9d003380:	27a20010 	addiu	v0,sp,16
9d003384:	00402825 	move	a1,v0
9d003388:	24040001 	li	a0,1
9d00338c:	0f400a27 	jal	9d00289c <interactWithRegistersSX1231H>
9d003390:	00000000 	nop
    interactWithRegistersSX1231H(0x00000018, (uint8_t *) sx1231hInit_Receiver, 0x00000002, 0x00000000);  //Send the configuration bytes to the transceiver IC with a starting address of 0x18
9d003394:	00003825 	move	a3,zero
9d003398:	24060002 	li	a2,2
9d00339c:	3c029d00 	lui	v0,0x9d00
9d0033a0:	24454254 	addiu	a1,v0,16980
9d0033a4:	24040018 	li	a0,24
9d0033a8:	0f400a27 	jal	9d00289c <interactWithRegistersSX1231H>
9d0033ac:	00000000 	nop
    interactWithRegistersSX1231H(0x00000025, (uint8_t *) sx1231hInit_DIOMapping, 0x00000001, 0x00000000);  //Send the configuration bytes to the transceiver IC with a starting address of 0x25
9d0033b0:	00003825 	move	a3,zero
9d0033b4:	24060001 	li	a2,1
9d0033b8:	3c029d00 	lui	v0,0x9d00
9d0033bc:	24454258 	addiu	a1,v0,16984
9d0033c0:	24040025 	li	a0,37
9d0033c4:	0f400a27 	jal	9d00289c <interactWithRegistersSX1231H>
9d0033c8:	00000000 	nop
    interactWithRegistersSX1231H(0x0000002C, (uint8_t *) sx1231hInit_PacketEngine, 0x00000012, 0x00000000);  //Send the configuration bytes to the transceiver IC with a starting address of 0x2C
9d0033cc:	00003825 	move	a3,zero
9d0033d0:	24060012 	li	a2,18
9d0033d4:	3c029d00 	lui	v0,0x9d00
9d0033d8:	2445425c 	addiu	a1,v0,16988
9d0033dc:	2404002c 	li	a0,44
9d0033e0:	0f400a27 	jal	9d00289c <interactWithRegistersSX1231H>
9d0033e4:	00000000 	nop
}
9d0033e8:	00000000 	nop
9d0033ec:	8fbf001c 	lw	ra,28(sp)
9d0033f0:	27bd0020 	addiu	sp,sp,32
9d0033f4:	03e00008 	jr	ra
9d0033f8:	00000000 	nop

Disassembly of section .text.rtccAlarmISR:

9d0033fc <rtccAlarmISR>:
{
9d0033fc:	415de800 	rdpgpr	sp,sp
9d003400:	401a7000 	mfc0	k0,c0_epc
9d003404:	401b6000 	mfc0	k1,c0_status
9d003408:	27bdffe0 	addiu	sp,sp,-32
9d00340c:	afba001c 	sw	k0,28(sp)
9d003410:	401a6002 	mfc0	k0,c0_srsctl
9d003414:	afbb0018 	sw	k1,24(sp)
9d003418:	afba0014 	sw	k0,20(sp)
9d00341c:	7c1b7844 	ins	k1,zero,0x1,0xf
9d003420:	377b0800 	ori	k1,k1,0x800
9d003424:	409b6000 	mtc0	k1,c0_status
9d003428:	afbe000c 	sw	s8,12(sp)
9d00342c:	afb10008 	sw	s1,8(sp)
9d003430:	afb00004 	sw	s0,4(sp)
9d003434:	afa30000 	sw	v1,0(sp)
9d003438:	03a0f025 	move	s8,sp
    IFS0CLR = 0x40000000;  //Clear the RTCC interrupt flag
9d00343c:	3c10bf88 	lui	s0,0xbf88
9d003440:	3c114000 	lui	s1,0x4000
9d003444:	ae111034 	sw	s1,4148(s0)
    RTCCON = 0x00002208;                         //Stop and disable the RTCC now that we have woken up again
9d003448:	3c10bf80 	lui	s0,0xbf80
9d00344c:	24112208 	li	s1,8712
9d003450:	ae110200 	sw	s1,512(s0)
    sensorThreadState = SENSOR_DO_MEASUREMENTS;  //Wake the sensor thread into the SENSOR_DO_MEASUREMENTS state
9d003454:	24100001 	li	s0,1
9d003458:	af908038 	sw	s0,-32712(gp)
}
9d00345c:	00000000 	nop
9d003460:	03c0e825 	move	sp,s8
9d003464:	8fbe000c 	lw	s8,12(sp)
9d003468:	8fb10008 	lw	s1,8(sp)
9d00346c:	8fb00004 	lw	s0,4(sp)
9d003470:	8fa30000 	lw	v1,0(sp)
9d003474:	41606000 	di
9d003478:	000000c0 	ehb
9d00347c:	8fba001c 	lw	k0,28(sp)
9d003480:	8fbb0018 	lw	k1,24(sp)
9d003484:	409a7000 	mtc0	k0,c0_epc
9d003488:	8fba0014 	lw	k0,20(sp)
9d00348c:	27bd0020 	addiu	sp,sp,32
9d003490:	409a6002 	mtc0	k0,c0_srsctl
9d003494:	41dde800 	wrpgpr	sp,sp
9d003498:	409b6000 	mtc0	k1,c0_status
9d00349c:	42000018 	eret

Disassembly of section .text.timer1PeriodMatchISR:

9d0034a0 <timer1PeriodMatchISR>:
{
9d0034a0:	415de800 	rdpgpr	sp,sp
9d0034a4:	401a7000 	mfc0	k0,c0_epc
9d0034a8:	401b6000 	mfc0	k1,c0_status
9d0034ac:	27bdffe0 	addiu	sp,sp,-32
9d0034b0:	afba001c 	sw	k0,28(sp)
9d0034b4:	401a6002 	mfc0	k0,c0_srsctl
9d0034b8:	afbb0018 	sw	k1,24(sp)
9d0034bc:	afba0014 	sw	k0,20(sp)
9d0034c0:	7c1b7844 	ins	k1,zero,0x1,0xf
9d0034c4:	377b0800 	ori	k1,k1,0x800
9d0034c8:	409b6000 	mtc0	k1,c0_status
9d0034cc:	afbe000c 	sw	s8,12(sp)
9d0034d0:	afb10008 	sw	s1,8(sp)
9d0034d4:	afb00004 	sw	s0,4(sp)
9d0034d8:	afa30000 	sw	v1,0(sp)
9d0034dc:	03a0f025 	move	s8,sp
    IFS0CLR = 0x00000010;  //Clear the Timer 1 interrupt flag
9d0034e0:	3c10bf88 	lui	s0,0xbf88
9d0034e4:	24110010 	li	s1,16
9d0034e8:	ae111034 	sw	s1,4148(s0)
    T1CONCLR = 0x00008000;  //Stop Timer 1 by clearing Bit-15 of the T1CON register
9d0034ec:	3c10bf80 	lui	s0,0xbf80
9d0034f0:	34118000 	li	s1,0x8000
9d0034f4:	ae110604 	sw	s1,1540(s0)
}
9d0034f8:	00000000 	nop
9d0034fc:	03c0e825 	move	sp,s8
9d003500:	8fbe000c 	lw	s8,12(sp)
9d003504:	8fb10008 	lw	s1,8(sp)
9d003508:	8fb00004 	lw	s0,4(sp)
9d00350c:	8fa30000 	lw	v1,0(sp)
9d003510:	41606000 	di
9d003514:	000000c0 	ehb
9d003518:	8fba001c 	lw	k0,28(sp)
9d00351c:	8fbb0018 	lw	k1,24(sp)
9d003520:	409a7000 	mtc0	k0,c0_epc
9d003524:	8fba0014 	lw	k0,20(sp)
9d003528:	27bd0020 	addiu	sp,sp,32
9d00352c:	409a6002 	mtc0	k0,c0_srsctl
9d003530:	41dde800 	wrpgpr	sp,sp
9d003534:	409b6000 	mtc0	k1,c0_status
9d003538:	42000018 	eret

Disassembly of section .text.portChangeNoticeISR:

9d00353c <portChangeNoticeISR>:
    //Do something here
}

//Port Change Notice Interrupt Handler Function, called when any of the 3 buttons or reed switch changes state
void __ISR(_CHANGE_NOTICE_VECTOR, IPL1SOFT) portChangeNoticeISR()
{
9d00353c:	415de800 	rdpgpr	sp,sp
9d003540:	401a7000 	mfc0	k0,c0_epc
9d003544:	401b6000 	mfc0	k1,c0_status
9d003548:	27bdffd8 	addiu	sp,sp,-40
9d00354c:	afba0024 	sw	k0,36(sp)
9d003550:	401a6002 	mfc0	k0,c0_srsctl
9d003554:	afbb0020 	sw	k1,32(sp)
9d003558:	afba001c 	sw	k0,28(sp)
9d00355c:	7c1b7844 	ins	k1,zero,0x1,0xf
9d003560:	377b0400 	ori	k1,k1,0x400
9d003564:	409b6000 	mtc0	k1,c0_status
9d003568:	afbe0014 	sw	s8,20(sp)
9d00356c:	afb10010 	sw	s1,16(sp)
9d003570:	afb0000c 	sw	s0,12(sp)
9d003574:	afa30008 	sw	v1,8(sp)
9d003578:	03a0f025 	move	s8,sp
    uint32_t statbBuffer = CNSTATB;  //Create a temp copy of the state of CNSTATB so that PORTB calls aren't changing CNSTATB for the next if statement
9d00357c:	3c10bf88 	lui	s0,0xbf88
9d003580:	8e106190 	lw	s0,24976(s0)
9d003584:	afd00000 	sw	s0,0(s8)
    IFS1CLR = 0x00002000;            //Clear Port Change Notice interrupt flag
9d003588:	3c10bf88 	lui	s0,0xbf88
9d00358c:	24112000 	li	s1,8192
9d003590:	ae111044 	sw	s1,4164(s0)

    //Do something here
9d003594:	00000000 	nop
9d003598:	03c0e825 	move	sp,s8
9d00359c:	8fbe0014 	lw	s8,20(sp)
9d0035a0:	8fb10010 	lw	s1,16(sp)
9d0035a4:	8fb0000c 	lw	s0,12(sp)
9d0035a8:	8fa30008 	lw	v1,8(sp)
9d0035ac:	41606000 	di
9d0035b0:	000000c0 	ehb
9d0035b4:	8fba0024 	lw	k0,36(sp)
9d0035b8:	8fbb0020 	lw	k1,32(sp)
9d0035bc:	409a7000 	mtc0	k0,c0_epc
9d0035c0:	8fba001c 	lw	k0,28(sp)
9d0035c4:	27bd0028 	addiu	sp,sp,40
9d0035c8:	409a6002 	mtc0	k0,c0_srsctl
9d0035cc:	41dde800 	wrpgpr	sp,sp
9d0035d0:	409b6000 	mtc0	k1,c0_status
9d0035d4:	42000018 	eret

Disassembly of section .text.fpcmp:

9d0035d8 <__eqsf2>:
9d0035d8:	2408fffe 00043040 00053840 00c74825     ...$@0..@8..%H..
9d0035e8:	1120001b 00000000 3c01ff00 34210001     .. ........<..!4
9d0035f8:	00c1082b 1020001a 00000000 3c01ff00     +..... ........<
9d003608:	34210001 00e1082b 10200015 00000000     ..!4+..... .....
9d003618:	04810002 00063042 00063023              ....B0..#0..

9d003624 <i48>:
9d003624:	04a10002 	bgez	a1,9d003630 <i49>
9d003628:	00073842 	srl	a3,a3,0x1
9d00362c:	00073823 	negu	a3,a3

9d003630 <i49>:
9d003630:	00c7082a 	slt	at,a2,a3
9d003634:	10200003 	beqz	at,9d003644 <i50>
9d003638:	00000000 	nop
9d00363c:	10000007 	b	9d00365c <J999>
9d003640:	2402ffff 	li	v0,-1

9d003644 <i50>:
9d003644:	00e6082a 	slt	at,a3,a2
9d003648:	10200003 	beqz	at,9d003658 <Jequ>
9d00364c:	00000000 	nop
9d003650:	10000002 	b	9d00365c <J999>
9d003654:	24020001 	li	v0,1

9d003658 <Jequ>:
9d003658:	24020000 	li	v0,0

9d00365c <J999>:
9d00365c:	03e00008 	jr	ra
9d003660:	00000000 	nop
9d003664:	00000000 	nop

9d003668 <Jnan>:
9d003668:	1000fffc 	b	9d00365c <J999>
9d00366c:	00081025 	or	v0,zero,t0
9d003670:	00000000 	nop

Disassembly of section .text.fpcmplt:

9d003674 <fpcmplt>:
9d003674:	2408fffe 	li	t0,-2
9d003678:	00043040 	sll	a2,a0,0x1
9d00367c:	00053840 	sll	a3,a1,0x1
9d003680:	00c74825 	or	t1,a2,a3
9d003684:	1120001b 	beqz	t1,9d0036f4 <fpcmplt+0x80>
9d003688:	00000000 	nop
9d00368c:	3c01ff00 	lui	at,0xff00
9d003690:	34210001 	ori	at,at,0x1
9d003694:	00c1082b 	sltu	at,a2,at
9d003698:	1020001a 	beqz	at,9d003704 <fpcmplt+0x90>
9d00369c:	00000000 	nop
9d0036a0:	3c01ff00 	lui	at,0xff00
9d0036a4:	34210001 	ori	at,at,0x1
9d0036a8:	00e1082b 	sltu	at,a3,at
9d0036ac:	10200015 	beqz	at,9d003704 <fpcmplt+0x90>
9d0036b0:	00000000 	nop
9d0036b4:	04810002 	bgez	a0,9d0036c0 <fpcmplt+0x4c>
9d0036b8:	00063042 	srl	a2,a2,0x1
9d0036bc:	00063023 	negu	a2,a2
9d0036c0:	04a10002 	bgez	a1,9d0036cc <fpcmplt+0x58>
9d0036c4:	00073842 	srl	a3,a3,0x1
9d0036c8:	00073823 	negu	a3,a3
9d0036cc:	00c7082a 	slt	at,a2,a3
9d0036d0:	10200003 	beqz	at,9d0036e0 <fpcmplt+0x6c>
9d0036d4:	00000000 	nop
9d0036d8:	10000007 	b	9d0036f8 <fpcmplt+0x84>
9d0036dc:	2402ffff 	li	v0,-1
9d0036e0:	00e6082a 	slt	at,a3,a2
9d0036e4:	10200003 	beqz	at,9d0036f4 <fpcmplt+0x80>
9d0036e8:	00000000 	nop
9d0036ec:	10000002 	b	9d0036f8 <fpcmplt+0x84>
9d0036f0:	24020001 	li	v0,1
9d0036f4:	24020000 	li	v0,0
9d0036f8:	03e00008 	jr	ra
9d0036fc:	00000000 	nop
9d003700:	00000000 	nop
9d003704:	1000fffc 	b	9d0036f8 <fpcmplt+0x84>
9d003708:	34020001 	li	v0,0x1
9d00370c:	00000000 	nop

Disassembly of section .text.setFreqDeviationSX1231H:

9d003710 <setFreqDeviationSX1231H>:
{
9d003710:	27bdffd8 	addiu	sp,sp,-40
9d003714:	afbf0024 	sw	ra,36(sp)
9d003718:	afa40028 	sw	a0,40(sp)
    float calculatedDeviation = (float) freqDev / SX1231H_F_STEP;  //Calculate the value of Fdev to provide to the transceiver to achieve the desired frequency deviation in FSK mode
9d00371c:	8fa40028 	lw	a0,40(sp)
9d003720:	0f401009 	jal	9d004024 <__floatunsisf>
9d003724:	00000000 	nop
9d003728:	00401825 	move	v1,v0
9d00372c:	3c029d00 	lui	v0,0x9d00
9d003730:	8c454270 	lw	a1,17008(v0)
9d003734:	00602025 	move	a0,v1
9d003738:	0f400584 	jal	9d001610 <__divsf3>
9d00373c:	00000000 	nop
9d003740:	afa20010 	sw	v0,16(sp)
    uint16_t regFdevValue = calculatedDeviation;                   //Force cast the calculated value into an unsigned 16-bit integer to make byte separation easier
9d003744:	8fa40010 	lw	a0,16(sp)
9d003748:	0f400ed7 	jal	9d003b5c <__fixunssfsi>
9d00374c:	00000000 	nop
9d003750:	a7a20014 	sh	v0,20(sp)
    registerValues[0x00000001] = regFdevValue & 0x000000FF;  //Write the first 8 bits of regFdevValue into the 2nd element of the registerValues array
9d003754:	97a20014 	lhu	v0,20(sp)
9d003758:	304200ff 	andi	v0,v0,0xff
9d00375c:	a3a20019 	sb	v0,25(sp)
    regFdevValue >>= 0x00000008;                             //Shift the contents of regFdevValue to the right by 8 bits
9d003760:	97a20014 	lhu	v0,20(sp)
9d003764:	00021202 	srl	v0,v0,0x8
9d003768:	a7a20014 	sh	v0,20(sp)
    registerValues[0x00000000] = regFdevValue & 0x000000FF;  //Write the final 8 bits of the regFdev variable into the first index of the array
9d00376c:	97a20014 	lhu	v0,20(sp)
9d003770:	304200ff 	andi	v0,v0,0xff
9d003774:	a3a20018 	sb	v0,24(sp)
    interactWithRegistersSX1231H(REGADDR_FDEV_MSB, registerValues, 0x00000002, 0x00000000);  //Send the configuration bytes to the transceiver IC
9d003778:	27a20018 	addiu	v0,sp,24
9d00377c:	00003825 	move	a3,zero
9d003780:	24060002 	li	a2,2
9d003784:	00402825 	move	a1,v0
9d003788:	24040005 	li	a0,5
9d00378c:	0f400a27 	jal	9d00289c <interactWithRegistersSX1231H>
9d003790:	00000000 	nop
}
9d003794:	00000000 	nop
9d003798:	8fbf0024 	lw	ra,36(sp)
9d00379c:	27bd0028 	addiu	sp,sp,40
9d0037a0:	03e00008 	jr	ra
9d0037a4:	00000000 	nop

Disassembly of section .text.generateHeader:

9d0037a8 <generateHeader>:
{
9d0037a8:	afa40000 	sw	a0,0(sp)
9d0037ac:	afa50004 	sw	a1,4(sp)
9d0037b0:	00c01025 	move	v0,a2
9d0037b4:	a3a20008 	sb	v0,8(sp)
    header->length = packetLength;                                       //Set the length of the packet to provided length value
9d0037b8:	8fa20000 	lw	v0,0(sp)
9d0037bc:	93a30008 	lbu	v1,8(sp)
9d0037c0:	a0430000 	sb	v1,0(v0)
    header->sourceAddress = configNodeID;                                //Put the applications configured node ID value into the appropriate field in the header
9d0037c4:	3c029d00 	lui	v0,0x9d00
9d0037c8:	90434328 	lbu	v1,17192(v0)
9d0037cc:	8fa20000 	lw	v0,0(sp)
9d0037d0:	a0430001 	sb	v1,1(v0)
    header->payloadType = (uint8_t) packetType;                          //Set the type field of the header to the given payload type value
9d0037d4:	8fa20004 	lw	v0,4(sp)
9d0037d8:	304300ff 	andi	v1,v0,0xff
9d0037dc:	8fa20000 	lw	v0,0(sp)
9d0037e0:	a0430002 	sb	v1,2(v0)
    header->frameNumberMSB = (globalFrameCount & 0xFF00) >> 0x00000008;  //Mask out the upper byte of the globalFrameCount variable, and write that byte to frameNumberMSB in the header
9d0037e4:	97828034 	lhu	v0,-32716(gp)
9d0037e8:	3042ffff 	andi	v0,v0,0xffff
9d0037ec:	00021203 	sra	v0,v0,0x8
9d0037f0:	304300ff 	andi	v1,v0,0xff
9d0037f4:	8fa20000 	lw	v0,0(sp)
9d0037f8:	a0430003 	sb	v1,3(v0)
    header->frameNumberLSB = globalFrameCount++ & 0x00FF;                //Put the lower byte of globalFrameCount into frameNumberLSB, incrementing the contents of globalFrameCount by 1
9d0037fc:	97828034 	lhu	v0,-32716(gp)
9d003800:	3042ffff 	andi	v0,v0,0xffff
9d003804:	24430001 	addiu	v1,v0,1
9d003808:	3063ffff 	andi	v1,v1,0xffff
9d00380c:	a7838034 	sh	v1,-32716(gp)
9d003810:	304300ff 	andi	v1,v0,0xff
9d003814:	8fa20000 	lw	v0,0(sp)
9d003818:	a0430004 	sb	v1,4(v0)
    if (!globalFrameCount) globalFrameCount = 0x0000;  //Reset the value of globalFrameCount to 1 upon rollover, 0 is exclusively used for the very first packet on power up
9d00381c:	97828034 	lhu	v0,-32716(gp)
9d003820:	3042ffff 	andi	v0,v0,0xffff
9d003824:	14400002 	bnez	v0,9d003830 <generateHeader+0x88>
9d003828:	00000000 	nop
9d00382c:	a7808034 	sh	zero,-32716(gp)
}
9d003830:	00000000 	nop
9d003834:	03e00008 	jr	ra
9d003838:	00000000 	nop

Disassembly of section .text.int4ISR:

9d00383c <int4ISR>:
{
9d00383c:	415de800 	rdpgpr	sp,sp
9d003840:	401a7000 	mfc0	k0,c0_epc
9d003844:	401b6000 	mfc0	k1,c0_status
9d003848:	27bdffe0 	addiu	sp,sp,-32
9d00384c:	afba001c 	sw	k0,28(sp)
9d003850:	401a6002 	mfc0	k0,c0_srsctl
9d003854:	afbb0018 	sw	k1,24(sp)
9d003858:	afba0014 	sw	k0,20(sp)
9d00385c:	7c1b7844 	ins	k1,zero,0x1,0xf
9d003860:	377b0400 	ori	k1,k1,0x400
9d003864:	409b6000 	mtc0	k1,c0_status
9d003868:	afbe000c 	sw	s8,12(sp)
9d00386c:	afb10008 	sw	s1,8(sp)
9d003870:	afb00004 	sw	s0,4(sp)
9d003874:	afa30000 	sw	v1,0(sp)
9d003878:	03a0f025 	move	s8,sp
    IFS0CLR = 0x00800000;  //Clear the INT4 interrupt flag
9d00387c:	3c10bf88 	lui	s0,0xbf88
9d003880:	3c110080 	lui	s1,0x80
9d003884:	ae111034 	sw	s1,4148(s0)
}
9d003888:	00000000 	nop
9d00388c:	03c0e825 	move	sp,s8
9d003890:	8fbe000c 	lw	s8,12(sp)
9d003894:	8fb10008 	lw	s1,8(sp)
9d003898:	8fb00004 	lw	s0,4(sp)
9d00389c:	8fa30000 	lw	v1,0(sp)
9d0038a0:	41606000 	di
9d0038a4:	000000c0 	ehb
9d0038a8:	8fba001c 	lw	k0,28(sp)
9d0038ac:	8fbb0018 	lw	k1,24(sp)
9d0038b0:	409a7000 	mtc0	k0,c0_epc
9d0038b4:	8fba0014 	lw	k0,20(sp)
9d0038b8:	27bd0020 	addiu	sp,sp,32
9d0038bc:	409a6002 	mtc0	k0,c0_srsctl
9d0038c0:	41dde800 	wrpgpr	sp,sp
9d0038c4:	409b6000 	mtc0	k1,c0_status
9d0038c8:	42000018 	eret

Disassembly of section .text.writePacketSX1231H:

9d0038cc <writePacketSX1231H>:
{
9d0038cc:	27bdfed8 	addiu	sp,sp,-296
9d0038d0:	afbf0124 	sw	ra,292(sp)
9d0038d4:	afa40128 	sw	a0,296(sp)
9d0038d8:	afa5012c 	sw	a1,300(sp)
    uint8_t *framePtr = formedFrame;     //Make a pointer to use for iterating through the addresses in the array above
9d0038dc:	27a20018 	addiu	v0,sp,24
9d0038e0:	afa20010 	sw	v0,16(sp)
    uint32_t frameSize = payloadLength;  //Declare a variable to use for calculating the total size of the frame
9d0038e4:	8fa2012c 	lw	v0,300(sp)
9d0038e8:	afa20014 	sw	v0,20(sp)
    while (payloadLength--)
9d0038ec:	10000009 	b	9d003914 <writePacketSX1231H+0x48>
9d0038f0:	00000000 	nop
        *(framePtr++) = *(payloadBytes++);  //Copy the next byte from the payloadBytes array into the frame buffer
9d0038f4:	8fa30128 	lw	v1,296(sp)
9d0038f8:	24620001 	addiu	v0,v1,1
9d0038fc:	afa20128 	sw	v0,296(sp)
9d003900:	8fa20010 	lw	v0,16(sp)
9d003904:	24440001 	addiu	a0,v0,1
9d003908:	afa40010 	sw	a0,16(sp)
9d00390c:	90630000 	lbu	v1,0(v1)
9d003910:	a0430000 	sb	v1,0(v0)
    while (payloadLength--)
9d003914:	8fa2012c 	lw	v0,300(sp)
9d003918:	2443ffff 	addiu	v1,v0,-1
9d00391c:	afa3012c 	sw	v1,300(sp)
9d003920:	1440fff4 	bnez	v0,9d0038f4 <writePacketSX1231H+0x28>
9d003924:	00000000 	nop
    interactWithRegistersSX1231H(REGADDR_FIFO, formedFrame, frameSize, 0x00000000);  //Write the packet frame to the FIFO buffer of the transceiver
9d003928:	27a20018 	addiu	v0,sp,24
9d00392c:	00003825 	move	a3,zero
9d003930:	8fa60014 	lw	a2,20(sp)
9d003934:	00402825 	move	a1,v0
9d003938:	00002025 	move	a0,zero
9d00393c:	0f400a27 	jal	9d00289c <interactWithRegistersSX1231H>
9d003940:	00000000 	nop
}
9d003944:	00000000 	nop
9d003948:	8fbf0124 	lw	ra,292(sp)
9d00394c:	27bd0128 	addiu	sp,sp,296
9d003950:	03e00008 	jr	ra
9d003954:	00000000 	nop

Disassembly of section .text.setupInterrupts:

9d003958 <setupInterrupts>:
    asm volatile ("di");  //Disable global interrupts
9d003958:	41606000 	di
    INTCON = 0x00001010;  //Enable multi-vector interrupt modes
9d00395c:	3c02bf88 	lui	v0,0xbf88
9d003960:	24031010 	li	v1,4112
9d003964:	ac431000 	sw	v1,4096(v0)
    IFS0 = 0x00000000;  //Clear the entire IFS0 register to clear all interrupt flags
9d003968:	3c02bf88 	lui	v0,0xbf88
9d00396c:	ac401030 	sw	zero,4144(v0)
    IFS1 = 0x00000000;  //Clear the entire IFS1 register to clear all interrupt flags
9d003970:	3c02bf88 	lui	v0,0xbf88
9d003974:	ac401040 	sw	zero,4160(v0)
    IPC1 = 0x00000008;   //Set the Timer 1 interrupt priority level to 2
9d003978:	3c02bf88 	lui	v0,0xbf88
9d00397c:	24030008 	li	v1,8
9d003980:	ac4310a0 	sw	v1,4256(v0)
    IPC4 = 0x04000000;   //Set the External Interrupt 4 priority level to 1
9d003984:	3c02bf88 	lui	v0,0xbf88
9d003988:	3c030400 	lui	v1,0x400
9d00398c:	ac4310d0 	sw	v1,4304(v0)
    IPC6 = 0x00000800;   //Set the RTCC interrupt priority level to 2
9d003990:	3c02bf88 	lui	v0,0xbf88
9d003994:	24030800 	li	v1,2048
9d003998:	ac4310f0 	sw	v1,4336(v0)
    IPC8 = 0x00040000;   //Set the Change Notice interrupt priority level to 1
9d00399c:	3c02bf88 	lui	v0,0xbf88
9d0039a0:	3c030004 	lui	v1,0x4
9d0039a4:	ac431110 	sw	v1,4368(v0)
    IPC10 = 0x00080000;  //Set the DMA 2 interrupt priority level to 2
9d0039a8:	3c02bf88 	lui	v0,0xbf88
9d0039ac:	3c030008 	lui	v1,0x8
9d0039b0:	ac431130 	sw	v1,4400(v0)
    IEC0 = 0x40800010;  //Enable the Timer 1 period match, RTCC, and external interrupt 4
9d0039b4:	3c02bf88 	lui	v0,0xbf88
9d0039b8:	3c034080 	lui	v1,0x4080
9d0039bc:	34630010 	ori	v1,v1,0x10
9d0039c0:	ac431060 	sw	v1,4192(v0)
    IEC1 = 0x40000000;
9d0039c4:	3c02bf88 	lui	v0,0xbf88
9d0039c8:	3c034000 	lui	v1,0x4000
9d0039cc:	ac431070 	sw	v1,4208(v0)
    asm volatile ("ei");  //Enable global interrupts again
9d0039d0:	41606020 	ei
}
9d0039d4:	00000000 	nop
9d0039d8:	03e00008 	jr	ra
9d0039dc:	00000000 	nop

Disassembly of section .text.setBitRateSX1231H:

9d0039e0 <setBitRateSX1231H>:
{
9d0039e0:	27bdffe0 	addiu	sp,sp,-32
9d0039e4:	afbf001c 	sw	ra,28(sp)
9d0039e8:	afa40020 	sw	a0,32(sp)
    bitRate = SX1231H_F_XOSC / bitRate;  //Calculate the value to be written to the bit-rate registers in order to achieve the desired bit-rate
9d0039ec:	3c0201e8 	lui	v0,0x1e8
9d0039f0:	34434800 	ori	v1,v0,0x4800
9d0039f4:	8fa20020 	lw	v0,32(sp)
9d0039f8:	0062001b 	divu	zero,v1,v0
9d0039fc:	004001f4 	teq	v0,zero,0x7
9d003a00:	00001010 	mfhi	v0
9d003a04:	00001012 	mflo	v0
9d003a08:	afa20020 	sw	v0,32(sp)
    registerValues[0x00000001] = bitRate & 0x000000FF;  //Write the first 8-bits of the calculated bit-rate value into the 2nd element of the registerValues array
9d003a0c:	8fa20020 	lw	v0,32(sp)
9d003a10:	304200ff 	andi	v0,v0,0xff
9d003a14:	a3a20011 	sb	v0,17(sp)
    bitRate >>= 0x00000008;                             //Shift the contents of the bitRate variable to the right by 8 bits
9d003a18:	8fa20020 	lw	v0,32(sp)
9d003a1c:	00021202 	srl	v0,v0,0x8
9d003a20:	afa20020 	sw	v0,32(sp)
    registerValues[0x00000000] = bitRate & 0x000000FF;  //Write the remaining 8 bits of the calculated bit-rate value into the first index of the array
9d003a24:	8fa20020 	lw	v0,32(sp)
9d003a28:	304200ff 	andi	v0,v0,0xff
9d003a2c:	a3a20010 	sb	v0,16(sp)
    interactWithRegistersSX1231H(REGADDR_BITRATE_MSB, registerValues, 0x00000002, 0x00000000);  //Send the configuration bytes to the transceiver IC
9d003a30:	00003825 	move	a3,zero
9d003a34:	24060002 	li	a2,2
9d003a38:	27a20010 	addiu	v0,sp,16
9d003a3c:	00402825 	move	a1,v0
9d003a40:	24040003 	li	a0,3
9d003a44:	0f400a27 	jal	9d00289c <interactWithRegistersSX1231H>
9d003a48:	00000000 	nop
}
9d003a4c:	00000000 	nop
9d003a50:	8fbf001c 	lw	ra,28(sp)
9d003a54:	27bd0020 	addiu	sp,sp,32
9d003a58:	03e00008 	jr	ra
9d003a5c:	00000000 	nop

Disassembly of section .text.fptoli:

9d003a60 <__fixsfsi>:
9d003a60:	00042a00 3c018000 00a12825 00043dc2     .*.....<%(...=..
9d003a70:	30e700ff 2406009e 00c73023 18c0000d     ...0...$#0......
9d003a80:	00000000 28c10020 14200003 00000000     .... ..(.. .....
9d003a90:	10000005 24020000                       .......$

9d003a98 <i42>:
9d003a98:	04810002 	bgez	a0,9d003aa4 <i43>
9d003a9c:	00c52806 	srlv	a1,a1,a2
9d003aa0:	00052823 	negu	a1,a1

9d003aa4 <i43>:
9d003aa4:	00051025 	or	v0,zero,a1

9d003aa8 <G999>:
9d003aa8:	03e00008 	jr	ra
9d003aac:	00000000 	nop
9d003ab0:	00000000 	nop

9d003ab4 <Gspec>:
9d003ab4:	3c017f80 	lui	at,0x7f80
9d003ab8:	34210001 	ori	at,at,0x1
9d003abc:	0081082b 	sltu	at,a0,at
9d003ac0:	14200003 	bnez	at,9d003ad0 <i44>
9d003ac4:	00000000 	nop
9d003ac8:	1000fff7 	b	9d003aa8 <G999>
9d003acc:	3c028000 	lui	v0,0x8000

9d003ad0 <i44>:
9d003ad0:	3c027fff 	lui	v0,0x7fff
9d003ad4:	1000fff4 	b	9d003aa8 <G999>
9d003ad8:	3442ffff 	ori	v0,v0,0xffff
9d003adc:	00000000 	nop

Disassembly of section .text:

9d003ae0 <__dinit_copy_emb>:
9d003ae0:	03e00008 	jr	ra
9d003ae4:	00000000 	nop

9d003ae8 <__pic32_data_init>:
9d003ae8:	03e01825 	move	v1,ra

9d003aec <_dinit_init>:
9d003aec:	3c049d00 	lui	a0,0x9d00
9d003af0:	24843d38 	addiu	a0,a0,15672
9d003af4:	10800016 	beqz	a0,9d003b50 <_dinit_init+0x64>
9d003af8:	00000000 	nop
9d003afc:	8c850000 	lw	a1,0(a0)
9d003b00:	10a00013 	beqz	a1,9d003b50 <_dinit_init+0x64>
9d003b04:	24840004 	addiu	a0,a0,4
9d003b08:	8c860000 	lw	a2,0(a0)
9d003b0c:	24840004 	addiu	a0,a0,4
9d003b10:	848b0000 	lh	t3,0(a0)
9d003b14:	24840004 	addiu	a0,a0,4
9d003b18:	3c0c9d00 	lui	t4,0x9d00
9d003b1c:	258c4314 	addiu	t4,t4,17172
9d003b20:	000b5880 	sll	t3,t3,0x2
9d003b24:	016c6021 	addu	t4,t3,t4
9d003b28:	8d8c0000 	lw	t4,0(t4)
9d003b2c:	0180f809 	jalr	t4
9d003b30:	00000000 	nop
9d003b34:	00402025 	move	a0,v0
9d003b38:	24840003 	addiu	a0,a0,3
9d003b3c:	2406fffc 	li	a2,-4
9d003b40:	00c42024 	and	a0,a2,a0
9d003b44:	8c850000 	lw	a1,0(a0)
9d003b48:	14a0ffec 	bnez	a1,9d003afc <_dinit_init+0x10>
9d003b4c:	00000000 	nop
9d003b50:	0060f825 	move	ra,v1
9d003b54:	03e00008 	jr	ra
9d003b58:	00000000 	nop

Disassembly of section .text.fptoul:

9d003b5c <__fixunssfsi>:
9d003b5c:	00042a00 3c018000 00a12825 00043dc2     .*.....<%(...=..
9d003b6c:	30e700ff 2406009e 00c73023 04c0000d     ...0...$#0......
9d003b7c:	00000000 28c10020 14200003 00000000     .... ..(.. .....
9d003b8c:	10000005 24020000                       .......$

9d003b94 <i45>:
9d003b94:	04810002 	bgez	a0,9d003ba0 <i46>
9d003b98:	00c52806 	srlv	a1,a1,a2
9d003b9c:	00052823 	negu	a1,a1

9d003ba0 <i46>:
9d003ba0:	00051025 	or	v0,zero,a1

9d003ba4 <I999>:
9d003ba4:	03e00008 	jr	ra
9d003ba8:	00000000 	nop
9d003bac:	00000000 	nop

9d003bb0 <Ispec>:
9d003bb0:	3c017f80 	lui	at,0x7f80
9d003bb4:	34210001 	ori	at,at,0x1
9d003bb8:	0081082b 	sltu	at,a0,at
9d003bbc:	14200003 	bnez	at,9d003bcc <i47>
9d003bc0:	00000000 	nop
9d003bc4:	1000fff7 	b	9d003ba4 <I999>
9d003bc8:	3c028000 	lui	v0,0x8000

9d003bcc <i47>:
9d003bcc:	1000fff5 	b	9d003ba4 <I999>
9d003bd0:	2402ffff 	li	v0,-1
9d003bd4:	00000000 	nop

Disassembly of section .text.forceSign16:

9d003bd8 <forceSign16>:

//Force Sign 16 Function, forces the given value into it's 16-bit signed equivalent using the provided bit-depth
void forceSign16(int16_t *value, uint32_t bitDepth)
{
9d003bd8:	27bdfff8 	addiu	sp,sp,-8
9d003bdc:	afa40008 	sw	a0,8(sp)
9d003be0:	afa5000c 	sw	a1,12(sp)
    uint16_t cutoff = 0x0001 << (bitDepth - 0x00000001);  //Calculate the half way point for a signed value of the given bit depth, storing it in the cutoff variable
9d003be4:	8fa2000c 	lw	v0,12(sp)
9d003be8:	2442ffff 	addiu	v0,v0,-1
9d003bec:	24030001 	li	v1,1
9d003bf0:	00431004 	sllv	v0,v1,v0
9d003bf4:	a7a20000 	sh	v0,0(sp)

    if (*value & cutoff) *value -= (cutoff << 0x00000001);  //Force the value to a negative in 32-bit form when it's negative at the specified bit-depth
9d003bf8:	8fa20008 	lw	v0,8(sp)
9d003bfc:	84420000 	lh	v0,0(v0)
9d003c00:	00401825 	move	v1,v0
9d003c04:	97a20000 	lhu	v0,0(sp)
9d003c08:	00621024 	and	v0,v1,v0
9d003c0c:	1040000c 	beqz	v0,9d003c40 <forceSign16+0x68>
9d003c10:	00000000 	nop
9d003c14:	8fa20008 	lw	v0,8(sp)
9d003c18:	84420000 	lh	v0,0(v0)
9d003c1c:	3043ffff 	andi	v1,v0,0xffff
9d003c20:	97a20000 	lhu	v0,0(sp)
9d003c24:	00021040 	sll	v0,v0,0x1
9d003c28:	3042ffff 	andi	v0,v0,0xffff
9d003c2c:	00621023 	subu	v0,v1,v0
9d003c30:	3042ffff 	andi	v0,v0,0xffff
9d003c34:	7c021e20 	seh	v1,v0
9d003c38:	8fa20008 	lw	v0,8(sp)
9d003c3c:	a4430000 	sh	v1,0(v0)
}
9d003c40:	00000000 	nop
9d003c44:	27bd0008 	addiu	sp,sp,8
9d003c48:	03e00008 	jr	ra
9d003c4c:	00000000 	nop

Disassembly of section .text.convertToTempCFromSHT4X:

9d003c50 <convertToTempCFromSHT4X>:
{
9d003c50:	27bdffe8 	addiu	sp,sp,-24
9d003c54:	afbf0014 	sw	ra,20(sp)
9d003c58:	afa40018 	sw	a0,24(sp)
    return ((float) *rawSensorValue / 65535.0F * 175.0F) - 45.0F;  //Calculate the temperature in Celsius
9d003c5c:	8fa20018 	lw	v0,24(sp)
9d003c60:	94420000 	lhu	v0,0(v0)
9d003c64:	00402025 	move	a0,v0
9d003c68:	0f401009 	jal	9d004024 <__floatunsisf>
9d003c6c:	00000000 	nop
9d003c70:	00401825 	move	v1,v0
9d003c74:	3c029d00 	lui	v0,0x9d00
9d003c78:	8c454278 	lw	a1,17016(v0)
9d003c7c:	00602025 	move	a0,v1
9d003c80:	0f400584 	jal	9d001610 <__divsf3>
9d003c84:	00000000 	nop
9d003c88:	00401825 	move	v1,v0
9d003c8c:	3c029d00 	lui	v0,0x9d00
9d003c90:	8c45427c 	lw	a1,17020(v0)
9d003c94:	00602025 	move	a0,v1
9d003c98:	0f40078d 	jal	9d001e34 <__mulsf3>
9d003c9c:	00000000 	nop
9d003ca0:	00401825 	move	v1,v0
9d003ca4:	3c029d00 	lui	v0,0x9d00
9d003ca8:	8c454280 	lw	a1,17024(v0)
9d003cac:	00602025 	move	a0,v1
9d003cb0:	0f40044c 	jal	9d001130 <__subsf3>
9d003cb4:	00000000 	nop
}
9d003cb8:	8fbf0014 	lw	ra,20(sp)
9d003cbc:	27bd0018 	addiu	sp,sp,24
9d003cc0:	03e00008 	jr	ra
9d003cc4:	00000000 	nop

Disassembly of section .text.forceSign32:

9d003cc8 <forceSign32>:

//Force Sign 32 Function, forces the given value into it's 32-bit signed equivalent using the provided bit-depth
void forceSign32(int32_t *value, uint32_t bitDepth)
{
9d003cc8:	27bdfff8 	addiu	sp,sp,-8
9d003ccc:	afa40008 	sw	a0,8(sp)
9d003cd0:	afa5000c 	sw	a1,12(sp)
    uint32_t cutoff = 0x00000001 << (bitDepth - 0x00000001);  //Calculate the half way point for a signed value of the given bit depth, storing it in the cutoff variable
9d003cd4:	8fa2000c 	lw	v0,12(sp)
9d003cd8:	2442ffff 	addiu	v0,v0,-1
9d003cdc:	24030001 	li	v1,1
9d003ce0:	00431004 	sllv	v0,v1,v0
9d003ce4:	afa20000 	sw	v0,0(sp)

    if (*value & cutoff) *value -= (cutoff << 0x00000001);  //Force the value to a negative in 32-bit form when it's negative at the specified bit-depth
9d003ce8:	8fa20008 	lw	v0,8(sp)
9d003cec:	8c420000 	lw	v0,0(v0)
9d003cf0:	00401825 	move	v1,v0
9d003cf4:	8fa20000 	lw	v0,0(sp)
9d003cf8:	00621024 	and	v0,v1,v0
9d003cfc:	1040000a 	beqz	v0,9d003d28 <forceSign32+0x60>
9d003d00:	00000000 	nop
9d003d04:	8fa20008 	lw	v0,8(sp)
9d003d08:	8c420000 	lw	v0,0(v0)
9d003d0c:	00401825 	move	v1,v0
9d003d10:	8fa20000 	lw	v0,0(sp)
9d003d14:	00021040 	sll	v0,v0,0x1
9d003d18:	00621023 	subu	v0,v1,v0
9d003d1c:	00401825 	move	v1,v0
9d003d20:	8fa20008 	lw	v0,8(sp)
9d003d24:	ac430000 	sw	v1,0(v0)
}
9d003d28:	00000000 	nop
9d003d2c:	27bd0008 	addiu	sp,sp,8
9d003d30:	03e00008 	jr	ra
9d003d34:	00000000 	nop

Disassembly of section .dinit:

9d003d38 <.dinit>:
9d003d38:	a0000200 	sb	zero,512(zero)
9d003d3c:	0000001e 	0x1e
9d003d40:	00000000 	nop
9d003d44:	a0000220 	sb	zero,544(zero)
9d003d48:	00000004 	sllv	zero,zero,zero
9d003d4c:	00000000 	nop
9d003d50:	a000025c 	sb	zero,604(zero)
9d003d54:	000000ff 	0xff
9d003d58:	00000000 	nop
9d003d5c:	a0000224 	sb	zero,548(zero)
9d003d60:	00000002 	srl	zero,zero,0x0
9d003d64:	00000000 	nop
9d003d68:	a000023c 	sb	zero,572(zero)
9d003d6c:	00000020 	add	zero,zero,zero
9d003d70:	00000001 	movf	zero,zero,$fcc0
9d003d74:	9d001604 	0x9d001604
9d003d78:	9d0013a8 	0x9d0013a8
9d003d7c:	9d0014ac 	0x9d0014ac
9d003d80:	9d001588 	0x9d001588
9d003d84:	9d001604 	0x9d001604
9d003d88:	9d001598 	0x9d001598
9d003d8c:	9d0015a8 	0x9d0015a8
9d003d90:	9d0015f8 	0x9d0015f8
9d003d94:	a0000228 	sb	zero,552(zero)
9d003d98:	00000014 	0x14
	...
9d003da4:	66666666 	0x66666666

Disassembly of section .text.setDeviceModeSX1231H:

9d003da8 <setDeviceModeSX1231H>:
{
9d003da8:	27bdffe0 	addiu	sp,sp,-32
9d003dac:	afbf001c 	sw	ra,28(sp)
9d003db0:	afa40020 	sw	a0,32(sp)
    if (newMode == MODE_RESERVED) return;  //Just leave if trying to set the mode of the transceiver to something invalid
9d003db4:	8fa30020 	lw	v1,32(sp)
9d003db8:	24020005 	li	v0,5
9d003dbc:	1062000f 	beq	v1,v0,9d003dfc <setDeviceModeSX1231H+0x54>
9d003dc0:	00000000 	nop
    uint8_t registerValue = newMode << 0x00000002;                                         //Write the value of the newMode enum to the registerValue variable and shift it to the left by 2 bits
9d003dc4:	8fa20020 	lw	v0,32(sp)
9d003dc8:	304200ff 	andi	v0,v0,0xff
9d003dcc:	00021080 	sll	v0,v0,0x2
9d003dd0:	304200ff 	andi	v0,v0,0xff
9d003dd4:	a3a20010 	sb	v0,16(sp)
    interactWithRegistersSX1231H(REGADDR_OPMODE, &registerValue, 0x00000001, 0x00000000);  //Send the configuration byte to the transceiver IC
9d003dd8:	00003825 	move	a3,zero
9d003ddc:	24060001 	li	a2,1
9d003de0:	27a20010 	addiu	v0,sp,16
9d003de4:	00402825 	move	a1,v0
9d003de8:	24040001 	li	a0,1
9d003dec:	0f400a27 	jal	9d00289c <interactWithRegistersSX1231H>
9d003df0:	00000000 	nop
9d003df4:	10000002 	b	9d003e00 <setDeviceModeSX1231H+0x58>
9d003df8:	00000000 	nop
    if (newMode == MODE_RESERVED) return;  //Just leave if trying to set the mode of the transceiver to something invalid
9d003dfc:	00000000 	nop
}
9d003e00:	8fbf001c 	lw	ra,28(sp)
9d003e04:	27bd0020 	addiu	sp,sp,32
9d003e08:	03e00008 	jr	ra
9d003e0c:	00000000 	nop

Disassembly of section .text.main:

9d003e10 <main>:

//Main Function, called upon reset of the MCU
void main()
{
9d003e10:	27bdffe8 	addiu	sp,sp,-24
9d003e14:	afbf0014 	sw	ra,20(sp)
    setupMCU();               //Configure the main functionality of the microcontroller for the application
9d003e18:	0f40071a 	jal	9d001c68 <setupMCU>
9d003e1c:	00000000 	nop
    setupExternals();         //Configure the external hardware devices for the application
9d003e20:	0f400b4a 	jal	9d002d28 <setupExternals>
9d003e24:	00000000 	nop
    initializeApplication();  //Setup the application threads and state machines to begin program execution
9d003e28:	0f4010c0 	jal	9d004300 <initializeApplication>
9d003e2c:	00000000 	nop
//            while (!(U2STA & 0x00000100));                       //Wait until the transmission has completed fully before we down-clock the CPU
            // LATBCLR = 0x00000400;
        // }
         */
//        handlerFunctionTable[currentState]();  //Invoke the function located at the address obtained from the lookup table-
        sensorFunctionTable[sensorThreadState]();  //Invoke the handler function for the sensor thread located at the given index of the sensor lookup table
9d003e30:	8f838038 	lw	v1,-32712(gp)
9d003e34:	3c02a000 	lui	v0,0xa000
9d003e38:	00031880 	sll	v1,v1,0x2
9d003e3c:	2442023c 	addiu	v0,v0,572
9d003e40:	00621021 	addu	v0,v1,v0
9d003e44:	8c420000 	lw	v0,0(v0)
9d003e48:	0040f809 	jalr	v0
9d003e4c:	00000000 	nop
        radioFunctionTable[radioThreadState]();    //Invoke the handler function for the radio thread located at the given index of the radio lookup table
9d003e50:	8f83803c 	lw	v1,-32708(gp)
9d003e54:	3c02a000 	lui	v0,0xa000
9d003e58:	00031880 	sll	v1,v1,0x2
9d003e5c:	2442024c 	addiu	v0,v0,588
9d003e60:	00621021 	addu	v0,v1,v0
9d003e64:	8c420000 	lw	v0,0(v0)
9d003e68:	0040f809 	jalr	v0
9d003e6c:	00000000 	nop
        sensorFunctionTable[sensorThreadState]();  //Invoke the handler function for the sensor thread located at the given index of the sensor lookup table
9d003e70:	1000ffef 	b	9d003e30 <main+0x20>
9d003e74:	00000000 	nop

Disassembly of section .text.sitofp:

9d003e78 <__floatsisf>:
9d003e78:	3c018000 10800012 00813024 04810002     ...<....$0......
9d003e88:	00000000 00042023                       ....# ..

9d003e90 <i40>:
9d003e90:	2405009e 	li	a1,158
9d003e94:	70873820 	clz	a3,a0
9d003e98:	00a72823 	subu	a1,a1,a3
9d003e9c:	00e42004 	sllv	a0,a0,a3
9d003ea0:	24840080 	addiu	a0,a0,128
9d003ea4:	2c880080 	sltiu	t0,a0,128
9d003ea8:	00a82821 	addu	a1,a1,t0
9d003eac:	00044203 	sra	t0,a0,0x8
9d003eb0:	31080001 	andi	t0,t0,0x1
9d003eb4:	00882023 	subu	a0,a0,t0
9d003eb8:	00042040 	sll	a0,a0,0x1
9d003ebc:	00042242 	srl	a0,a0,0x9
9d003ec0:	000545c0 	sll	t0,a1,0x17
9d003ec4:	00882025 	or	a0,a0,t0

9d003ec8 <i39>:
9d003ec8:	00861025 	or	v0,a0,a2

9d003ecc <E999>:
9d003ecc:	03e00008 	jr	ra
9d003ed0:	00000000 	nop
9d003ed4:	00000000 	nop

Disassembly of section .text.getResultStatusDPS368:

9d003ed8 <getResultStatusDPS368>:
{
9d003ed8:	27bdffe0 	addiu	sp,sp,-32
9d003edc:	afbf001c 	sw	ra,28(sp)
    uint8_t dataBuffer = 0x08;  //Address of the MEAS_CFG register on the sensor
9d003ee0:	24020008 	li	v0,8
9d003ee4:	a3a20010 	sb	v0,16(sp)
    if (!readFromI2C(DPS368_I2C_ADDR, &dataBuffer, 0x00000001, 0x00000001)) return NONE;  //Attempt to read the contents of the MEAS_CFG register on the sensor
9d003ee8:	24070001 	li	a3,1
9d003eec:	24060001 	li	a2,1
9d003ef0:	27a20010 	addiu	v0,sp,16
9d003ef4:	00402825 	move	a1,v0
9d003ef8:	24040076 	li	a0,118
9d003efc:	0f4007fc 	jal	9d001ff0 <readFromI2C>
9d003f00:	00000000 	nop
9d003f04:	14400004 	bnez	v0,9d003f18 <getResultStatusDPS368+0x40>
9d003f08:	00000000 	nop
9d003f0c:	00001025 	move	v0,zero
9d003f10:	10000004 	b	9d003f24 <getResultStatusDPS368+0x4c>
9d003f14:	00000000 	nop
    return (resultStatusDPS368_t) (dataBuffer & 0x30) >> 0x00000004;  //Return the obtained measurement status enum
9d003f18:	93a20010 	lbu	v0,16(sp)
9d003f1c:	00021102 	srl	v0,v0,0x4
9d003f20:	30420003 	andi	v0,v0,0x3
}
9d003f24:	8fbf001c 	lw	ra,28(sp)
9d003f28:	27bd0020 	addiu	sp,sp,32
9d003f2c:	03e00008 	jr	ra
9d003f30:	00000000 	nop

Disassembly of section .text.main_entry:

9d003f34 <_main_entry>:
_main_entry:

#if defined(CPP_INIT)
        .weak _init
        # call .init section to run constructors etc
        lui	a0,%hi(_init)
9d003f34:	3c040000 	lui	a0,0x0
        addiu	sp,sp,-24
9d003f38:	27bdffe8 	addiu	sp,sp,-24
        addiu	a0,a0,%lo(_init)
9d003f3c:	24840000 	addiu	a0,a0,0
        beq	a0,$0,2f
9d003f40:	10800003 	beqz	a0,9d003f50 <_main_entry+0x1c>
        sw	$31,20(sp)	 #,
9d003f44:	afbf0014 	sw	ra,20(sp)
        jalr	a0
9d003f48:	0080f809 	jalr	a0
        nop
9d003f4c:	00000000 	nop
2:
#endif
        and     a0,a0,0
9d003f50:	30840000 	andi	a0,a0,0x0
        and     a1,a1,0
9d003f54:	30a50000 	andi	a1,a1,0x0

        ##################################################################

        # Call main
        ##################################################################
        la    	t0,main
9d003f58:	3c089d00 	lui	t0,0x9d00
9d003f5c:	25083e10 	addiu	t0,t0,15888
        jalr 	t0
9d003f60:	0100f809 	jalr	t0
        nop
9d003f64:	00000000 	nop

9d003f68 <__crt0_exit>:
        # Call a software breakpoint only with -mdebugger compiler option
        ##################################################################
        .weak __exception_handler_break
__crt0_exit:
1:
        la      v0,__exception_handler_break
9d003f68:	3c029d00 24424338 10400003 00000000     ...<8CB$..@.....
        beq     v0,0,0f
        nop
        jalr    v0
9d003f78:	0040f809 00000000 1000fff9 00000000     ..@.............

Disassembly of section .text.setModeDPS368:

9d003f88 <setModeDPS368>:
{
9d003f88:	27bdffe0 	addiu	sp,sp,-32
9d003f8c:	afbf001c 	sw	ra,28(sp)
9d003f90:	afa40020 	sw	a0,32(sp)
    uint8_t dataBuffer[0x00000002] = {0x08, newMode & 0x07};  //Form the data bytes that will be sent to the sensor to select the desired operating mode
9d003f94:	24020008 	li	v0,8
9d003f98:	a3a20010 	sb	v0,16(sp)
9d003f9c:	8fa20020 	lw	v0,32(sp)
9d003fa0:	304200ff 	andi	v0,v0,0xff
9d003fa4:	30420007 	andi	v0,v0,0x7
9d003fa8:	304200ff 	andi	v0,v0,0xff
9d003fac:	a3a20011 	sb	v0,17(sp)
    return writeToI2C(DPS368_I2C_ADDR, dataBuffer, 0x00000002);  //Send the configuration bytes to the sensor over I2C and return the success status of the write operation
9d003fb0:	24060002 	li	a2,2
9d003fb4:	27a20010 	addiu	v0,sp,16
9d003fb8:	00402825 	move	a1,v0
9d003fbc:	24040076 	li	a0,118
9d003fc0:	0f400ac3 	jal	9d002b0c <writeToI2C>
9d003fc4:	00000000 	nop
}
9d003fc8:	8fbf001c 	lw	ra,28(sp)
9d003fcc:	27bd0020 	addiu	sp,sp,32
9d003fd0:	03e00008 	jr	ra
9d003fd4:	00000000 	nop

Disassembly of section .text.startTxUART:

9d003fd8 <startTxUART>:
    while (!(U2STA & 0x00000100));  //Wait until the transmission has completed fully before leaving
}

//Start Transmission UART Function, begins sending the provided string over UART
void startTxUART(const uint8_t *bytes, const uint32_t *length)
{
9d003fd8:	afa40000 	sw	a0,0(sp)
9d003fdc:	afa50004 	sw	a1,4(sp)
    DCH2SSA = KVA_TO_PA(bytes);  //Assign the source address of DMA2 to the physical address of the provided buffer
9d003fe0:	8fa20000 	lw	v0,0(sp)
9d003fe4:	7c43e000 	ext	v1,v0,0x0,0x1d
9d003fe8:	3c02bf88 	lui	v0,0xbf88
9d003fec:	ac433210 	sw	v1,12816(v0)
    DCH2SSIZ = *length;          //Set the length of the source location to the provided length value
9d003ff0:	8fa20004 	lw	v0,4(sp)
9d003ff4:	8c430000 	lw	v1,0(v0)
9d003ff8:	3c02bf88 	lui	v0,0xbf88
9d003ffc:	ac433230 	sw	v1,12848(v0)
    DCH2CON = 0x00000080;        //Enable channel 2 of the DMA peripheral
9d004000:	3c02bf88 	lui	v0,0xbf88
9d004004:	24030080 	li	v1,128
9d004008:	ac4331e0 	sw	v1,12768(v0)
    DCH2ECON = 0x000037B0;       //Start the transfer process by forcing the first cell transfer on DMA2
9d00400c:	3c02bf88 	lui	v0,0xbf88
9d004010:	240337b0 	li	v1,14256
9d004014:	ac4331f0 	sw	v1,12784(v0)

//    while (DCH2CON & 0x00008000);  //Wait until the block transfer has fully completed
}
9d004018:	00000000 	nop
9d00401c:	03e00008 	jr	ra
9d004020:	00000000 	nop

Disassembly of section .text:

9d004024 <__floatunsisf>:
9d004024:	27bdffe8 	addiu	sp,sp,-24
9d004028:	0481000c 	bgez	a0,9d00405c <__floatunsisf+0x38>
9d00402c:	afbf0014 	sw	ra,20(sp)
9d004030:	00801025 	move	v0,a0
9d004034:	00021042 	srl	v0,v0,0x1
9d004038:	30840001 	andi	a0,a0,0x1
9d00403c:	0f400f9e 	jal	9d003e78 <__floatsisf>
9d004040:	00822025 	or	a0,a0,v0
9d004044:	00402825 	move	a1,v0
9d004048:	0f40044e 	jal	9d001138 <__addsf3>
9d00404c:	00402025 	move	a0,v0
9d004050:	8fbf0014 	lw	ra,20(sp)
9d004054:	03e00008 	jr	ra
9d004058:	27bd0018 	addiu	sp,sp,24
9d00405c:	0f400f9e 	jal	9d003e78 <__floatsisf>
9d004060:	00000000 	nop
9d004064:	1000fffb 	b	9d004054 <__floatunsisf+0x30>
9d004068:	8fbf0014 	lw	ra,20(sp)

Disassembly of section .text._bootstrap_exception_handler:

9d00406c <_bootstrap_exception_handler>:
9d00406c:	3c020000 	lui	v0,0x0
9d004070:	24420000 	addiu	v0,v0,0
9d004074:	10400005 	beqz	v0,9d00408c <_bootstrap_exception_handler+0x20>
9d004078:	3c029d00 	lui	v0,0x9d00
9d00407c:	24424338 	addiu	v0,v0,17208
9d004080:	10400003 	beqz	v0,9d004090 <_bootstrap_exception_handler+0x24>
9d004084:	3c029d00 	lui	v0,0x9d00
9d004088:	7000003f 	sdbbp
9d00408c:	3c029d00 	lui	v0,0x9d00
9d004090:	24424188 	addiu	v0,v0,16776
9d004094:	10400005 	beqz	v0,9d0040ac <_bootstrap_exception_handler+0x40>
9d004098:	00000000 	nop
9d00409c:	27bdffe8 	addiu	sp,sp,-24
9d0040a0:	afbf0014 	sw	ra,20(sp)
9d0040a4:	0040f809 	jalr	v0
9d0040a8:	00000000 	nop
9d0040ac:	1000ffff 	b	9d0040ac <_bootstrap_exception_handler+0x40>
9d0040b0:	00000000 	nop

Disassembly of section .text._general_exception_handler:

9d0040b4 <_general_exception_handler>:
9d0040b4:	3c020000 	lui	v0,0x0
9d0040b8:	24420000 	addiu	v0,v0,0
9d0040bc:	10400005 	beqz	v0,9d0040d4 <_general_exception_handler+0x20>
9d0040c0:	3c029d00 	lui	v0,0x9d00
9d0040c4:	24424338 	addiu	v0,v0,17208
9d0040c8:	10400003 	beqz	v0,9d0040d8 <_general_exception_handler+0x24>
9d0040cc:	3c029d00 	lui	v0,0x9d00
9d0040d0:	7000003f 	sdbbp
9d0040d4:	3c029d00 	lui	v0,0x9d00
9d0040d8:	24424188 	addiu	v0,v0,16776
9d0040dc:	10400005 	beqz	v0,9d0040f4 <_general_exception_handler+0x40>
9d0040e0:	00000000 	nop
9d0040e4:	27bdffe8 	addiu	sp,sp,-24
9d0040e8:	afbf0014 	sw	ra,20(sp)
9d0040ec:	0040f809 	jalr	v0
9d0040f0:	00000000 	nop
9d0040f4:	1000ffff 	b	9d0040f4 <_general_exception_handler+0x40>
9d0040f8:	00000000 	nop

Disassembly of section .vector_default:

9d0040fc <_DefaultInterrupt>:
9d0040fc:	3c020000 	lui	v0,0x0
9d004100:	24420000 	addiu	v0,v0,0
9d004104:	10400007 	beqz	v0,9d004124 <_DefaultInterrupt+0x28>
9d004108:	3c029d00 	lui	v0,0x9d00
9d00410c:	24424338 	addiu	v0,v0,17208
9d004110:	50400005 	beqzl	v0,9d004128 <_DefaultInterrupt+0x2c>
9d004114:	3c029d00 	lui	v0,0x9d00
9d004118:	7000003f 	sdbbp
9d00411c:	03e00008 	jr	ra
9d004120:	00000000 	nop
9d004124:	3c029d00 	lui	v0,0x9d00
9d004128:	24424188 	addiu	v0,v0,16776
9d00412c:	10400003 	beqz	v0,9d00413c <_DefaultInterrupt+0x40>
9d004130:	00000000 	nop
9d004134:	0040f809 	jalr	v0
9d004138:	00000000 	nop
9d00413c:	03e00008 	jr	ra
9d004140:	00000000 	nop

Disassembly of section .text.sendCommandSSD1803A:

9d004144 <sendCommandSSD1803A>:

//Send Command Function, sends the desired command byte to the LCD controller through the I2C interface
uint32_t sendCommandSSD1803A(uint8_t command)
{
9d004144:	27bdffe0 	addiu	sp,sp,-32
9d004148:	afbf001c 	sw	ra,28(sp)
9d00414c:	00801025 	move	v0,a0
9d004150:	a3a20020 	sb	v0,32(sp)
    uint8_t outputBytes[0x00000002];    //Create a 2 byte long array to use for creating the sequence of bytes to send to the LCD controller
    outputBytes[0x00000000] = 0x00;     //Set the first byte of the sequence to 0, this indicates the next byte will be an instruction
9d004154:	a3a00010 	sb	zero,16(sp)
    outputBytes[0x00000001] = command;  //Copy the desired command byte into the sequence
9d004158:	93a20020 	lbu	v0,32(sp)
9d00415c:	a3a20011 	sb	v0,17(sp)

    return writeToI2C(SSD1803A_I2C_ADDR, outputBytes, 0x00000002);  //Try and send the byte sequence to the LCD controller and return the result
9d004160:	24060002 	li	a2,2
9d004164:	27a20010 	addiu	v0,sp,16
9d004168:	00402825 	move	a1,v0
9d00416c:	2404003c 	li	a0,60
9d004170:	0f400ac3 	jal	9d002b0c <writeToI2C>
9d004174:	00000000 	nop
}
9d004178:	8fbf001c 	lw	ra,28(sp)
9d00417c:	27bd0020 	addiu	sp,sp,32
9d004180:	03e00008 	jr	ra
9d004184:	00000000 	nop

Disassembly of section .text:

9d004188 <__pic32_software_reset>:
9d004188:	41606000 	di
9d00418c:	000000c0 	ehb
9d004190:	3c03aa99 	lui	v1,0xaa99
9d004194:	3c02bf81 	lui	v0,0xbf81
9d004198:	24636655 	addiu	v1,v1,26197
9d00419c:	ac40f230 	sw	zero,-3536(v0)
9d0041a0:	ac43f230 	sw	v1,-3536(v0)
9d0041a4:	3c035566 	lui	v1,0x5566
9d0041a8:	346399aa 	ori	v1,v1,0x99aa
9d0041ac:	ac43f230 	sw	v1,-3536(v0)
9d0041b0:	3c02bf81 	lui	v0,0xbf81
9d0041b4:	24030001 	li	v1,1
9d0041b8:	ac43f618 	sw	v1,-2536(v0)
9d0041bc:	3c02bf81 	lui	v0,0xbf81
9d0041c0:	8c42f610 	lw	v0,-2544(v0)
9d0041c4:	0b401064 	j	9d004190 <__pic32_software_reset+0x8>
9d0041c8:	00000000 	nop

Disassembly of section .text.getResultsFromFifoDPS368:

9d0041cc <getResultsFromFifoDPS368>:
{
9d0041cc:	27bdffe8 	addiu	sp,sp,-24
9d0041d0:	afbf0014 	sw	ra,20(sp)
9d0041d4:	afa40018 	sw	a0,24(sp)
9d0041d8:	afa5001c 	sw	a1,28(sp)
    return getResultsAtAddressDPS368(0x00, rawResults, count);  //Read the desired number of 24-bit result values from the sensors FIFO buffer
9d0041dc:	8fa6001c 	lw	a2,28(sp)
9d0041e0:	8fa50018 	lw	a1,24(sp)
9d0041e4:	00002025 	move	a0,zero
9d0041e8:	0f400866 	jal	9d002198 <getResultsAtAddressDPS368>
9d0041ec:	00000000 	nop
}
9d0041f0:	8fbf0014 	lw	ra,20(sp)
9d0041f4:	27bd0018 	addiu	sp,sp,24
9d0041f8:	03e00008 	jr	ra
9d0041fc:	00000000 	nop

Disassembly of section .text.requestMeasurementSHT4X:

9d004200 <requestMeasurementSHT4X>:
{
9d004200:	27bdffe8 	addiu	sp,sp,-24
9d004204:	afbf0014 	sw	ra,20(sp)
9d004208:	afa40018 	sw	a0,24(sp)
    return writeToI2C(SHT4X_I2C_ADDR, ((uint8_t *) &operation), 0x00000001);  //Send the command to the sensor and then return the success status of the I2C interaction with the sensor
9d00420c:	24060001 	li	a2,1
9d004210:	27a50018 	addiu	a1,sp,24
9d004214:	24040044 	li	a0,68
9d004218:	0f400ac3 	jal	9d002b0c <writeToI2C>
9d00421c:	00000000 	nop
}
9d004220:	8fbf0014 	lw	ra,20(sp)
9d004224:	27bd0018 	addiu	sp,sp,24
9d004228:	03e00008 	jr	ra
9d00422c:	00000000 	nop

Disassembly of section .rodata:

9d004230 <dps368Cal_scalingFactors>:
9d004230:	00080000 00180000 00380000 00780000     ..........8...x.
9d004240:	0003e000 0007e000 000fe000 001fe000     ................
9d004250:	3f000000                                ...?

9d004254 <sx1231hInit_Receiver>:
9d004254:	0c004c80                                .L..

9d004258 <sx1231hInit_DIOMapping>:
9d004258:	0c000040                                @...

9d00425c <sx1231hInit_PacketEngine>:
9d00425c:	59a80700 4f4c4c45 80000057 3b000040     ...YELLOW...@..;
9d00426c:	0000028f 42742400 c0000000              .....$tB....

Disassembly of section .rodata:

9d004278 <.rodata>:
9d004278:	477fff00 	c1	0x17fff00
9d00427c:	432f0000 	c0	0x12f0000
9d004280:	42340000 	c0	0x340000
9d004284:	439d8000 	c0	0x19d8000
9d004288:	42440000 	c0	0x440000
9d00428c:	42fa0000 	c0	0xfa0000
9d004290:	40c00000 	ctc0	zero,c0_index
9d004294:	42c80000 	c0	0xc80000

Disassembly of section .text:

9d004298 <__dinit_copy>:
9d004298:	908c0000 	lbu	t4,0(a0)
9d00429c:	24c6ffff 	addiu	a2,a2,-1
9d0042a0:	24840001 	addiu	a0,a0,1
9d0042a4:	a0ac0000 	sb	t4,0(a1)
9d0042a8:	14c0fffb 	bnez	a2,9d004298 <__dinit_copy>
9d0042ac:	24a50001 	addiu	a1,a1,1
9d0042b0:	03e00008 	jr	ra
9d0042b4:	00801025 	move	v0,a0

Disassembly of section .text:

9d0042d0 <_nmi_handler>:
9d0042d0:	401a6000 	mfc0	k0,c0_status
9d0042d4:	3c1bffbf 	lui	k1,0xffbf
9d0042d8:	377bffff 	ori	k1,k1,0xffff
9d0042dc:	035bd024 	and	k0,k0,k1
9d0042e0:	409a6000 	mtc0	k0,c0_status
9d0042e4:	42000018 	eret

9d0042e8 <__dinit_clear>:
9d0042e8:	24c6ffff 	addiu	a2,a2,-1
9d0042ec:	a0a00000 	sb	zero,0(a1)
9d0042f0:	14c0fffd 	bnez	a2,9d0042e8 <__dinit_clear>
9d0042f4:	24a50001 	addiu	a1,a1,1
9d0042f8:	03e00008 	jr	ra
9d0042fc:	00801025 	move	v0,a0

Disassembly of section .text.initializeApplication:

9d004300 <initializeApplication>:
    sensorThreadState = SENSOR_DO_MEASUREMENTS;  //Start the sensor thread in the SENSOR_DO_MEASUREMENTS state
9d004300:	24020001 	li	v0,1
9d004304:	af828038 	sw	v0,-32712(gp)
}
9d004308:	00000000 	nop
9d00430c:	03e00008 	jr	ra
9d004310:	00000000 	nop

Disassembly of section .rodata:

9d004314 <_dinit_func_table>:
9d004314:	9d0042e8 9d004298 9d003ae0 9d003ae0     .B...B...:...:..
9d004324:	9d003ae0                                .:..

Disassembly of section .app_config:

9d004328 <configNodeID>:
9d004328:	0c000000                                ....

9d00432c <configSampleInterval>:
9d00432c:	00000500                                ....

9d004330 <configRadioCarrier>:
9d004330:	19ce4af0                                .J..

9d004334 <configRadioBitrate>:
9d004334:	0c000960                                `...

Disassembly of section .text.__exception_handler_break:

9d004338 <__exception_handler_break>:
9d004338:	7000003f 	sdbbp
9d00433c:	03e00008 	jr	ra
9d004340:	00000000 	nop

Disassembly of section .rodata:

9d004344 <.rodata>:
9d004344:	42c80000 	c0	0xc80000
9d004348:	41200000 	0x41200000

Disassembly of section .text._on_reset:

9d00434c <_on_reset>:
9d00434c:	03e00008 	jr	ra
9d004350:	00000000 	nop

Disassembly of section .text._on_bootstrap:

9d004354 <_on_bootstrap>:
9d004354:	03e00008 	jr	ra
9d004358:	00000000 	nop

Disassembly of section .rodata:

9d00435c <.rodata>:
9d00435c:	42c80000 	c0	0xc80000
