
dist\basestation_production\production\base-station.X.production.elf:     file format elf32-tradlittlemips


Disassembly of section .config_BFC00BF0:

bfc00bf0 <__config_BFC00BF0>:
bfc00bf0:	ff ff ff cf                                         ....

Disassembly of section .config_BFC00BF4:

bfc00bf4 <__config_BFC00BF4>:
bfc00bf4:	99 ff fa ff                                         ....

Disassembly of section .config_BFC00BF8:

bfc00bf8 <__config_BFC00BF8>:
bfc00bf8:	79 5f 74 ff                                         y_t.

Disassembly of section .config_BFC00BFC:

bfc00bfc <__config_BFC00BFC>:
bfc00bfc:	fb ff ff 7f                                         ....

Disassembly of section .reset:

bfc00000 <_reset>:
bfc00000:	0ff00002 	jal	bfc00008 <_startup>
bfc00004:	00000000 	nop

bfc00008 <_startup>:
bfc00008:	401a6000 	mfc0	k0,c0_status
bfc0000c:	7f5a04c0 	ext	k0,k0,0x13,0x1
bfc00010:	13400005 	beqz	k0,bfc00028 <_no_nmi>
bfc00014:	00000000 	nop
bfc00018:	3c1a9d00 	lui	k0,0x9d00
bfc0001c:	275a3ab0 	addiu	k0,k0,15024
bfc00020:	03400008 	jr	k0
bfc00024:	00000000 	nop

bfc00028 <_no_nmi>:
bfc00028:	3c1da000 	lui	sp,0xa000
bfc0002c:	27bd1ff0 	addiu	sp,sp,8176
bfc00030:	3c1ca000 	lui	gp,0xa000
bfc00034:	279c7ff0 	addiu	gp,gp,32752
bfc00038:	3c089d00 	lui	t0,0x9d00
bfc0003c:	25083b0c 	addiu	t0,t0,15116
bfc00040:	0100f809 	jalr	t0
bfc00044:	00000000 	nop

bfc00048 <_start_bss_init>:
bfc00048:	3c08a000 	lui	t0,0xa000
bfc0004c:	25080000 	addiu	t0,t0,0
bfc00050:	3c09a000 	lui	t1,0xa000
bfc00054:	25290040 	addiu	t1,t1,64
bfc00058:	10000003 	b	bfc00068 <_bss_check>
bfc0005c:	00000000 	nop

bfc00060 <_bss_init>:
bfc00060:	ad000000 	sw	zero,0(t0)
bfc00064:	25080004 	addiu	t0,t0,4

bfc00068 <_bss_check>:
bfc00068:	0109082b 	sltu	at,t0,t1
bfc0006c:	1420fffc 	bnez	at,bfc00060 <_bss_init>
bfc00070:	00000000 	nop
bfc00074:	3c089d00 	lui	t0,0x9d00
bfc00078:	25083278 	addiu	t0,t0,12920
bfc0007c:	0100f809 	jalr	t0
bfc00080:	00000000 	nop
bfc00084:	3c090000 	lui	t1,0x0
bfc00088:	25290000 	addiu	t1,t1,0
bfc0008c:	11200010 	beqz	t1,bfc000d0 <_ramfunc_done>
bfc00090:	00000000 	nop
bfc00094:	3c090000 	lui	t1,0x0
bfc00098:	25292000 	addiu	t1,t1,8192
bfc0009c:	3c0abf88 	lui	t2,0xbf88
bfc000a0:	254a2010 	addiu	t2,t2,8208
bfc000a4:	ad490000 	sw	t1,0(t2)
bfc000a8:	3c090000 	lui	t1,0x0
bfc000ac:	25292000 	addiu	t1,t1,8192
bfc000b0:	3c0abf88 	lui	t2,0xbf88
bfc000b4:	254a2020 	addiu	t2,t2,8224
bfc000b8:	ad490000 	sw	t1,0(t2)
bfc000bc:	3c090000 	lui	t1,0x0
bfc000c0:	25292000 	addiu	t1,t1,8192
bfc000c4:	3c0abf88 	lui	t2,0xbf88
bfc000c8:	254a2030 	addiu	t2,t2,8240
bfc000cc:	ad490000 	sw	t1,0(t2)

bfc000d0 <_ramfunc_done>:
bfc000d0:	40804800 	mtc0	zero,c0_count
bfc000d4:	240affff 	li	t2,-1
bfc000d8:	408a5800 	mtc0	t2,c0_compare
bfc000dc:	3c080040 	lui	t0,0x40
bfc000e0:	400a6000 	mfc0	t2,c0_status
bfc000e4:	010a5025 	or	t2,t0,t2
bfc000e8:	408a6000 	mtc0	t2,c0_status
bfc000ec:	3c099d00 	lui	t1,0x9d00
bfc000f0:	25290000 	addiu	t1,t1,0
bfc000f4:	000000c0 	ehb
bfc000f8:	40897801 	mtc0	t1,c0_ebase
bfc000fc:	3c090000 	lui	t1,0x0
bfc00100:	25290001 	addiu	t1,t1,1
bfc00104:	240a0000 	li	t2,0
bfc00108:	7d2a4944 	ins	t2,t1,0x5,0x5
bfc0010c:	408a6001 	mtc0	t2,c0_intctl
bfc00110:	3c090080 	lui	t1,0x80
bfc00114:	40896800 	mtc0	t1,c0_cause
bfc00118:	40088000 	mfc0	t0,c0_config
bfc0011c:	7d090580 	ext	t1,t0,0x16,0x1
bfc00120:	00094c40 	sll	t1,t1,0x11
bfc00124:	40086000 	mfc0	t0,c0_status
bfc00128:	3c010058 	lui	at,0x58
bfc0012c:	01014024 	and	t0,t0,at
bfc00130:	01284025 	or	t0,t1,t0
bfc00134:	40886000 	mtc0	t0,c0_status
bfc00138:	000000c0 	ehb
bfc0013c:	3c089d00 	lui	t0,0x9d00
bfc00140:	25083b14 	addiu	t0,t0,15124
bfc00144:	0100f809 	jalr	t0
bfc00148:	00000000 	nop
bfc0014c:	40086000 	mfc0	t0,c0_status
bfc00150:	3c01ffbf 	lui	at,0xffbf
bfc00154:	3421ffff 	ori	at,at,0xffff
bfc00158:	01014024 	and	t0,t0,at
bfc0015c:	40886000 	mtc0	t0,c0_status
bfc00160:	30840000 	andi	a0,a0,0x0
bfc00164:	30a50000 	andi	a1,a1,0x0
bfc00168:	3c089d00 	lui	t0,0x9d00
bfc0016c:	25083788 	addiu	t0,t0,14216
bfc00170:	01000008 	jr	t0
bfc00174:	00000000 	nop

Disassembly of section .bev_excpt:

bfc00380 <_bev_exception>:
bfc00380:	3c1a9d00 	lui	k0,0x9d00
bfc00384:	275a3874 	addiu	k0,k0,14452
bfc00388:	03400008 	jr	k0
bfc0038c:	00000000 	nop

Disassembly of section .app_excpt:

9d000180 <_gen_exception>:
9d000180:	3c1a9d00 	lui	k0,0x9d00
9d000184:	275a2728 	addiu	k0,k0,10024
9d000188:	03400008 	jr	k0
9d00018c:	00000000 	nop

Disassembly of section .vector_0:

9d000200 <__vector_dispatch_0>:
9d000200:	0b400e41 	j	9d003904 <_DefaultInterrupt>
9d000204:	00000000 	nop

Disassembly of section .vector_1:

9d000220 <__vector_dispatch_1>:
9d000220:	0b400e41 	j	9d003904 <_DefaultInterrupt>
9d000224:	00000000 	nop

Disassembly of section .vector_2:

9d000240 <__vector_dispatch_2>:
9d000240:	0b400e41 	j	9d003904 <_DefaultInterrupt>
9d000244:	00000000 	nop

Disassembly of section .vector_3:

9d000260 <__vector_dispatch_3>:
9d000260:	0b400e41 	j	9d003904 <_DefaultInterrupt>
9d000264:	00000000 	nop

Disassembly of section .vector_4:

9d000280 <__vector_dispatch_4>:
9d000280:	0b400ae0 	j	9d002b80 <timer1PeriodMatchISR>
9d000284:	00000000 	nop

Disassembly of section .vector_5:

9d0002a0 <__vector_dispatch_5>:
9d0002a0:	0b400e41 	j	9d003904 <_DefaultInterrupt>
9d0002a4:	00000000 	nop

Disassembly of section .vector_6:

9d0002c0 <__vector_dispatch_6>:
9d0002c0:	0b400e41 	j	9d003904 <_DefaultInterrupt>
9d0002c4:	00000000 	nop

Disassembly of section .vector_7:

9d0002e0 <__vector_dispatch_7>:
9d0002e0:	0b400e41 	j	9d003904 <_DefaultInterrupt>
9d0002e4:	00000000 	nop

Disassembly of section .vector_8:

9d000300 <__vector_dispatch_8>:
9d000300:	0b400e41 	j	9d003904 <_DefaultInterrupt>
9d000304:	00000000 	nop

Disassembly of section .vector_9:

9d000320 <__vector_dispatch_9>:
9d000320:	0b400e41 	j	9d003904 <_DefaultInterrupt>
9d000324:	00000000 	nop

Disassembly of section .vector_10:

9d000340 <__vector_dispatch_10>:
9d000340:	0b400e41 	j	9d003904 <_DefaultInterrupt>
9d000344:	00000000 	nop

Disassembly of section .vector_11:

9d000360 <__vector_dispatch_11>:
9d000360:	0b400e41 	j	9d003904 <_DefaultInterrupt>
9d000364:	00000000 	nop

Disassembly of section .vector_12:

9d000380 <__vector_dispatch_12>:
9d000380:	0b400e41 	j	9d003904 <_DefaultInterrupt>
9d000384:	00000000 	nop

Disassembly of section .vector_13:

9d0003a0 <__vector_dispatch_13>:
9d0003a0:	0b400e41 	j	9d003904 <_DefaultInterrupt>
9d0003a4:	00000000 	nop

Disassembly of section .vector_14:

9d0003c0 <__vector_dispatch_14>:
9d0003c0:	0b400e41 	j	9d003904 <_DefaultInterrupt>
9d0003c4:	00000000 	nop

Disassembly of section .vector_15:

9d0003e0 <__vector_dispatch_15>:
9d0003e0:	0b400e41 	j	9d003904 <_DefaultInterrupt>
9d0003e4:	00000000 	nop

Disassembly of section .vector_16:

9d000400 <__vector_dispatch_16>:
9d000400:	0b400e41 	j	9d003904 <_DefaultInterrupt>
9d000404:	00000000 	nop

Disassembly of section .vector_17:

9d000420 <__vector_dispatch_17>:
9d000420:	0b400e41 	j	9d003904 <_DefaultInterrupt>
9d000424:	00000000 	nop

Disassembly of section .vector_18:

9d000440 <__vector_dispatch_18>:
9d000440:	0b400e41 	j	9d003904 <_DefaultInterrupt>
9d000444:	00000000 	nop

Disassembly of section .vector_19:

9d000460 <__vector_dispatch_19>:
9d000460:	0b400bf4 	j	9d002fd0 <int4ISR>
9d000464:	00000000 	nop

Disassembly of section .vector_20:

9d000480 <__vector_dispatch_20>:
9d000480:	0b400e41 	j	9d003904 <_DefaultInterrupt>
9d000484:	00000000 	nop

Disassembly of section .vector_21:

9d0004a0 <__vector_dispatch_21>:
9d0004a0:	0b400e41 	j	9d003904 <_DefaultInterrupt>
9d0004a4:	00000000 	nop

Disassembly of section .vector_22:

9d0004c0 <__vector_dispatch_22>:
9d0004c0:	0b400e41 	j	9d003904 <_DefaultInterrupt>
9d0004c4:	00000000 	nop

Disassembly of section .vector_23:

9d0004e0 <__vector_dispatch_23>:
9d0004e0:	0b400e41 	j	9d003904 <_DefaultInterrupt>
9d0004e4:	00000000 	nop

Disassembly of section .vector_24:

9d000500 <__vector_dispatch_24>:
9d000500:	0b400e41 	j	9d003904 <_DefaultInterrupt>
9d000504:	00000000 	nop

Disassembly of section .vector_25:

9d000520 <__vector_dispatch_25>:
9d000520:	0b400b09 	j	9d002c24 <rtccAlarmISR>
9d000524:	00000000 	nop

Disassembly of section .vector_26:

9d000540 <__vector_dispatch_26>:
9d000540:	0b400e41 	j	9d003904 <_DefaultInterrupt>
9d000544:	00000000 	nop

Disassembly of section .vector_27:

9d000560 <__vector_dispatch_27>:
9d000560:	0b400e41 	j	9d003904 <_DefaultInterrupt>
9d000564:	00000000 	nop

Disassembly of section .vector_28:

9d000580 <__vector_dispatch_28>:
9d000580:	0b400e41 	j	9d003904 <_DefaultInterrupt>
9d000584:	00000000 	nop

Disassembly of section .vector_29:

9d0005a0 <__vector_dispatch_29>:
9d0005a0:	0b400e41 	j	9d003904 <_DefaultInterrupt>
9d0005a4:	00000000 	nop

Disassembly of section .vector_30:

9d0005c0 <__vector_dispatch_30>:
9d0005c0:	0b400e41 	j	9d003904 <_DefaultInterrupt>
9d0005c4:	00000000 	nop

Disassembly of section .vector_31:

9d0005e0 <__vector_dispatch_31>:
9d0005e0:	0b400e41 	j	9d003904 <_DefaultInterrupt>
9d0005e4:	00000000 	nop

Disassembly of section .vector_32:

9d000600 <__vector_dispatch_32>:
9d000600:	0b400e41 	j	9d003904 <_DefaultInterrupt>
9d000604:	00000000 	nop

Disassembly of section .vector_33:

9d000620 <__vector_dispatch_33>:
9d000620:	0b400e41 	j	9d003904 <_DefaultInterrupt>
9d000624:	00000000 	nop

Disassembly of section .vector_34:

9d000640 <__vector_dispatch_34>:
9d000640:	0b400b59 	j	9d002d64 <portChangeNoticeISR>
9d000644:	00000000 	nop

Disassembly of section .vector_35:

9d000660 <__vector_dispatch_35>:
9d000660:	0b400e41 	j	9d003904 <_DefaultInterrupt>
9d000664:	00000000 	nop

Disassembly of section .vector_36:

9d000680 <__vector_dispatch_36>:
9d000680:	0b400e41 	j	9d003904 <_DefaultInterrupt>
9d000684:	00000000 	nop

Disassembly of section .vector_37:

9d0006a0 <__vector_dispatch_37>:
9d0006a0:	0b400e41 	j	9d003904 <_DefaultInterrupt>
9d0006a4:	00000000 	nop

Disassembly of section .vector_38:

9d0006c0 <__vector_dispatch_38>:
9d0006c0:	0b400e41 	j	9d003904 <_DefaultInterrupt>
9d0006c4:	00000000 	nop

Disassembly of section .vector_39:

9d0006e0 <__vector_dispatch_39>:
9d0006e0:	0b400e41 	j	9d003904 <_DefaultInterrupt>
9d0006e4:	00000000 	nop

Disassembly of section .vector_40:

9d000700 <__vector_dispatch_40>:
9d000700:	0b400e41 	j	9d003904 <_DefaultInterrupt>
9d000704:	00000000 	nop

Disassembly of section .vector_41:

9d000720 <__vector_dispatch_41>:
9d000720:	0b400e41 	j	9d003904 <_DefaultInterrupt>
9d000724:	00000000 	nop

Disassembly of section .vector_42:

9d000740 <__vector_dispatch_42>:
9d000740:	0b400a33 	j	9d0028cc <dma2ISR>
9d000744:	00000000 	nop

Disassembly of section .vector_43:

9d000760 <__vector_dispatch_43>:
9d000760:	0b400e41 	j	9d003904 <_DefaultInterrupt>
9d000764:	00000000 	nop

Disassembly of section ._debug_exception:

bfc00480 <__DbgExecReturn>:
bfc00480:	409bf800 	mtc0	k1,c0_desave
bfc00484:	000000c0 	ehb
bfc00488:	3c1b9d00 	lui	k1,0x9d00
bfc0048c:	277b394c 	addiu	k1,k1,14668
bfc00490:	13600002 	beqz	k1,bfc0049c <__DbgExecReturn+0x1c>
bfc00494:	00000000 	nop
bfc00498:	409bc000 	mtc0	k1,c0_depc
bfc0049c:	401bf800 	mfc0	k1,c0_desave
bfc004a0:	000000c0 	ehb
bfc004a4:	4200001f 	deret
bfc004a8:	00000000 	nop

Disassembly of section .thread_handlers:

9d000780 <sensorStartMeasurements>:
 *  Sensor Thread  *
 *******************/

//Start Measurements Function, instructs the sensors to begin new measurements
void sensorStartMeasurements()
{
9d000780:	27bdffe8 	addiu	sp,sp,-24
9d000784:	afbf0014 	sw	ra,20(sp)
    requestMeasurementSHT4X(HIGH_PRECISION_NO_HEATER);  //Ask the SHT4x sensor to start a new temperature and humidity measurement
9d000788:	240400fd 	li	a0,253
9d00078c:	0f400e71 	jal	9d0039c4 <requestMeasurementSHT4X>
9d000790:	00000000 	nop
    setModeDPS368(CONT_BOTH);                           //Start background measurements of both pressure and temperature on the DPS368 sensor
9d000794:	24040007 	li	a0,7
9d000798:	0f400df7 	jal	9d0037dc <setModeDPS368>
9d00079c:	00000000 	nop

    LATBSET = 0x00000400;  //Turn on the status LED to indicate the measurement process has started
9d0007a0:	3c02bf88 	lui	v0,0xbf88
9d0007a4:	24030400 	li	v1,1024
9d0007a8:	ac436138 	sw	v1,24888(v0)

    sensorThreadState = SENSOR_GET_PRESSURE;  //Next state of the thread is SENSOR_GET_TEMPERATURE
9d0007ac:	24020002 	li	v0,2
9d0007b0:	af828038 	sw	v0,-32712(gp)
}
9d0007b4:	00000000 	nop
9d0007b8:	8fbf0014 	lw	ra,20(sp)
9d0007bc:	27bd0018 	addiu	sp,sp,24
9d0007c0:	03e00008 	jr	ra
9d0007c4:	00000000 	nop

9d0007c8 <sensorGetPressure>:

//Get Measurements Function, attempts to read the new measurement data from the sensors
void sensorGetPressure()
{
9d0007c8:	27bdffe0 	addiu	sp,sp,-32
9d0007cc:	afbf001c 	sw	ra,28(sp)
    if (getResultStatusDPS368() != BOTH_READY) return;  //Leave if the results from the barometric pressure sensor aren't ready yet
9d0007d0:	0f400dcb 	jal	9d00372c <getResultStatusDPS368>
9d0007d4:	00000000 	nop
9d0007d8:	00401825 	move	v1,v0
9d0007dc:	24020003 	li	v0,3
9d0007e0:	14620014 	bne	v1,v0,9d000834 <sensorGetPressure+0x6c>
9d0007e4:	00000000 	nop

    uint32_t resultBuffer[0x00000002];                   //Create an array of 2 32-bit unsigned integers to use for caching the results obtained from the sensors
    setModeDPS368(IDLE);                                 //Put the DPS368 sensor back into IDLE mode to save power
9d0007e8:	00002025 	move	a0,zero
9d0007ec:	0f400df7 	jal	9d0037dc <setModeDPS368>
9d0007f0:	00000000 	nop
    getResultsFromFifoDPS368(resultBuffer, 0x00000002);  //Read both the temperature and pressure data from the sensor into resultBuffer
9d0007f4:	24050002 	li	a1,2
9d0007f8:	27a20010 	addiu	v0,sp,16
9d0007fc:	00402025 	move	a0,v0
9d000800:	0f400e64 	jal	9d003990 <getResultsFromFifoDPS368>
9d000804:	00000000 	nop

    mostRecentPres = convertToPressureFromDPS368(*resultBuffer, *(resultBuffer + 0x00000001));  //Convert the raw sensor data into the compensated barometric pressure in Pascal
9d000808:	8fa20010 	lw	v0,16(sp)
9d00080c:	8fa30014 	lw	v1,20(sp)
9d000810:	00602825 	move	a1,v1
9d000814:	00402025 	move	a0,v0
9d000818:	0f40049f 	jal	9d00127c <convertToPressureFromDPS368>
9d00081c:	00000000 	nop
9d000820:	af828048 	sw	v0,-32696(gp)

    sensorThreadState = SENSOR_GET_TEMPERATURE;  //Next state of the thread is SENSOR_GET_TEMPERATURE
9d000824:	24020003 	li	v0,3
9d000828:	af828038 	sw	v0,-32712(gp)
9d00082c:	10000002 	b	9d000838 <sensorGetPressure+0x70>
9d000830:	00000000 	nop
    if (getResultStatusDPS368() != BOTH_READY) return;  //Leave if the results from the barometric pressure sensor aren't ready yet
9d000834:	00000000 	nop
}
9d000838:	8fbf001c 	lw	ra,28(sp)
9d00083c:	27bd0020 	addiu	sp,sp,32
9d000840:	03e00008 	jr	ra
9d000844:	00000000 	nop

9d000848 <sensorGetTemperature>:

//Get Temperature Function, attempts to read the new measurement data from the temperature and humidity sensor
void sensorGetTemperature()
{
9d000848:	27bdffe0 	addiu	sp,sp,-32
9d00084c:	afbf001c 	sw	ra,28(sp)
    uint32_t resultBuffer[0x00000002];

    if (!getResultsSHT4X((uint16_t *) resultBuffer, (uint16_t *) (resultBuffer + 0x00000001))) return;  //Try to get the temperature and humidity data from the sensor, leaving upon failure
9d000850:	27a20014 	addiu	v0,sp,20
9d000854:	00402825 	move	a1,v0
9d000858:	27a20010 	addiu	v0,sp,16
9d00085c:	00402025 	move	a0,v0
9d000860:	0f400ab7 	jal	9d002adc <getResultsSHT4X>
9d000864:	00000000 	nop
9d000868:	1040000f 	beqz	v0,9d0008a8 <sensorGetTemperature+0x60>
9d00086c:	00000000 	nop

    mostRecentTemp = convertToTempCFromSHT4X((uint16_t *) resultBuffer);            //Convert the raw temperature data into it's compensated form in Celsius
9d000870:	27a20010 	addiu	v0,sp,16
9d000874:	00402025 	move	a0,v0
9d000878:	0f400cf8 	jal	9d0033e0 <convertToTempCFromSHT4X>
9d00087c:	00000000 	nop
9d000880:	af828040 	sw	v0,-32704(gp)
    mostRecentRH = convertToRHFromSHT4X((uint16_t *) (resultBuffer + 0x00000001));  //Convert the raw humidity data into it's compensated form as a percentage
9d000884:	27a20014 	addiu	v0,sp,20
9d000888:	00402025 	move	a0,v0
9d00088c:	0f400a01 	jal	9d002804 <convertToRHFromSHT4X>
9d000890:	00000000 	nop
9d000894:	af828044 	sw	v0,-32700(gp)

    sensorThreadState = SENSOR_REPORT_MEASUREMENTS;  //Next state of the thread is SENSOR_REPORT_MEASUREMENTS
9d000898:	24020004 	li	v0,4
9d00089c:	af828038 	sw	v0,-32712(gp)
9d0008a0:	10000002 	b	9d0008ac <sensorGetTemperature+0x64>
9d0008a4:	00000000 	nop
    if (!getResultsSHT4X((uint16_t *) resultBuffer, (uint16_t *) (resultBuffer + 0x00000001))) return;  //Try to get the temperature and humidity data from the sensor, leaving upon failure
9d0008a8:	00000000 	nop
}
9d0008ac:	8fbf001c 	lw	ra,28(sp)
9d0008b0:	27bd0020 	addiu	sp,sp,32
9d0008b4:	03e00008 	jr	ra
9d0008b8:	00000000 	nop

9d0008bc <sensorReportMeasurements>:

//Report Measurements Function, prepares the obtained measurements and then sends them over the air
void sensorReportMeasurements()
{
//    changeClockSpeed(SYSCLK_16MHZ);  //Boost the CPU clock for both interacting with the radio later on and also to keep computation time short
    LATBSET = 0x00000400;
9d0008bc:	3c02bf88 	lui	v0,0xbf88
9d0008c0:	24030400 	li	v1,1024
9d0008c4:	ac436138 	sw	v1,24888(v0)

    while (DCH2CON & 0x00008000) asm volatile ("wait");  //Keep the CPU in idle mode until DMA 2 is done writing to UART 2 before down-clocking the CPU
    while (!(U2STA & 0x00000100));                       //Wait until the transmission has completed fully before we down-clock the CPU
#endif

    LATBCLR = 0x00000400;
9d0008c8:	3c02bf88 	lui	v0,0xbf88
9d0008cc:	24030400 	li	v1,1024
9d0008d0:	ac436134 	sw	v1,24884(v0)
//    changeClockSpeed(SYSCLK_1MHZ);

    //Reset the RTC before going entering sleep mode
    RTCDATE = 0x00000000;  //Reset the date value back to 0
9d0008d4:	3c02bf80 	lui	v0,0xbf80
9d0008d8:	ac400230 	sw	zero,560(v0)
    RTCTIME = 0x00000000;  //Reset the time value back to 0
9d0008dc:	3c02bf80 	lui	v0,0xbf80
9d0008e0:	ac400220 	sw	zero,544(v0)
    RTCALRM = 0x00008600;  //Setup a single alarm to occur at the pre-set interval
9d0008e4:	3c02bf80 	lui	v0,0xbf80
9d0008e8:	34038600 	li	v1,0x8600
9d0008ec:	ac430210 	sw	v1,528(v0)
    RTCCON = 0x0000A248;   //Enable the RTCC and start counting
9d0008f0:	3c02bf80 	lui	v0,0xbf80
9d0008f4:	3403a248 	li	v1,0xa248
9d0008f8:	ac430200 	sw	v1,512(v0)

//    if (!radioThreadState) radioThreadState = RADIO_SEND_MEASUREMENTS;  //Request that the radio start sending a new packet
    
    sensorThreadState = SENSOR_SLEEP;  //Next state of the thread is SENSOR_SLEEP
9d0008fc:	af808038 	sw	zero,-32712(gp)
}
9d000900:	00000000 	nop
9d000904:	03e00008 	jr	ra
9d000908:	00000000 	nop

9d00090c <sensorMeasureFail>:
//Measure Fail Function, handles any exceptions that occur when collecting measurements from the sensors
void sensorMeasureFail()
{
    //Do something

    sensorThreadState = SENSOR_SLEEP;  //Next state of the thread is SENSOR_SLEEP
9d00090c:	af808038 	sw	zero,-32712(gp)
}
9d000910:	00000000 	nop
9d000914:	03e00008 	jr	ra
9d000918:	00000000 	nop

9d00091c <radioProcessInterrupts>:
 *  Radio Thread  *
 ******************/

//Process Interrupt Function, handles interrupt assertions placed by the radio
void radioProcessInterrupts()
{
9d00091c:	27bdffe0 	addiu	sp,sp,-32
9d000920:	afbf001c 	sw	ra,28(sp)
    uint8_t radioIRQdata = 0x00;                                                             //Create a new variable to use for putting the IRQ bits obtained from the radio into
9d000924:	a3a00010 	sb	zero,16(sp)
    interactWithRegistersSX1231H(REGADDR_IRQFLAGS2, &radioIRQdata, 0x00000001, 0xFFFFFFFF);  //Read the IRQ bits from the IrqFlags2 register on the radio
9d000928:	2407ffff 	li	a3,-1
9d00092c:	24060001 	li	a2,1
9d000930:	27a20010 	addiu	v0,sp,16
9d000934:	00402825 	move	a1,v0
9d000938:	24040028 	li	a0,40
9d00093c:	0f400875 	jal	9d0021d4 <interactWithRegistersSX1231H>
9d000940:	00000000 	nop
    {
//        radioThreadState = RADIO_PAYLOAD_RECEIVED;  //Next state of the thread is RADIO_PAYLOAD_RECEIVED
//        return;                                     //Leave, we're done here now
    }

    interactWithRegistersSX1231H(REGADDR_IRQFLAGS1, &radioIRQdata, 0x00000001, 0xFFFFFFFF);  //Read the IRQ bits from the IrqFlags1 register on the radio
9d000944:	2407ffff 	li	a3,-1
9d000948:	24060001 	li	a2,1
9d00094c:	27a20010 	addiu	v0,sp,16
9d000950:	00402825 	move	a1,v0
9d000954:	24040027 	li	a0,39
9d000958:	0f400875 	jal	9d0021d4 <interactWithRegistersSX1231H>
9d00095c:	00000000 	nop

    //Check if the SyncAddressMatch flag is set
    if (radioIRQdata & 0x00000001)
9d000960:	93a20010 	lbu	v0,16(sp)
9d000964:	30420001 	andi	v0,v0,0x1
9d000968:	10400013 	beqz	v0,9d0009b8 <radioProcessInterrupts+0x9c>
9d00096c:	00000000 	nop
    {
        LATASET = 0x00000002;
9d000970:	3c02bf88 	lui	v0,0xbf88
9d000974:	24030002 	li	v1,2
9d000978:	ac436038 	sw	v1,24632(v0)

        mostRecentRSSI = getRssiSX1231H();  //Record the current RSSI of the detected signal as we can not capture this after the payload is ready
9d00097c:	0f400d9b 	jal	9d00366c <getRssiSX1231H>
9d000980:	00000000 	nop
9d000984:	af82804c 	sw	v0,-32692(gp)
        setDIOMappingsSX1231H(0x00000100);  //Make GPIO0 of the transceiver IC output the PayloadReady interrupt signal
9d000988:	24040100 	li	a0,256
9d00098c:	0f400d32 	jal	9d0034c8 <setDIOMappingsSX1231H>
9d000990:	00000000 	nop

        TMR1 = 0x00000000;      //Reset the counter for Timer 1
9d000994:	3c02bf80 	lui	v0,0xbf80
9d000998:	ac400610 	sw	zero,1552(v0)
        T1CONSET = 0x00008000;  //Start Timer 1 to act as a time-out generator in the event that no payload is actually received
9d00099c:	3c02bf80 	lui	v0,0xbf80
9d0009a0:	34038000 	li	v1,0x8000
9d0009a4:	ac430608 	sw	v1,1544(v0)

        radioThreadState = RADIO_IDLE;  //Next state of the thread is RADIO_IDLE
9d0009a8:	24020001 	li	v0,1
9d0009ac:	af82803c 	sw	v0,-32708(gp)
9d0009b0:	10000002 	b	9d0009bc <radioProcessInterrupts+0xa0>
9d0009b4:	00000000 	nop
        return;                         //Leave, we're done here now
    }

    radioThreadState = RADIO_SLEEP;  //Next state of the thread is RADIO_SLEEP by default
9d0009b8:	af80803c 	sw	zero,-32708(gp)
}
9d0009bc:	8fbf001c 	lw	ra,28(sp)
9d0009c0:	27bd0020 	addiu	sp,sp,32
9d0009c4:	03e00008 	jr	ra
9d0009c8:	00000000 	nop

9d0009cc <radioStartRX>:
    radioThreadState = RADIO_SLEEP;
}

//Start RX Function, puts the radio into receive mode and prepares for packet reception
void radioStartRX()
{
9d0009cc:	27bdffe8 	addiu	sp,sp,-24
9d0009d0:	afbf0014 	sw	ra,20(sp)
    setPowerLevelSX1231H(0x00000000);   //Set the power level of the radio to 0, required before entering RX mode to prevent damage
9d0009d4:	00002025 	move	a0,zero
9d0009d8:	0f400822 	jal	9d002088 <setPowerLevelSX1231H>
9d0009dc:	00000000 	nop
    setDeviceModeSX1231H(STBY);         //Put the radio into standby mode, ensures that FIFO gets cleared
9d0009e0:	24040001 	li	a0,1
9d0009e4:	0f400d4e 	jal	9d003538 <setDeviceModeSX1231H>
9d0009e8:	00000000 	nop
    setDIOMappingsSX1231H(0x00000200);  //Make GPIO0 of the transceiver IC output the SyncAddress interrupt signal
9d0009ec:	24040200 	li	a0,512
9d0009f0:	0f400d32 	jal	9d0034c8 <setDIOMappingsSX1231H>
9d0009f4:	00000000 	nop
    setDeviceModeSX1231H(RX);           //Put the radio into the receive mode, also clears the FIFO buffer
9d0009f8:	24040004 	li	a0,4
9d0009fc:	0f400d4e 	jal	9d003538 <setDeviceModeSX1231H>
9d000a00:	00000000 	nop
//    uint8_t buffer = 0x10;                                                               //Create a temporary buffer to store the command bytes to be sent to the radio
//    interactWithRegistersSX1231H(REGADDR_IRQFLAGS2, &buffer, 0x00000001, 0x00000000);    //Force clear the FIFO buffer on the radio
//    buffer = 0x80;                                                                       //Put the new DIO mapping configuration into the buffer
//    interactWithRegistersSX1231H(REGADDR_DIOMAPPING1, &buffer, 0x00000001, 0x00000000);  //Instruct the radio to output the Rssi interrupt on GPIO0

    LATACLR = 0x00000002;
9d000a04:	3c02bf88 	lui	v0,0xbf88
9d000a08:	24030002 	li	v1,2
9d000a0c:	ac436034 	sw	v1,24628(v0)

    radioThreadState = RADIO_SLEEP;  //Next state of the thread is RADIO_SLEEP
9d000a10:	af80803c 	sw	zero,-32708(gp)
}
9d000a14:	00000000 	nop
9d000a18:	8fbf0014 	lw	ra,20(sp)
9d000a1c:	27bd0018 	addiu	sp,sp,24
9d000a20:	03e00008 	jr	ra
9d000a24:	00000000 	nop

9d000a28 <radioStartTX>:
    radioThreadState = RADIO_SLEEP;
9d000a28:	af80803c 	sw	zero,-32708(gp)
}
9d000a2c:	00000000 	nop
9d000a30:	03e00008 	jr	ra
9d000a34:	00000000 	nop

9d000a38 <radioGetPayload>:

//Get Payload Function, reads the newly received payload data from the radio's FIFO buffer
void radioGetPayload()
{
9d000a38:	27bdfed8 	addiu	sp,sp,-296
9d000a3c:	afbf0124 	sw	ra,292(sp)
    uint8_t rxBuffer[0x00000100];

    interactWithRegistersSX1231H(REGADDR_PAYLOADLENGTH, rxBuffer, 0x00000001, 0xFFFFFFFF);  //Determine the size of the received payload and write it to the first byte of the rxBuffer array
9d000a40:	27a20014 	addiu	v0,sp,20
9d000a44:	2407ffff 	li	a3,-1
9d000a48:	24060001 	li	a2,1
9d000a4c:	00402825 	move	a1,v0
9d000a50:	24040038 	li	a0,56
9d000a54:	0f400875 	jal	9d0021d4 <interactWithRegistersSX1231H>
9d000a58:	00000000 	nop
    interactWithRegistersSX1231H(REGADDR_FIFO, rxBuffer, *rxBuffer, 0xFFFFFFFF);            //Read the desired number of bytes from the FIFO into the rxBuffer array
9d000a5c:	93a20014 	lbu	v0,20(sp)
9d000a60:	27a30014 	addiu	v1,sp,20
9d000a64:	2407ffff 	li	a3,-1
9d000a68:	00403025 	move	a2,v0
9d000a6c:	00602825 	move	a1,v1
9d000a70:	00002025 	move	a0,zero
9d000a74:	0f400875 	jal	9d0021d4 <interactWithRegistersSX1231H>
9d000a78:	00000000 	nop

    float decodedTemperature, decodedHumidity, decodedPressure;
    uint32_t stringLength = 0x00000000;
9d000a7c:	afa00010 	sw	zero,16(sp)
    
    getMeasurementsFromMeasureReportPacket((packetMeasureReport_t *) rxBuffer, &decodedTemperature, &decodedHumidity, &decodedPressure);
9d000a80:	27a5011c 	addiu	a1,sp,284
9d000a84:	27a40118 	addiu	a0,sp,280
9d000a88:	27a30114 	addiu	v1,sp,276
9d000a8c:	27a20014 	addiu	v0,sp,20
9d000a90:	00a03825 	move	a3,a1
9d000a94:	00803025 	move	a2,a0
9d000a98:	00602825 	move	a1,v1
9d000a9c:	00402025 	move	a0,v0
9d000aa0:	0f40090c 	jal	9d002430 <getMeasurementsFromMeasureReportPacket>
9d000aa4:	00000000 	nop
    constructRssiLog((uint8_t *) dmaBufferTxUART + stringLength, &mostRecentRSSI);
    stringLength = strlen((uint8_t *) dmaBufferTxUART);
    startTxUART((uint8_t *) dmaBufferTxUART, &stringLength);                                                      //Start the transmission of the log message over UART
#endif

    radioThreadState = RADIO_START_RX;  //Next state of the thread is RADIO_START_RX
9d000aa8:	24020004 	li	v0,4
9d000aac:	af82803c 	sw	v0,-32708(gp)
}
9d000ab0:	00000000 	nop
9d000ab4:	8fbf0124 	lw	ra,292(sp)
9d000ab8:	27bd0128 	addiu	sp,sp,296
9d000abc:	03e00008 	jr	ra
9d000ac0:	00000000 	nop

9d000ac4 <radioSendMeasurements>:
    packetMeasureReport_t packetBuffer;                                                      //Allocate a new packetMeasureReport_t structure in memory to store the generated packet for transmission
    newMeasureReportPacket(&packetBuffer, &mostRecentTemp, &mostRecentRH, &mostRecentPres);  //Generate a new measurement report packet containing the most recent measurement data
    writePacketSX1231H(packetBuffer.bytes, PACKET_LENGTH_MEASUREREPORT);                     //Write the packet bytes to the radio module to begin the transmission
#endif

    radioThreadState = RADIO_SLEEP;  //Next state of the thread is RADIO_SLEEP
9d000ac4:	af80803c 	sw	zero,-32708(gp)
}
9d000ac8:	00000000 	nop
9d000acc:	03e00008 	jr	ra
9d000ad0:	00000000 	nop

9d000ad4 <threadSleep>:

//Thread Sleep Function, provides a blank handler function to use when a thread is asleep
void threadSleep()
{
    //Literally do nothing lol
}
9d000ad4:	00000000 	nop
9d000ad8:	03e00008 	jr	ra
9d000adc:	00000000 	nop

Disassembly of section .text.readCalCoeffsDPS368:

9d000ae0 <readCalCoeffsDPS368>:
 ***********************/


//Get Calibration Coefficients Function, reads the calibration coefficients from the sensor to use for processing the results
uint32_t readCalCoeffsDPS368()
{
9d000ae0:	27bdffd0 	addiu	sp,sp,-48
9d000ae4:	afbf002c 	sw	ra,44(sp)
    uint8_t dataBuffer[0x00000012];  //Create an array of 18 bytes to use as a buffer for reading data from the sensor

    //Verify that the calibration coefficients are ready to be retrieved from the sensor
    *dataBuffer = 0x08;                                                      //Select the MEAS_CFG register on the sensor
9d000ae8:	24020008 	li	v0,8
9d000aec:	a3a20014 	sb	v0,20(sp)
    if (!readFromI2C(DPS368_I2C_ADDR, dataBuffer, 0x00000001, 0x00000001));  //Attempt to read the contents of the MEAS_CFG register on the sensor, leave if no response is received
9d000af0:	27a20014 	addiu	v0,sp,20
9d000af4:	24070001 	li	a3,1
9d000af8:	24060001 	li	a2,1
9d000afc:	00402825 	move	a1,v0
9d000b00:	24040076 	li	a0,118
9d000b04:	0f40069f 	jal	9d001a7c <readFromI2C>
9d000b08:	00000000 	nop

    if (!(*dataBuffer & 0x80)) return 0x00;  //Leave the function if the coefficients aren't available yet
9d000b0c:	93a20014 	lbu	v0,20(sp)
9d000b10:	7c021420 	seb	v0,v0
9d000b14:	04400004 	bltz	v0,9d000b28 <readCalCoeffsDPS368+0x48>
9d000b18:	00000000 	nop
9d000b1c:	00001025 	move	v0,zero
9d000b20:	100000a8 	b	9d000dc4 <readCalCoeffsDPS368+0x2e4>
9d000b24:	00000000 	nop

    //Read the calibration coefficients from the sensor
    *dataBuffer = 0x10;                                                                        //Set the start address of the read sequence to the first byte of the calibration coefficients
9d000b28:	24020010 	li	v0,16
9d000b2c:	a3a20014 	sb	v0,20(sp)
    if (!readFromI2C(DPS368_I2C_ADDR, dataBuffer, 0x00000012, 0x00000001)) return 0x00000000;  //Read the memory space in which the calibration data lives in from the sensor into the dataBuffer array
9d000b30:	27a20014 	addiu	v0,sp,20
9d000b34:	24070001 	li	a3,1
9d000b38:	24060012 	li	a2,18
9d000b3c:	00402825 	move	a1,v0
9d000b40:	24040076 	li	a0,118
9d000b44:	0f40069f 	jal	9d001a7c <readFromI2C>
9d000b48:	00000000 	nop
9d000b4c:	14400004 	bnez	v0,9d000b60 <readCalCoeffsDPS368+0x80>
9d000b50:	00000000 	nop
9d000b54:	00001025 	move	v0,zero
9d000b58:	1000009a 	b	9d000dc4 <readCalCoeffsDPS368+0x2e4>
9d000b5c:	00000000 	nop

    uint8_t *arrayPointer = dataBuffer;  //Declare a pointer to the dataBuffer array to use for iterating through each index of the array while extracting the coefficients
9d000b60:	27a20014 	addiu	v0,sp,20
9d000b64:	afa20010 	sw	v0,16(sp)

    //Extract the data from the byte array into their respective variables
    dps368Cal_c0 = (*arrayPointer++ << 0x00000004) | ((*arrayPointer & 0xF0) >> 0x00000004);
9d000b68:	8fa20010 	lw	v0,16(sp)
9d000b6c:	24430001 	addiu	v1,v0,1
9d000b70:	afa30010 	sw	v1,16(sp)
9d000b74:	90420000 	lbu	v0,0(v0)
9d000b78:	00021100 	sll	v0,v0,0x4
9d000b7c:	7c021e20 	seh	v1,v0
9d000b80:	8fa20010 	lw	v0,16(sp)
9d000b84:	90420000 	lbu	v0,0(v0)
9d000b88:	00021102 	srl	v0,v0,0x4
9d000b8c:	304200ff 	andi	v0,v0,0xff
9d000b90:	7c021620 	seh	v0,v0
9d000b94:	00621025 	or	v0,v1,v0
9d000b98:	7c021620 	seh	v0,v0
9d000b9c:	a7828018 	sh	v0,-32744(gp)
    dps368Cal_c1 = ((*arrayPointer++ & 0x0F) << 0x00000008) | (*arrayPointer++);
9d000ba0:	8fa20010 	lw	v0,16(sp)
9d000ba4:	24430001 	addiu	v1,v0,1
9d000ba8:	afa30010 	sw	v1,16(sp)
9d000bac:	90420000 	lbu	v0,0(v0)
9d000bb0:	00021200 	sll	v0,v0,0x8
9d000bb4:	7c021620 	seh	v0,v0
9d000bb8:	30420f00 	andi	v0,v0,0xf00
9d000bbc:	7c021e20 	seh	v1,v0
9d000bc0:	8fa20010 	lw	v0,16(sp)
9d000bc4:	24440001 	addiu	a0,v0,1
9d000bc8:	afa40010 	sw	a0,16(sp)
9d000bcc:	90420000 	lbu	v0,0(v0)
9d000bd0:	7c021620 	seh	v0,v0
9d000bd4:	00621025 	or	v0,v1,v0
9d000bd8:	7c021620 	seh	v0,v0
9d000bdc:	a782801a 	sh	v0,-32742(gp)
    dps368Cal_c00 = (*arrayPointer++ << 0x0000000C) | (*arrayPointer++ << 0x00000004) | ((*arrayPointer & 0xF0) >> 0x00000004);
9d000be0:	8fa20010 	lw	v0,16(sp)
9d000be4:	24430001 	addiu	v1,v0,1
9d000be8:	afa30010 	sw	v1,16(sp)
9d000bec:	90420000 	lbu	v0,0(v0)
9d000bf0:	00021b00 	sll	v1,v0,0xc
9d000bf4:	8fa20010 	lw	v0,16(sp)
9d000bf8:	24440001 	addiu	a0,v0,1
9d000bfc:	afa40010 	sw	a0,16(sp)
9d000c00:	90420000 	lbu	v0,0(v0)
9d000c04:	00021100 	sll	v0,v0,0x4
9d000c08:	00621025 	or	v0,v1,v0
9d000c0c:	8fa30010 	lw	v1,16(sp)
9d000c10:	90630000 	lbu	v1,0(v1)
9d000c14:	00031902 	srl	v1,v1,0x4
9d000c18:	306300ff 	andi	v1,v1,0xff
9d000c1c:	00431025 	or	v0,v0,v1
9d000c20:	af82801c 	sw	v0,-32740(gp)
    dps368Cal_c10 = ((*arrayPointer++ & 0x0F) << 0x00000010) | (*arrayPointer++ << 0x00000008) | (*arrayPointer++);
9d000c24:	8fa20010 	lw	v0,16(sp)
9d000c28:	24430001 	addiu	v1,v0,1
9d000c2c:	afa30010 	sw	v1,16(sp)
9d000c30:	90420000 	lbu	v0,0(v0)
9d000c34:	00021c00 	sll	v1,v0,0x10
9d000c38:	3c02000f 	lui	v0,0xf
9d000c3c:	00621824 	and	v1,v1,v0
9d000c40:	8fa20010 	lw	v0,16(sp)
9d000c44:	24440001 	addiu	a0,v0,1
9d000c48:	afa40010 	sw	a0,16(sp)
9d000c4c:	90420000 	lbu	v0,0(v0)
9d000c50:	00021200 	sll	v0,v0,0x8
9d000c54:	00621825 	or	v1,v1,v0
9d000c58:	8fa20010 	lw	v0,16(sp)
9d000c5c:	24440001 	addiu	a0,v0,1
9d000c60:	afa40010 	sw	a0,16(sp)
9d000c64:	90420000 	lbu	v0,0(v0)
9d000c68:	00621025 	or	v0,v1,v0
9d000c6c:	af828020 	sw	v0,-32736(gp)
    dps368Cal_c01 = (*arrayPointer++ << 0x00000008) | (*arrayPointer++);
9d000c70:	8fa20010 	lw	v0,16(sp)
9d000c74:	24430001 	addiu	v1,v0,1
9d000c78:	afa30010 	sw	v1,16(sp)
9d000c7c:	90420000 	lbu	v0,0(v0)
9d000c80:	00021200 	sll	v0,v0,0x8
9d000c84:	7c021e20 	seh	v1,v0
9d000c88:	8fa20010 	lw	v0,16(sp)
9d000c8c:	24440001 	addiu	a0,v0,1
9d000c90:	afa40010 	sw	a0,16(sp)
9d000c94:	90420000 	lbu	v0,0(v0)
9d000c98:	7c021620 	seh	v0,v0
9d000c9c:	00621025 	or	v0,v1,v0
9d000ca0:	7c021620 	seh	v0,v0
9d000ca4:	a7828024 	sh	v0,-32732(gp)
    dps368Cal_c11 = (*arrayPointer++ << 0x00000008) | (*arrayPointer++);
9d000ca8:	8fa20010 	lw	v0,16(sp)
9d000cac:	24430001 	addiu	v1,v0,1
9d000cb0:	afa30010 	sw	v1,16(sp)
9d000cb4:	90420000 	lbu	v0,0(v0)
9d000cb8:	00021200 	sll	v0,v0,0x8
9d000cbc:	7c021e20 	seh	v1,v0
9d000cc0:	8fa20010 	lw	v0,16(sp)
9d000cc4:	24440001 	addiu	a0,v0,1
9d000cc8:	afa40010 	sw	a0,16(sp)
9d000ccc:	90420000 	lbu	v0,0(v0)
9d000cd0:	7c021620 	seh	v0,v0
9d000cd4:	00621025 	or	v0,v1,v0
9d000cd8:	7c021620 	seh	v0,v0
9d000cdc:	a7828026 	sh	v0,-32730(gp)
    dps368Cal_c20 = (*arrayPointer++ << 0x00000008) | (*arrayPointer++);
9d000ce0:	8fa20010 	lw	v0,16(sp)
9d000ce4:	24430001 	addiu	v1,v0,1
9d000ce8:	afa30010 	sw	v1,16(sp)
9d000cec:	90420000 	lbu	v0,0(v0)
9d000cf0:	00021200 	sll	v0,v0,0x8
9d000cf4:	7c021e20 	seh	v1,v0
9d000cf8:	8fa20010 	lw	v0,16(sp)
9d000cfc:	24440001 	addiu	a0,v0,1
9d000d00:	afa40010 	sw	a0,16(sp)
9d000d04:	90420000 	lbu	v0,0(v0)
9d000d08:	7c021620 	seh	v0,v0
9d000d0c:	00621025 	or	v0,v1,v0
9d000d10:	7c021620 	seh	v0,v0
9d000d14:	a7828028 	sh	v0,-32728(gp)
    dps368Cal_c21 = (*arrayPointer++ << 0x00000008) | (*arrayPointer++);
9d000d18:	8fa20010 	lw	v0,16(sp)
9d000d1c:	24430001 	addiu	v1,v0,1
9d000d20:	afa30010 	sw	v1,16(sp)
9d000d24:	90420000 	lbu	v0,0(v0)
9d000d28:	00021200 	sll	v0,v0,0x8
9d000d2c:	7c021e20 	seh	v1,v0
9d000d30:	8fa20010 	lw	v0,16(sp)
9d000d34:	24440001 	addiu	a0,v0,1
9d000d38:	afa40010 	sw	a0,16(sp)
9d000d3c:	90420000 	lbu	v0,0(v0)
9d000d40:	7c021620 	seh	v0,v0
9d000d44:	00621025 	or	v0,v1,v0
9d000d48:	7c021620 	seh	v0,v0
9d000d4c:	a782802a 	sh	v0,-32726(gp)
    dps368Cal_c30 = (*arrayPointer++ << 0x00000008) | (*arrayPointer);
9d000d50:	8fa20010 	lw	v0,16(sp)
9d000d54:	24430001 	addiu	v1,v0,1
9d000d58:	afa30010 	sw	v1,16(sp)
9d000d5c:	90420000 	lbu	v0,0(v0)
9d000d60:	00021200 	sll	v0,v0,0x8
9d000d64:	7c021e20 	seh	v1,v0
9d000d68:	8fa20010 	lw	v0,16(sp)
9d000d6c:	90420000 	lbu	v0,0(v0)
9d000d70:	7c021620 	seh	v0,v0
9d000d74:	00621025 	or	v0,v1,v0
9d000d78:	7c021620 	seh	v0,v0
9d000d7c:	a782802c 	sh	v0,-32724(gp)

    //Correct the sign of the values stored in the variables when required
    forceSign16(&dps368Cal_c0, 0x0000000C);   //Apply 12-bit 2's complements to the number to correct the sign
9d000d80:	2405000c 	li	a1,12
9d000d84:	27848018 	addiu	a0,gp,-32744
9d000d88:	0f400cda 	jal	9d003368 <forceSign16>
9d000d8c:	00000000 	nop
    forceSign16(&dps368Cal_c1, 0x0000000C);   //Apply 12-bit 2's complements to the number to correct the sign
9d000d90:	2405000c 	li	a1,12
9d000d94:	2784801a 	addiu	a0,gp,-32742
9d000d98:	0f400cda 	jal	9d003368 <forceSign16>
9d000d9c:	00000000 	nop
    forceSign32(&dps368Cal_c00, 0x00000014);  //Apply 20-bit 2's complements to the number to correct the sign
9d000da0:	24050014 	li	a1,20
9d000da4:	2784801c 	addiu	a0,gp,-32740
9d000da8:	0f400d16 	jal	9d003458 <forceSign32>
9d000dac:	00000000 	nop
    forceSign32(&dps368Cal_c10, 0x00000014);  //Apply 20-bit 2's complements to the number to correct the sign
9d000db0:	24050014 	li	a1,20
9d000db4:	27848020 	addiu	a0,gp,-32736
9d000db8:	0f400d16 	jal	9d003458 <forceSign32>
9d000dbc:	00000000 	nop

    return 0xFFFFFFFF;  //Return a non-negative value to indicate the coefficients were read successfully
9d000dc0:	2402ffff 	li	v0,-1
}
9d000dc4:	8fbf002c 	lw	ra,44(sp)
9d000dc8:	27bd0030 	addiu	sp,sp,48
9d000dcc:	03e00008 	jr	ra
9d000dd0:	00000000 	nop

Disassembly of section .text.fpsubadd:

9d000dd4 <__subsf3>:
9d000dd4:	3c018000 00a12826                       ...<&(..

9d000ddc <__addsf3>:
9d000ddc:	00044dc2 312900ff 00055dc2 316b00ff     .M....)1.]....k1
9d000dec:	3c078000 00044200 01074025 00055200     ...<.B..%@...R..
9d000dfc:	01475025 252dffff 2da100fe 10200061     %PG...-%...-a. .
9d000e0c:	00000000                                ....

9d000e10 <Blab1>:
9d000e10:	256dffff 	addiu	t5,t3,-1
9d000e14:	2da100fe 	sltiu	at,t5,254
9d000e18:	10200077 	beqz	at,9d000ff8 <BspecB>
9d000e1c:	00000000 	nop

9d000e20 <Blab2>:
9d000e20:	012b6023 	subu	t4,t1,t3
9d000e24:	0580000d 	bltz	t4,9d000e5c <i1>
9d000e28:	00000000 	nop
9d000e2c:	29810020 	slti	at,t4,32
9d000e30:	14200003 	bnez	at,9d000e40 <i2>
9d000e34:	00000000 	nop
9d000e38:	10000015 	b	9d000e90 <e1>
9d000e3c:	240a0002 	li	t2,2

9d000e40 <i2>:
9d000e40:	000a3025 	or	a2,zero,t2
9d000e44:	018a5006 	srlv	t2,t2,t4
9d000e48:	018a6804 	sllv	t5,t2,t4
9d000e4c:	11a60010 	beq	t5,a2,9d000e90 <e1>
9d000e50:	00000000 	nop
9d000e54:	1000000e 	b	9d000e90 <e1>
9d000e58:	354a0002 	ori	t2,t2,0x2

9d000e5c <i1>:
9d000e5c:	000b4825 	or	t1,zero,t3
9d000e60:	000c6023 	negu	t4,t4
9d000e64:	29810020 	slti	at,t4,32
9d000e68:	14200003 	bnez	at,9d000e78 <i4>
9d000e6c:	00000000 	nop
9d000e70:	10000007 	b	9d000e90 <e1>
9d000e74:	24080002 	li	t0,2

9d000e78 <i4>:
9d000e78:	00083025 	or	a2,zero,t0
9d000e7c:	01884006 	srlv	t0,t0,t4
9d000e80:	01886804 	sllv	t5,t0,t4
9d000e84:	11a60002 	beq	t5,a2,9d000e90 <e1>
9d000e88:	00000000 	nop
9d000e8c:	35080002 	ori	t0,t0,0x2

9d000e90 <e1>:
9d000e90:	00876024 	and	t4,a0,a3
9d000e94:	01856826 	xor	t5,t4,a1
9d000e98:	05a00010 	bltz	t5,9d000edc <Bsub1>
9d000e9c:	00000000 	nop
9d000ea0:	010a4021 	addu	t0,t0,t2
9d000ea4:	010a682b 	sltu	t5,t0,t2
9d000ea8:	11a00017 	beqz	t5,9d000f08 <Bres>
9d000eac:	00000000 	nop
9d000eb0:	310d0001 	andi	t5,t0,0x1
9d000eb4:	11a00002 	beqz	t5,9d000ec0 <i7>
9d000eb8:	00000000 	nop
9d000ebc:	35080002 	ori	t0,t0,0x2

9d000ec0 <i7>:
9d000ec0:	00084042 	srl	t0,t0,0x1
9d000ec4:	25290001 	addiu	t1,t1,1
9d000ec8:	240100ff 	li	at,255
9d000ecc:	1521000e 	bne	t1,at,9d000f08 <Bres>
9d000ed0:	00000000 	nop
9d000ed4:	1000000c 	b	9d000f08 <Bres>
9d000ed8:	24080000 	li	t0,0

9d000edc <Bsub1>:
9d000edc:	010a682b 	sltu	t5,t0,t2
9d000ee0:	11a00004 	beqz	t5,9d000ef4 <i9>
9d000ee4:	010a4023 	subu	t0,t0,t2
9d000ee8:	00084023 	negu	t0,t0
9d000eec:	10000003 	b	9d000efc <e9>
9d000ef0:	01876026 	xor	t4,t4,a3

9d000ef4 <i9>:
9d000ef4:	11000050 	beqz	t0,9d001038 <Bzer>
9d000ef8:	00000000 	nop

9d000efc <e9>:
9d000efc:	71063020 	clz	a2,t0
9d000f00:	01264823 	subu	t1,t1,a2
9d000f04:	00c84004 	sllv	t0,t0,a2

9d000f08 <Bres>:
9d000f08:	1920000e 	blez	t1,9d000f44 <Bund>
9d000f0c:	00000000 	nop

9d000f10 <Blab12>:
9d000f10:	25080080 	addiu	t0,t0,128
9d000f14:	2d0d0080 	sltiu	t5,t0,128
9d000f18:	012d4821 	addu	t1,t1,t5
9d000f1c:	00086a02 	srl	t5,t0,0x8
9d000f20:	31ad0001 	andi	t5,t5,0x1
9d000f24:	010d4023 	subu	t0,t0,t5
9d000f28:	00084040 	sll	t0,t0,0x1
9d000f2c:	00084242 	srl	t0,t0,0x9
9d000f30:	00096dc0 	sll	t5,t1,0x17
9d000f34:	010d4025 	or	t0,t0,t5
9d000f38:	010c1025 	or	v0,t0,t4

9d000f3c <B999>:
9d000f3c:	03e00008 	jr	ra
9d000f40:	00000000 	nop

9d000f44 <Bund>:
9d000f44:	24060001 	li	a2,1
9d000f48:	00c93023 	subu	a2,a2,t1
9d000f4c:	2cc10020 	sltiu	at,a2,32
9d000f50:	10200039 	beqz	at,9d001038 <Bzer>
9d000f54:	00000000 	nop
9d000f58:	3c018000 	lui	at,0x8000
9d000f5c:	01014025 	or	t0,t0,at
9d000f60:	240d0020 	li	t5,32
9d000f64:	01a66823 	subu	t5,t5,a2
9d000f68:	01a84804 	sllv	t1,t0,t5
9d000f6c:	11200002 	beqz	t1,9d000f78 <i10>
9d000f70:	00c84006 	srlv	t0,t0,a2
9d000f74:	35080001 	ori	t0,t0,0x1

9d000f78 <i10>:
9d000f78:	24090000 	li	t1,0
9d000f7c:	250d0080 	addiu	t5,t0,128
9d000f80:	05a1ffe3 	bgez	t5,9d000f10 <Blab12>
9d000f84:	00000000 	nop
9d000f88:	1000ffe1 	b	9d000f10 <Blab12>
9d000f8c:	24090001 	li	t1,1

9d000f90 <BspecA>:
9d000f90:	1520000e 	bnez	t1,9d000fcc <i12>
9d000f94:	00000000 	nop
9d000f98:	01084021 	addu	t0,t0,t0
9d000f9c:	11000005 	beqz	t0,9d000fb4 <i13>
9d000fa0:	00000000 	nop
9d000fa4:	710c6020 	clz	t4,t0
9d000fa8:	012c4823 	subu	t1,t1,t4
9d000fac:	1000ff98 	b	9d000e10 <Blab1>
9d000fb0:	01884004 	sllv	t0,t0,t4

9d000fb4 <i13>:
9d000fb4:	240100ff 	li	at,255
9d000fb8:	1161000f 	beq	t3,at,9d000ff8 <BspecB>
9d000fbc:	00000000 	nop
9d000fc0:	3c018000 	lui	at,0x8000
9d000fc4:	14a10018 	bne	a1,at,9d001028 <BretB>
9d000fc8:	00000000 	nop

9d000fcc <i12>:
9d000fcc:	01086821 	addu	t5,t0,t0
9d000fd0:	15a0001b 	bnez	t5,9d001040 <Bnan>
9d000fd4:	00000000 	nop
9d000fd8:	240100ff 	li	at,255
9d000fdc:	15610014 	bne	t3,at,9d001030 <BretA>
9d000fe0:	00000000 	nop
9d000fe4:	00856826 	xor	t5,a0,a1
9d000fe8:	05a00015 	bltz	t5,9d001040 <Bnan>
9d000fec:	00000000 	nop
9d000ff0:	1000000d 	b	9d001028 <BretB>
9d000ff4:	00000000 	nop

9d000ff8 <BspecB>:
9d000ff8:	15600008 	bnez	t3,9d00101c <i15>
9d000ffc:	00000000 	nop
9d001000:	014a5021 	addu	t2,t2,t2
9d001004:	1140000a 	beqz	t2,9d001030 <BretA>
9d001008:	00000000 	nop
9d00100c:	714c6020 	clz	t4,t2
9d001010:	016c5823 	subu	t3,t3,t4
9d001014:	1000ff82 	b	9d000e20 <Blab2>
9d001018:	018a5004 	sllv	t2,t2,t4

9d00101c <i15>:
9d00101c:	014a6821 	addu	t5,t2,t2
9d001020:	15a00007 	bnez	t5,9d001040 <Bnan>
9d001024:	00000000 	nop

9d001028 <BretB>:
9d001028:	1000ffc4 	b	9d000f3c <B999>
9d00102c:	00051025 	or	v0,zero,a1

9d001030 <BretA>:
9d001030:	1000ffc2 	b	9d000f3c <B999>
9d001034:	00041025 	or	v0,zero,a0

9d001038 <Bzer>:
9d001038:	1000ffc0 	b	9d000f3c <B999>
9d00103c:	24020000 	li	v0,0

9d001040 <Bnan>:
9d001040:	1000ffbe 	b	9d000f3c <B999>
9d001044:	3c02ffc0 	lui	v0,0xffc0
9d001048:	00000000 	nop

Disassembly of section .text.fp32div:

9d00104c <__divsf3>:
9d00104c:	3c0b8000 000445c2 310800ff 000555c2     ...<.E.....1.U..
9d00105c:	314a00ff 00043a00 00eb3825 00054a00     ..J1.:..%8...J..
9d00106c:	012b4825 00857026 016e5824 250effff     %H+.&p..$Xn....%
9d00107c:	2dc100fe 1020003f 00000000              ...-?. .....

9d001088 <Dlab1>:
9d001088:	254effff 	addiu	t6,t2,-1
9d00108c:	2dc100fe 	sltiu	at,t6,254
9d001090:	10200053 	beqz	at,9d0011e0 <DspecB>
9d001094:	00000000 	nop

9d001098 <Dlab2>:
9d001098:	00e9082b 	sltu	at,a3,t1
9d00109c:	14200003 	bnez	at,9d0010ac <i27>
9d0010a0:	00000000 	nop
9d0010a4:	00073842 	srl	a3,a3,0x1
9d0010a8:	25080001 	addiu	t0,t0,1

9d0010ac <i27>:
9d0010ac:	00096382 	srl	t4,t1,0xe
9d0010b0:	018001f4 	teq	t4,zero,0x7
9d0010b4:	00ec001b 	divu	zero,a3,t4
9d0010b8:	00002012 	mflo	a0
9d0010bc:	00003010 	mfhi	a2
9d0010c0:	312d3fff 	andi	t5,t1,0x3fff
9d0010c4:	01a40019 	multu	t5,a0
9d0010c8:	00002812 	mflo	a1
9d0010cc:	00063380 	sll	a2,a2,0xe
9d0010d0:	00c5702b 	sltu	t6,a2,a1
9d0010d4:	11c00004 	beqz	t6,9d0010e8 <i28>
9d0010d8:	00c53023 	subu	a2,a2,a1
9d0010dc:	2484ffff 	addiu	a0,a0,-1
9d0010e0:	00c93021 	addu	a2,a2,t1
9d0010e4:	00c9702b 	sltu	t6,a2,t1

9d0010e8 <i28>:
9d0010e8:	018001f4 	teq	t4,zero,0x7
9d0010ec:	00cc001b 	divu	zero,a2,t4
9d0010f0:	00003812 	mflo	a3
9d0010f4:	00003010 	mfhi	a2
9d0010f8:	01a70019 	multu	t5,a3
9d0010fc:	00002812 	mflo	a1
9d001100:	00063380 	sll	a2,a2,0xe
9d001104:	00c5702b 	sltu	t6,a2,a1
9d001108:	11c00004 	beqz	t6,9d00111c <i29>
9d00110c:	00c53023 	subu	a2,a2,a1
9d001110:	24e7ffff 	addiu	a3,a3,-1
9d001114:	00c93021 	addu	a2,a2,t1
9d001118:	00c9702b 	sltu	t6,a2,t1

9d00111c <i29>:
9d00111c:	00047380 	sll	t6,a0,0xe
9d001120:	00ee3821 	addu	a3,a3,t6
9d001124:	10c00002 	beqz	a2,9d001130 <i30>
9d001128:	00073900 	sll	a3,a3,0x4
9d00112c:	34e70001 	ori	a3,a3,0x1

9d001130 <i30>:
9d001130:	240e007e 	li	t6,126
9d001134:	01ca7023 	subu	t6,t6,t2
9d001138:	010e4021 	addu	t0,t0,t6
9d00113c:	250effff 	addiu	t6,t0,-1
9d001140:	2dc100fe 	sltiu	at,t6,254
9d001144:	10200034 	beqz	at,9d001218 <Doveund>
9d001148:	00000000 	nop

9d00114c <Dlab8>:
9d00114c:	24e70080 	addiu	a3,a3,128
9d001150:	2cee0080 	sltiu	t6,a3,128
9d001154:	010e4021 	addu	t0,t0,t6
9d001158:	00077202 	srl	t6,a3,0x8
9d00115c:	31ce0001 	andi	t6,t6,0x1
9d001160:	00ee3823 	subu	a3,a3,t6
9d001164:	00073840 	sll	a3,a3,0x1
9d001168:	00073a42 	srl	a3,a3,0x9
9d00116c:	000875c0 	sll	t6,t0,0x17
9d001170:	00ee3825 	or	a3,a3,t6
9d001174:	00eb1025 	or	v0,a3,t3

9d001178 <D999>:
9d001178:	03e00008 	jr	ra
9d00117c:	00000000 	nop

9d001180 <DspecA>:
9d001180:	15000008 	bnez	t0,9d0011a4 <i31>
9d001184:	00000000 	nop
9d001188:	00e73821 	addu	a3,a3,a3
9d00118c:	10e00005 	beqz	a3,9d0011a4 <i31>
9d001190:	00000000 	nop
9d001194:	70ec6020 	clz	t4,a3
9d001198:	010c4023 	subu	t0,t0,t4
9d00119c:	1000ffba 	b	9d001088 <Dlab1>
9d0011a0:	01873804 	sllv	a3,a3,t4

9d0011a4 <i31>:
9d0011a4:	15480004 	bne	t2,t0,9d0011b8 <i33>
9d0011a8:	00000000 	nop
9d0011ac:	01297021 	addu	t6,t1,t1
9d0011b0:	11c0002f 	beqz	t6,9d001270 <Dnan>
9d0011b4:	00000000 	nop

9d0011b8 <i33>:
9d0011b8:	240100ff 	li	at,255
9d0011bc:	11410008 	beq	t2,at,9d0011e0 <DspecB>
9d0011c0:	00000000 	nop
9d0011c4:	11000012 	beqz	t0,9d001210 <Dzer>
9d0011c8:	00000000 	nop
9d0011cc:	00e77021 	addu	t6,a3,a3
9d0011d0:	15c00027 	bnez	t6,9d001270 <Dnan>
9d0011d4:	00000000 	nop
9d0011d8:	10000022 	b	9d001264 <Dinf>
9d0011dc:	00000000 	nop

9d0011e0 <DspecB>:
9d0011e0:	15400008 	bnez	t2,9d001204 <i34>
9d0011e4:	00000000 	nop
9d0011e8:	01294821 	addu	t1,t1,t1
9d0011ec:	1120001d 	beqz	t1,9d001264 <Dinf>
9d0011f0:	00000000 	nop
9d0011f4:	712c6020 	clz	t4,t1
9d0011f8:	014c5023 	subu	t2,t2,t4
9d0011fc:	1000ffa6 	b	9d001098 <Dlab2>
9d001200:	01894804 	sllv	t1,t1,t4

9d001204 <i34>:
9d001204:	01297021 	addu	t6,t1,t1
9d001208:	15c00019 	bnez	t6,9d001270 <Dnan>
9d00120c:	00000000 	nop

9d001210 <Dzer>:
9d001210:	1000ffd9 	b	9d001178 <D999>
9d001214:	000b1025 	or	v0,zero,t3

9d001218 <Doveund>:
9d001218:	1d000012 	bgtz	t0,9d001264 <Dinf>
9d00121c:	00000000 	nop
9d001220:	240c0001 	li	t4,1
9d001224:	01886023 	subu	t4,t4,t0
9d001228:	2d810020 	sltiu	at,t4,32
9d00122c:	1020fff8 	beqz	at,9d001210 <Dzer>
9d001230:	00000000 	nop
9d001234:	240e0020 	li	t6,32
9d001238:	01cc7023 	subu	t6,t6,t4
9d00123c:	01c74004 	sllv	t0,a3,t6
9d001240:	11000002 	beqz	t0,9d00124c <i37>
9d001244:	01873806 	srlv	a3,a3,t4
9d001248:	34e70002 	ori	a3,a3,0x2

9d00124c <i37>:
9d00124c:	24080000 	li	t0,0
9d001250:	24ee0080 	addiu	t6,a3,128
9d001254:	05c1ffbd 	bgez	t6,9d00114c <Dlab8>
9d001258:	00000000 	nop
9d00125c:	1000ffbb 	b	9d00114c <Dlab8>
9d001260:	24080001 	li	t0,1

9d001264 <Dinf>:
9d001264:	3c017f80 	lui	at,0x7f80
9d001268:	1000ffc3 	b	9d001178 <D999>
9d00126c:	01611025 	or	v0,t3,at

9d001270 <Dnan>:
9d001270:	1000ffc1 	b	9d001178 <D999>
9d001274:	3c02ffc0 	lui	v0,0xffc0
9d001278:	00000000 	nop

Disassembly of section .text.convertToPressureFromDPS368:

9d00127c <convertToPressureFromDPS368>:
{
9d00127c:	27bdffd0 	addiu	sp,sp,-48
9d001280:	afbf002c 	sw	ra,44(sp)
9d001284:	afb10028 	sw	s1,40(sp)
9d001288:	afb00024 	sw	s0,36(sp)
9d00128c:	afa40030 	sw	a0,48(sp)
9d001290:	afa50034 	sw	a1,52(sp)
    forceSign32(&rawPressure, 0x00000018);     //Convert the provided 24-bit unsigned 2's complemented pressure value into a signed 32-bit integer
9d001294:	24050018 	li	a1,24
9d001298:	27a40030 	addiu	a0,sp,48
9d00129c:	0f400d16 	jal	9d003458 <forceSign32>
9d0012a0:	00000000 	nop
    forceSign32(&rawTemperature, 0x00000018);  //Convert the provided 24-bit unsigned 2's complemented temperature value into a signed 32-bit integer
9d0012a4:	27a20034 	addiu	v0,sp,52
9d0012a8:	24050018 	li	a1,24
9d0012ac:	00402025 	move	a0,v0
9d0012b0:	0f400d16 	jal	9d003458 <forceSign32>
9d0012b4:	00000000 	nop
    float scaledPres = (float) (int32_t) rawPressure / presScalingFactorDPS368;     //Calculate the scaled pressure result based on the pressure oversampling configuration
9d0012b8:	8fa20030 	lw	v0,48(sp)
9d0012bc:	00402025 	move	a0,v0
9d0012c0:	0f400db3 	jal	9d0036cc <__floatsisf>
9d0012c4:	00000000 	nop
9d0012c8:	00408025 	move	s0,v0
9d0012cc:	8f828010 	lw	v0,-32752(gp)
9d0012d0:	00402025 	move	a0,v0
9d0012d4:	0f400e0b 	jal	9d00382c <__floatunsisf>
9d0012d8:	00000000 	nop
9d0012dc:	00402825 	move	a1,v0
9d0012e0:	02002025 	move	a0,s0
9d0012e4:	0f400413 	jal	9d00104c <__divsf3>
9d0012e8:	00000000 	nop
9d0012ec:	afa20010 	sw	v0,16(sp)
    float scaledTemp = (float) (int32_t) rawTemperature / tempScalingFactorDPS368;  //Calculate the scaled temperature result based on the temperature oversampling configuration
9d0012f0:	8fa20034 	lw	v0,52(sp)
9d0012f4:	00402025 	move	a0,v0
9d0012f8:	0f400db3 	jal	9d0036cc <__floatsisf>
9d0012fc:	00000000 	nop
9d001300:	00408025 	move	s0,v0
9d001304:	8f828014 	lw	v0,-32748(gp)
9d001308:	00402025 	move	a0,v0
9d00130c:	0f400e0b 	jal	9d00382c <__floatunsisf>
9d001310:	00000000 	nop
9d001314:	00402825 	move	a1,v0
9d001318:	02002025 	move	a0,s0
9d00131c:	0f400413 	jal	9d00104c <__divsf3>
9d001320:	00000000 	nop
9d001324:	afa20014 	sw	v0,20(sp)
    float compensatedPres = (((scaledPres * dps368Cal_c30 + dps368Cal_c20) * scaledPres + dps368Cal_c10) * scaledPres) +
9d001328:	8782802c 	lh	v0,-32724(gp)
9d00132c:	00402025 	move	a0,v0
9d001330:	0f400db3 	jal	9d0036cc <__floatsisf>
9d001334:	00000000 	nop
9d001338:	8fa50010 	lw	a1,16(sp)
9d00133c:	00402025 	move	a0,v0
9d001340:	0f400630 	jal	9d0018c0 <__mulsf3>
9d001344:	00000000 	nop
9d001348:	00408025 	move	s0,v0
9d00134c:	87828028 	lh	v0,-32728(gp)
9d001350:	00402025 	move	a0,v0
9d001354:	0f400db3 	jal	9d0036cc <__floatsisf>
9d001358:	00000000 	nop
9d00135c:	00402825 	move	a1,v0
9d001360:	02002025 	move	a0,s0
9d001364:	0f400377 	jal	9d000ddc <__addsf3>
9d001368:	00000000 	nop
9d00136c:	8fa50010 	lw	a1,16(sp)
9d001370:	00402025 	move	a0,v0
9d001374:	0f400630 	jal	9d0018c0 <__mulsf3>
9d001378:	00000000 	nop
9d00137c:	00408025 	move	s0,v0
9d001380:	8f828020 	lw	v0,-32736(gp)
9d001384:	00402025 	move	a0,v0
9d001388:	0f400db3 	jal	9d0036cc <__floatsisf>
9d00138c:	00000000 	nop
9d001390:	00402825 	move	a1,v0
9d001394:	02002025 	move	a0,s0
9d001398:	0f400377 	jal	9d000ddc <__addsf3>
9d00139c:	00000000 	nop
9d0013a0:	8fa50010 	lw	a1,16(sp)
9d0013a4:	00402025 	move	a0,v0
9d0013a8:	0f400630 	jal	9d0018c0 <__mulsf3>
9d0013ac:	00000000 	nop
9d0013b0:	00408025 	move	s0,v0
                            ((scaledPres * dps368Cal_c21 + dps368Cal_c11) * scaledPres * scaledTemp) + (scaledTemp + dps368Cal_c01) + dps368Cal_c00;
9d0013b4:	8782802a 	lh	v0,-32726(gp)
9d0013b8:	00402025 	move	a0,v0
9d0013bc:	0f400db3 	jal	9d0036cc <__floatsisf>
9d0013c0:	00000000 	nop
9d0013c4:	8fa50010 	lw	a1,16(sp)
9d0013c8:	00402025 	move	a0,v0
9d0013cc:	0f400630 	jal	9d0018c0 <__mulsf3>
9d0013d0:	00000000 	nop
9d0013d4:	00408825 	move	s1,v0
9d0013d8:	87828026 	lh	v0,-32730(gp)
9d0013dc:	00402025 	move	a0,v0
9d0013e0:	0f400db3 	jal	9d0036cc <__floatsisf>
9d0013e4:	00000000 	nop
9d0013e8:	00402825 	move	a1,v0
9d0013ec:	02202025 	move	a0,s1
9d0013f0:	0f400377 	jal	9d000ddc <__addsf3>
9d0013f4:	00000000 	nop
9d0013f8:	8fa50010 	lw	a1,16(sp)
9d0013fc:	00402025 	move	a0,v0
9d001400:	0f400630 	jal	9d0018c0 <__mulsf3>
9d001404:	00000000 	nop
9d001408:	8fa50014 	lw	a1,20(sp)
9d00140c:	00402025 	move	a0,v0
9d001410:	0f400630 	jal	9d0018c0 <__mulsf3>
9d001414:	00000000 	nop
    float compensatedPres = (((scaledPres * dps368Cal_c30 + dps368Cal_c20) * scaledPres + dps368Cal_c10) * scaledPres) +
9d001418:	00402825 	move	a1,v0
9d00141c:	02002025 	move	a0,s0
9d001420:	0f400377 	jal	9d000ddc <__addsf3>
9d001424:	00000000 	nop
9d001428:	00408025 	move	s0,v0
                            ((scaledPres * dps368Cal_c21 + dps368Cal_c11) * scaledPres * scaledTemp) + (scaledTemp + dps368Cal_c01) + dps368Cal_c00;
9d00142c:	87828024 	lh	v0,-32732(gp)
9d001430:	00402025 	move	a0,v0
9d001434:	0f400db3 	jal	9d0036cc <__floatsisf>
9d001438:	00000000 	nop
9d00143c:	8fa50014 	lw	a1,20(sp)
9d001440:	00402025 	move	a0,v0
9d001444:	0f400377 	jal	9d000ddc <__addsf3>
9d001448:	00000000 	nop
9d00144c:	00402825 	move	a1,v0
9d001450:	02002025 	move	a0,s0
9d001454:	0f400377 	jal	9d000ddc <__addsf3>
9d001458:	00000000 	nop
9d00145c:	00408025 	move	s0,v0
9d001460:	8f82801c 	lw	v0,-32740(gp)
9d001464:	00402025 	move	a0,v0
9d001468:	0f400db3 	jal	9d0036cc <__floatsisf>
9d00146c:	00000000 	nop
    float compensatedPres = (((scaledPres * dps368Cal_c30 + dps368Cal_c20) * scaledPres + dps368Cal_c10) * scaledPres) +
9d001470:	00402825 	move	a1,v0
9d001474:	02002025 	move	a0,s0
9d001478:	0f400377 	jal	9d000ddc <__addsf3>
9d00147c:	00000000 	nop
9d001480:	afa20018 	sw	v0,24(sp)
    return compensatedPres;  //Return the calculated compensated pressure
9d001484:	8fa20018 	lw	v0,24(sp)
}
9d001488:	8fbf002c 	lw	ra,44(sp)
9d00148c:	8fb10028 	lw	s1,40(sp)
9d001490:	8fb00024 	lw	s0,36(sp)
9d001494:	27bd0030 	addiu	sp,sp,48
9d001498:	03e00008 	jr	ra
9d00149c:	00000000 	nop

Disassembly of section .text.initializeSSD1803A:

9d0014a0 <initializeSSD1803A>:
 *  Initialization Functions  *
 ******************************/

//Initialize Function, configures the chipset for the desired operating mode for the application
uint32_t initializeSSD1803A(SSD1803A_orientation_t orientation, SSD1803A_lineCount_t lines, SSD1803A_vBias_t lcdBias, SSD1803A_regulatorGain_t lcdGain)
{
9d0014a0:	27bdffd8 	addiu	sp,sp,-40
9d0014a4:	afbf0024 	sw	ra,36(sp)
9d0014a8:	afa40028 	sw	a0,40(sp)
9d0014ac:	afa5002c 	sw	a1,44(sp)
9d0014b0:	afa60030 	sw	a2,48(sp)
9d0014b4:	afa70034 	sw	a3,52(sp)

#if 1
    uint32_t counter = 0x00000008;               //Create a temporary variable to use for iterating through each byte of the sequence
9d0014b8:	24020008 	li	v0,8
9d0014bc:	afa20010 	sw	v0,16(sp)
    uint8_t calculatedCommands[0x00000005];      //Declare a 4 byte long array for generating the commands to apply the runtime configuration settings
    const uint8_t* bytePointer = SSD1803A_Init;  //Declare a pointer with the address of the first item in the SSD1803A_Init array
9d0014c0:	3c029d00 	lui	v0,0x9d00
9d0014c4:	24423af4 	addiu	v0,v0,15092
9d0014c8:	afa20014 	sw	v0,20(sp)

    statusRegister_SSD1803A = 0x00000000;  //Clear the state of the drivers status register
9d0014cc:	af808030 	sw	zero,-32720(gp)

    //Send each command in the array to the LCD controller
    while (counter--)
9d0014d0:	1000000e 	b	9d00150c <initializeSSD1803A+0x6c>
9d0014d4:	00000000 	nop
    {
        if (!sendCommandSSD1803A(*bytePointer)) return 0x00000000;  //Try sending the command to the LCD controller, returning if it fails
9d0014d8:	8fa20014 	lw	v0,20(sp)
9d0014dc:	90420000 	lbu	v0,0(v0)
9d0014e0:	00402025 	move	a0,v0
9d0014e4:	0f400d68 	jal	9d0035a0 <sendCommandSSD1803A>
9d0014e8:	00000000 	nop
9d0014ec:	14400004 	bnez	v0,9d001500 <initializeSSD1803A+0x60>
9d0014f0:	00000000 	nop
9d0014f4:	00001025 	move	v0,zero
9d0014f8:	1000006c 	b	9d0016ac <initializeSSD1803A+0x20c>
9d0014fc:	00000000 	nop
        bytePointer++;                                              //Increment the address of bytePointer by 1
9d001500:	8fa20014 	lw	v0,20(sp)
9d001504:	24420001 	addiu	v0,v0,1
9d001508:	afa20014 	sw	v0,20(sp)
    while (counter--)
9d00150c:	8fa20010 	lw	v0,16(sp)
9d001510:	2443ffff 	addiu	v1,v0,-1
9d001514:	afa30010 	sw	v1,16(sp)
9d001518:	1440ffef 	bnez	v0,9d0014d8 <initializeSSD1803A+0x38>
9d00151c:	00000000 	nop
    }

    calculatedCommands[0x00000000] = ((lcdBias & 0x00000001) << 0x00000003) | 0x13;  //Calculate the appropriate Internal OSC Frequency/Bias command
9d001520:	8fa20030 	lw	v0,48(sp)
9d001524:	304200ff 	andi	v0,v0,0xff
9d001528:	000210c0 	sll	v0,v0,0x3
9d00152c:	304200ff 	andi	v0,v0,0xff
9d001530:	30420008 	andi	v0,v0,0x8
9d001534:	304200ff 	andi	v0,v0,0xff
9d001538:	34420013 	ori	v0,v0,0x13
9d00153c:	304200ff 	andi	v0,v0,0xff
9d001540:	a3a20018 	sb	v0,24(sp)
    calculatedCommands[0x00000001] = lcdGain;                                        //Use the provided Follower Control command
9d001544:	8fa20034 	lw	v0,52(sp)
9d001548:	304200ff 	andi	v0,v0,0xff
9d00154c:	a3a20019 	sb	v0,25(sp)
    calculatedCommands[0x00000002] = 0x3A;                                           //Function Set, RE = 1, IS = 0
9d001550:	2402003a 	li	v0,58
9d001554:	a3a2001a 	sb	v0,26(sp)
    calculatedCommands[0x00000003] = orientation;                                    //Use the provided Entry Set command
9d001558:	8fa20028 	lw	v0,40(sp)
9d00155c:	304200ff 	andi	v0,v0,0xff
9d001560:	a3a2001b 	sb	v0,27(sp)
    calculatedCommands[0x00000004] = (lines & 0x0000001C) | (lcdBias & 0x00000002);  //Calculate the appropriate Double Height/Bias commands
9d001564:	8fa2002c 	lw	v0,44(sp)
9d001568:	304200ff 	andi	v0,v0,0xff
9d00156c:	3042001c 	andi	v0,v0,0x1c
9d001570:	304300ff 	andi	v1,v0,0xff
9d001574:	8fa20030 	lw	v0,48(sp)
9d001578:	304200ff 	andi	v0,v0,0xff
9d00157c:	30420002 	andi	v0,v0,0x2
9d001580:	304200ff 	andi	v0,v0,0xff
9d001584:	00621025 	or	v0,v1,v0
9d001588:	304200ff 	andi	v0,v0,0xff
9d00158c:	a3a2001c 	sb	v0,28(sp)

    //Store the provided settings into the drivers status register to use during other function calls
    statusRegister_SSD1803A = (((lines & 0x0000000C) | (lcdBias & 0x00000002)) << 0x00000006) | ((lcdBias & 0x00000001) << 0x00000004) |
9d001590:	8fa2002c 	lw	v0,44(sp)
9d001594:	3043000c 	andi	v1,v0,0xc
9d001598:	8fa20030 	lw	v0,48(sp)
9d00159c:	30420002 	andi	v0,v0,0x2
9d0015a0:	00621025 	or	v0,v1,v0
9d0015a4:	00021980 	sll	v1,v0,0x6
9d0015a8:	8fa20030 	lw	v0,48(sp)
9d0015ac:	00021100 	sll	v0,v0,0x4
9d0015b0:	30420010 	andi	v0,v0,0x10
9d0015b4:	00621825 	or	v1,v1,v0
                              ((lines & 0x00000001) << 0x00000002) | 0x00000001;
9d0015b8:	8fa2002c 	lw	v0,44(sp)
9d0015bc:	00021080 	sll	v0,v0,0x2
9d0015c0:	30420004 	andi	v0,v0,0x4
    statusRegister_SSD1803A = (((lines & 0x0000000C) | (lcdBias & 0x00000002)) << 0x00000006) | ((lcdBias & 0x00000001) << 0x00000004) |
9d0015c4:	00621025 	or	v0,v1,v0
                              ((lines & 0x00000001) << 0x00000002) | 0x00000001;
9d0015c8:	34420001 	ori	v0,v0,0x1
    statusRegister_SSD1803A = (((lines & 0x0000000C) | (lcdBias & 0x00000002)) << 0x00000006) | ((lcdBias & 0x00000001) << 0x00000004) |
9d0015cc:	af828030 	sw	v0,-32720(gp)
    
    counter = 0x00000005;              //Start the counter with a value of 5 this time
9d0015d0:	24020005 	li	v0,5
9d0015d4:	afa20010 	sw	v0,16(sp)
    bytePointer = calculatedCommands;  //Copy the address of the first element in calculatedCommands into bytePointer
9d0015d8:	27a20018 	addiu	v0,sp,24
9d0015dc:	afa20014 	sw	v0,20(sp)

    //Send each command in the array to the LCD controller
    while (counter--)
9d0015e0:	1000000e 	b	9d00161c <initializeSSD1803A+0x17c>
9d0015e4:	00000000 	nop
    {
        if (!sendCommandSSD1803A(*bytePointer)) return 0x00000000;  //Try sending the command to the LCD controller, returning if it fails
9d0015e8:	8fa20014 	lw	v0,20(sp)
9d0015ec:	90420000 	lbu	v0,0(v0)
9d0015f0:	00402025 	move	a0,v0
9d0015f4:	0f400d68 	jal	9d0035a0 <sendCommandSSD1803A>
9d0015f8:	00000000 	nop
9d0015fc:	14400004 	bnez	v0,9d001610 <initializeSSD1803A+0x170>
9d001600:	00000000 	nop
9d001604:	00001025 	move	v0,zero
9d001608:	10000028 	b	9d0016ac <initializeSSD1803A+0x20c>
9d00160c:	00000000 	nop
        bytePointer++;                                              //Increment the address of bytePointer by 1
9d001610:	8fa20014 	lw	v0,20(sp)
9d001614:	24420001 	addiu	v0,v0,1
9d001618:	afa20014 	sw	v0,20(sp)
    while (counter--)
9d00161c:	8fa20010 	lw	v0,16(sp)
9d001620:	2443ffff 	addiu	v1,v0,-1
9d001624:	afa30010 	sw	v1,16(sp)
9d001628:	1440ffef 	bnez	v0,9d0015e8 <initializeSSD1803A+0x148>
9d00162c:	00000000 	nop
    }

    counter = 0x00000003 + (lines & 0x00000001);  //Set the counter to 4 or 5 depending if Bit-0 of the lines argument is set
9d001630:	8fa2002c 	lw	v0,44(sp)
9d001634:	30420001 	andi	v0,v0,0x1
9d001638:	24420003 	addiu	v0,v0,3
9d00163c:	afa20010 	sw	v0,16(sp)
    bytePointer = SSD1803A_Init + 0x00000008;     //Copy the address of the 11th index in the SSD1803A_Init array into bytePointer
9d001640:	3c029d00 	lui	v0,0x9d00
9d001644:	24423afc 	addiu	v0,v0,15100
9d001648:	afa20014 	sw	v0,20(sp)

    //Send each command in the array to the LCD controller
    while (counter--)
9d00164c:	1000000e 	b	9d001688 <initializeSSD1803A+0x1e8>
9d001650:	00000000 	nop
    {
        if (!sendCommandSSD1803A(*bytePointer)) return 0x00000000;  //Try sending the command to the LCD controller, returning if it fails
9d001654:	8fa20014 	lw	v0,20(sp)
9d001658:	90420000 	lbu	v0,0(v0)
9d00165c:	00402025 	move	a0,v0
9d001660:	0f400d68 	jal	9d0035a0 <sendCommandSSD1803A>
9d001664:	00000000 	nop
9d001668:	14400004 	bnez	v0,9d00167c <initializeSSD1803A+0x1dc>
9d00166c:	00000000 	nop
9d001670:	00001025 	move	v0,zero
9d001674:	1000000d 	b	9d0016ac <initializeSSD1803A+0x20c>
9d001678:	00000000 	nop
        bytePointer++;                                              //Increment the address of bytePointer by 1
9d00167c:	8fa20014 	lw	v0,20(sp)
9d001680:	24420001 	addiu	v0,v0,1
9d001684:	afa20014 	sw	v0,20(sp)
    while (counter--)
9d001688:	8fa20010 	lw	v0,16(sp)
9d00168c:	2443ffff 	addiu	v1,v0,-1
9d001690:	afa30010 	sw	v1,16(sp)
9d001694:	1440ffef 	bnez	v0,9d001654 <initializeSSD1803A+0x1b4>
9d001698:	00000000 	nop
    }

    statusRegister_SSD1803A &= 0xFFFFFFFFE;  //Update the driver status register to match
9d00169c:	8f828030 	lw	v0,-32720(gp)
9d0016a0:	7c020004 	ins	v0,zero,0x0,0x1
9d0016a4:	af828030 	sw	v0,-32720(gp)
    }

#endif


    return 0xFFFFFFFF;  //Return with all bits set to indicate the initialization procedure succeeded
9d0016a8:	2402ffff 	li	v0,-1
}
9d0016ac:	8fbf0024 	lw	ra,36(sp)
9d0016b0:	27bd0028 	addiu	sp,sp,40
9d0016b4:	03e00008 	jr	ra
9d0016b8:	00000000 	nop

Disassembly of section .text.initializeDPS368:

9d0016bc <initializeDPS368>:
{
9d0016bc:	27bdffd8 	addiu	sp,sp,-40
9d0016c0:	afbf0024 	sw	ra,36(sp)
9d0016c4:	afa40028 	sw	a0,40(sp)
9d0016c8:	afa5002c 	sw	a1,44(sp)
9d0016cc:	afa60030 	sw	a2,48(sp)
9d0016d0:	afa70034 	sw	a3,52(sp)
    presOversample &= 0x00000007;  //Keep only the 3 least significant bits of the provided pressure oversampling setting
9d0016d4:	8fa20028 	lw	v0,40(sp)
9d0016d8:	30420007 	andi	v0,v0,0x7
9d0016dc:	afa20028 	sw	v0,40(sp)
    tempOversample &= 0x00000007;  //Keep only the 3 least significant bits of the provided temperature oversampling setting
9d0016e0:	8fa20030 	lw	v0,48(sp)
9d0016e4:	30420007 	andi	v0,v0,0x7
9d0016e8:	afa20030 	sw	v0,48(sp)
    presScalingFactorDPS368 = dps368Cal_scalingFactors[presOversample];  //Use the lookup table to set the scaling factor for pressure results based on the given oversampling setting
9d0016ec:	3c029d00 	lui	v0,0x9d00
9d0016f0:	8fa30028 	lw	v1,40(sp)
9d0016f4:	00031880 	sll	v1,v1,0x2
9d0016f8:	244239f4 	addiu	v0,v0,14836
9d0016fc:	00621021 	addu	v0,v1,v0
9d001700:	8c420000 	lw	v0,0(v0)
9d001704:	af828010 	sw	v0,-32752(gp)
    tempScalingFactorDPS368 = dps368Cal_scalingFactors[tempOversample];  //Use the lookup table to set the scaling factor for temperature results based on the given oversampling setting
9d001708:	3c029d00 	lui	v0,0x9d00
9d00170c:	8fa30030 	lw	v1,48(sp)
9d001710:	00031880 	sll	v1,v1,0x2
9d001714:	244239f4 	addiu	v0,v0,14836
9d001718:	00621021 	addu	v0,v1,v0
9d00171c:	8c420000 	lw	v0,0(v0)
9d001720:	af828014 	sw	v0,-32748(gp)
    uint8_t *arrayPointer = dataBuffer + 0x00000002;  //Declare a pointer that points to the array
9d001724:	27a20014 	addiu	v0,sp,20
9d001728:	24420002 	addiu	v0,v0,2
9d00172c:	afa20010 	sw	v0,16(sp)
    *arrayPointer = 0x28;  //Write the address of the COEF_SRCE register on the sensor into the array
9d001730:	8fa20010 	lw	v0,16(sp)
9d001734:	24030028 	li	v1,40
9d001738:	a0430000 	sb	v1,0(v0)
    if (!readFromI2C(DPS368_I2C_ADDR, arrayPointer, 0x00000001, 0x01)) return 0x00000000;  //Attempt to read the contents of the register, exiting the function when no response is obtained
9d00173c:	24070001 	li	a3,1
9d001740:	24060001 	li	a2,1
9d001744:	8fa50010 	lw	a1,16(sp)
9d001748:	24040076 	li	a0,118
9d00174c:	0f40069f 	jal	9d001a7c <readFromI2C>
9d001750:	00000000 	nop
9d001754:	14400004 	bnez	v0,9d001768 <initializeDPS368+0xac>
9d001758:	00000000 	nop
9d00175c:	00001025 	move	v0,zero
9d001760:	10000053 	b	9d0018b0 <initializeDPS368+0x1f4>
9d001764:	00000000 	nop
    arrayPointer = dataBuffer;  //Re-point arrayPointer back to the first index of the dataBuffer array
9d001768:	27a20014 	addiu	v0,sp,20
9d00176c:	afa20010 	sw	v0,16(sp)
    *arrayPointer++ = 0x06;     //Write the address of the PRS_CFG register in the sensor to the first index of the configuration bytes
9d001770:	8fa20010 	lw	v0,16(sp)
9d001774:	24430001 	addiu	v1,v0,1
9d001778:	afa30010 	sw	v1,16(sp)
9d00177c:	24030006 	li	v1,6
9d001780:	a0430000 	sb	v1,0(v0)
    *arrayPointer++ = ((presMeasureRate & 0x00000007) << 0x00000004) | (presOversample);                           //Form the configuration byte for the PRS_CFG register
9d001784:	8fa2002c 	lw	v0,44(sp)
9d001788:	304200ff 	andi	v0,v0,0xff
9d00178c:	00021100 	sll	v0,v0,0x4
9d001790:	304200ff 	andi	v0,v0,0xff
9d001794:	30420070 	andi	v0,v0,0x70
9d001798:	304400ff 	andi	a0,v0,0xff
9d00179c:	8fa20028 	lw	v0,40(sp)
9d0017a0:	304300ff 	andi	v1,v0,0xff
9d0017a4:	8fa20010 	lw	v0,16(sp)
9d0017a8:	24450001 	addiu	a1,v0,1
9d0017ac:	afa50010 	sw	a1,16(sp)
9d0017b0:	00831825 	or	v1,a0,v1
9d0017b4:	306300ff 	andi	v1,v1,0xff
9d0017b8:	a0430000 	sb	v1,0(v0)
    *arrayPointer++ = ((tempMeasureRate & 0x00000007) << 0x00000004) | (tempOversample) | (*arrayPointer & 0x80);  //Form the configuration byte for the TMP_CFG register
9d0017bc:	8fa20034 	lw	v0,52(sp)
9d0017c0:	304200ff 	andi	v0,v0,0xff
9d0017c4:	00021100 	sll	v0,v0,0x4
9d0017c8:	304200ff 	andi	v0,v0,0xff
9d0017cc:	30420070 	andi	v0,v0,0x70
9d0017d0:	304300ff 	andi	v1,v0,0xff
9d0017d4:	8fa20030 	lw	v0,48(sp)
9d0017d8:	304200ff 	andi	v0,v0,0xff
9d0017dc:	00621025 	or	v0,v1,v0
9d0017e0:	304400ff 	andi	a0,v0,0xff
9d0017e4:	8fa20010 	lw	v0,16(sp)
9d0017e8:	90420000 	lbu	v0,0(v0)
9d0017ec:	7c023004 	ins	v0,zero,0x0,0x7
9d0017f0:	304300ff 	andi	v1,v0,0xff
9d0017f4:	8fa20010 	lw	v0,16(sp)
9d0017f8:	24450001 	addiu	a1,v0,1
9d0017fc:	afa50010 	sw	a1,16(sp)
9d001800:	00831825 	or	v1,a0,v1
9d001804:	306300ff 	andi	v1,v1,0xff
9d001808:	a0430000 	sb	v1,0(v0)
    *arrayPointer++ = 0x00;                                                                                        //Form the configuration byte for the MEAS_CFG register
9d00180c:	8fa20010 	lw	v0,16(sp)
9d001810:	24430001 	addiu	v1,v0,1
9d001814:	afa30010 	sw	v1,16(sp)
9d001818:	a0400000 	sb	zero,0(v0)
    *arrayPointer = 0x00;                                                                                          //Form the starting configuration byte for the CFG_REG register
9d00181c:	8fa20010 	lw	v0,16(sp)
9d001820:	a0400000 	sb	zero,0(v0)
    if (enableFIFO) *arrayPointer |= 0x02;                    //Set Bit-1 in CFG_REG to enable the use of the FIFO buffer
9d001824:	8fa20038 	lw	v0,56(sp)
9d001828:	10400007 	beqz	v0,9d001848 <initializeDPS368+0x18c>
9d00182c:	00000000 	nop
9d001830:	8fa20010 	lw	v0,16(sp)
9d001834:	90420000 	lbu	v0,0(v0)
9d001838:	34420002 	ori	v0,v0,0x2
9d00183c:	304300ff 	andi	v1,v0,0xff
9d001840:	8fa20010 	lw	v0,16(sp)
9d001844:	a0430000 	sb	v1,0(v0)
    if (presOversample >= 0x00000004) *arrayPointer |= 0x04;  //Set Bit-2 in CFG_REG to activate the pressure result bit-shift mode when oversampling 8 or more times per measurement
9d001848:	8fa20028 	lw	v0,40(sp)
9d00184c:	2c420004 	sltiu	v0,v0,4
9d001850:	14400007 	bnez	v0,9d001870 <initializeDPS368+0x1b4>
9d001854:	00000000 	nop
9d001858:	8fa20010 	lw	v0,16(sp)
9d00185c:	90420000 	lbu	v0,0(v0)
9d001860:	34420004 	ori	v0,v0,0x4
9d001864:	304300ff 	andi	v1,v0,0xff
9d001868:	8fa20010 	lw	v0,16(sp)
9d00186c:	a0430000 	sb	v1,0(v0)
    if (tempOversample >= 0x00000004) *arrayPointer |= 0x08;  //Set Bit-3 in CFG_REG to activate the temperature result bit-shift mode when oversampling 8 or more times per measurement
9d001870:	8fa20030 	lw	v0,48(sp)
9d001874:	2c420004 	sltiu	v0,v0,4
9d001878:	14400007 	bnez	v0,9d001898 <initializeDPS368+0x1dc>
9d00187c:	00000000 	nop
9d001880:	8fa20010 	lw	v0,16(sp)
9d001884:	90420000 	lbu	v0,0(v0)
9d001888:	34420008 	ori	v0,v0,0x8
9d00188c:	304300ff 	andi	v1,v0,0xff
9d001890:	8fa20010 	lw	v0,16(sp)
9d001894:	a0430000 	sb	v1,0(v0)
    return writeToI2C(DPS368_I2C_ADDR, dataBuffer, 0x00000005);  //Send the configuration data to the sensor returning whether the I2C write operation was successful or not
9d001898:	27a20014 	addiu	v0,sp,20
9d00189c:	24060005 	li	a2,5
9d0018a0:	00402825 	move	a1,v0
9d0018a4:	24040076 	li	a0,118
9d0018a8:	0f4008c8 	jal	9d002320 <writeToI2C>
9d0018ac:	00000000 	nop
}
9d0018b0:	8fbf0024 	lw	ra,36(sp)
9d0018b4:	27bd0028 	addiu	sp,sp,40
9d0018b8:	03e00008 	jr	ra
9d0018bc:	00000000 	nop

Disassembly of section .text.fp32mul:

9d0018c0 <__mulsf3>:
9d0018c0:	00043dc2 30e700ff 00054dc2 312900ff     .=.....0.M....)1
9d0018d0:	3c0a8000 00043200 00ca3025 00054200     ...<.2..%0...B..
9d0018e0:	010a4025 00856026 014c5024 24ecffff     %@..&`..$PL....$
9d0018f0:	2d8100fe 10200021 00000000              ...-!. .....

9d0018fc <Clab1>:
9d0018fc:	252cffff 	addiu	t4,t1,-1
9d001900:	2d8100fe 	sltiu	at,t4,254
9d001904:	10200036 	beqz	at,9d0019e0 <CspecB>
9d001908:	00000000 	nop

9d00190c <Clab2>:
9d00190c:	00c80019 	multu	a2,t0
9d001910:	00005812 	mflo	t3
9d001914:	11600002 	beqz	t3,9d001920 <i17>
9d001918:	00003010 	mfhi	a2
9d00191c:	34c60001 	ori	a2,a2,0x1

9d001920 <i17>:
9d001920:	04c00003 	bltz	a2,9d001930 <i18>
9d001924:	00000000 	nop
9d001928:	00063040 	sll	a2,a2,0x1
9d00192c:	24e7ffff 	addiu	a3,a3,-1

9d001930 <i18>:
9d001930:	252cff82 	addiu	t4,t1,-126
9d001934:	00ec3821 	addu	a3,a3,t4
9d001938:	24ecffff 	addiu	t4,a3,-1
9d00193c:	2d8100fe 	sltiu	at,t4,254
9d001940:	1020003a 	beqz	at,9d001a2c <Coveund>
9d001944:	00000000 	nop

9d001948 <Clab8>:
9d001948:	24c60080 	addiu	a2,a2,128
9d00194c:	2ccc0080 	sltiu	t4,a2,128
9d001950:	00ec3821 	addu	a3,a3,t4
9d001954:	00066202 	srl	t4,a2,0x8
9d001958:	318c0001 	andi	t4,t4,0x1
9d00195c:	00cc3023 	subu	a2,a2,t4
9d001960:	00063040 	sll	a2,a2,0x1
9d001964:	00063242 	srl	a2,a2,0x9
9d001968:	000765c0 	sll	t4,a3,0x17
9d00196c:	00cc3025 	or	a2,a2,t4
9d001970:	00ca1025 	or	v0,a2,t2

9d001974 <C999>:
9d001974:	03e00008 	jr	ra
9d001978:	00000000 	nop

9d00197c <CspecA>:
9d00197c:	14e0000d 	bnez	a3,9d0019b4 <i19>
9d001980:	00000000 	nop
9d001984:	00c63021 	addu	a2,a2,a2
9d001988:	10c00005 	beqz	a2,9d0019a0 <i20>
9d00198c:	00000000 	nop
9d001990:	70cb5820 	clz	t3,a2
9d001994:	00eb3823 	subu	a3,a3,t3
9d001998:	1000ffd8 	b	9d0018fc <Clab1>
9d00199c:	01663004 	sllv	a2,a2,t3

9d0019a0 <i20>:
9d0019a0:	240100ff 	li	at,255
9d0019a4:	1121001f 	beq	t1,at,9d001a24 <Cnan>
9d0019a8:	00000000 	nop
9d0019ac:	10000015 	b	9d001a04 <Czer>
9d0019b0:	00000000 	nop

9d0019b4 <i19>:
9d0019b4:	00c66021 	addu	t4,a2,a2
9d0019b8:	1580001a 	bnez	t4,9d001a24 <Cnan>
9d0019bc:	00000000 	nop
9d0019c0:	15200004 	bnez	t1,9d0019d4 <i21>
9d0019c4:	00000000 	nop
9d0019c8:	01086021 	addu	t4,t0,t0
9d0019cc:	11800015 	beqz	t4,9d001a24 <Cnan>
9d0019d0:	00000000 	nop

9d0019d4 <i21>:
9d0019d4:	240100ff 	li	at,255
9d0019d8:	1521000f 	bne	t1,at,9d001a18 <Cinf>
9d0019dc:	00000000 	nop

9d0019e0 <CspecB>:
9d0019e0:	1520000a 	bnez	t1,9d001a0c <i22>
9d0019e4:	00000000 	nop
9d0019e8:	01084021 	addu	t0,t0,t0
9d0019ec:	11000005 	beqz	t0,9d001a04 <Czer>
9d0019f0:	00000000 	nop
9d0019f4:	710b5820 	clz	t3,t0
9d0019f8:	012b4823 	subu	t1,t1,t3
9d0019fc:	1000ffc3 	b	9d00190c <Clab2>
9d001a00:	01684004 	sllv	t0,t0,t3

9d001a04 <Czer>:
9d001a04:	1000ffdb 	b	9d001974 <C999>
9d001a08:	000a1025 	or	v0,zero,t2

9d001a0c <i22>:
9d001a0c:	01086021 	addu	t4,t0,t0
9d001a10:	15800004 	bnez	t4,9d001a24 <Cnan>
9d001a14:	00000000 	nop

9d001a18 <Cinf>:
9d001a18:	3c017f80 	lui	at,0x7f80
9d001a1c:	1000ffd5 	b	9d001974 <C999>
9d001a20:	01411025 	or	v0,t2,at

9d001a24 <Cnan>:
9d001a24:	1000ffd3 	b	9d001974 <C999>
9d001a28:	3c02ffc0 	lui	v0,0xffc0

9d001a2c <Coveund>:
9d001a2c:	1ce0fffa 	bgtz	a3,9d001a18 <Cinf>
9d001a30:	00000000 	nop
9d001a34:	240b0001 	li	t3,1
9d001a38:	01675823 	subu	t3,t3,a3
9d001a3c:	2d610020 	sltiu	at,t3,32
9d001a40:	1020fff0 	beqz	at,9d001a04 <Czer>
9d001a44:	00000000 	nop
9d001a48:	240c0020 	li	t4,32
9d001a4c:	018b6023 	subu	t4,t4,t3
9d001a50:	01863804 	sllv	a3,a2,t4
9d001a54:	10e00002 	beqz	a3,9d001a60 <i25>
9d001a58:	01663006 	srlv	a2,a2,t3
9d001a5c:	34c60002 	ori	a2,a2,0x2

9d001a60 <i25>:
9d001a60:	24070000 	li	a3,0
9d001a64:	24cc0080 	addiu	t4,a2,128
9d001a68:	0581ffb7 	bgez	t4,9d001948 <Clab8>
9d001a6c:	00000000 	nop
9d001a70:	1000ffb5 	b	9d001948 <Clab8>
9d001a74:	24070001 	li	a3,1
9d001a78:	00000000 	nop

Disassembly of section .text.readFromI2C:

9d001a7c <readFromI2C>:
    return 0xFFFFFFFF;  //Return a non-zero value to indicate a successful transmission
}

//Read from I2C Function, reads the desired number of bytes from the slave device at the provided address using the I2C2 peripheral
uint32_t readFromI2C(uint32_t address, uint8_t *bytes, uint32_t readLength, uint32_t addressLength)
{
9d001a7c:	27bdffe0 	addiu	sp,sp,-32
9d001a80:	afbf001c 	sw	ra,28(sp)
9d001a84:	afa40020 	sw	a0,32(sp)
9d001a88:	afa50024 	sw	a1,36(sp)
9d001a8c:	afa60028 	sw	a2,40(sp)
9d001a90:	afa7002c 	sw	a3,44(sp)
    //Determine whether or not an address shall be requested first prior to reading
    if (addressLength)
9d001a94:	8fa2002c 	lw	v0,44(sp)
9d001a98:	1040000b 	beqz	v0,9d001ac8 <readFromI2C+0x4c>
9d001a9c:	00000000 	nop
    {
        if (!writeToI2C(address, bytes, addressLength)) return 0x00000000;  //Inform the device of the desired register address to read from using the address passed through *bytes
9d001aa0:	8fa6002c 	lw	a2,44(sp)
9d001aa4:	8fa50024 	lw	a1,36(sp)
9d001aa8:	8fa40020 	lw	a0,32(sp)
9d001aac:	0f4008c8 	jal	9d002320 <writeToI2C>
9d001ab0:	00000000 	nop
9d001ab4:	14400004 	bnez	v0,9d001ac8 <readFromI2C+0x4c>
9d001ab8:	00000000 	nop
9d001abc:	00001025 	move	v0,zero
9d001ac0:	10000054 	b	9d001c14 <readFromI2C+0x198>
9d001ac4:	00000000 	nop
    }

    //Start condition generation
    I2C2CONSET = 0x00000001;       //Generate a start condition on the I2C bus, this signals that new data is about to be sent to all slaves on the line
9d001ac8:	3c02bf80 	lui	v0,0xbf80
9d001acc:	24030001 	li	v1,1
9d001ad0:	ac435108 	sw	v1,20744(v0)
    while (I2C2CON & 0x00000001);  //Wait until the start condition is done sending to conform to I2C timing specifications
9d001ad4:	00000000 	nop
9d001ad8:	3c02bf80 	lui	v0,0xbf80
9d001adc:	8c425100 	lw	v0,20736(v0)
9d001ae0:	30420001 	andi	v0,v0,0x1
9d001ae4:	1440fffc 	bnez	v0,9d001ad8 <readFromI2C+0x5c>
9d001ae8:	00000000 	nop

    //Sending address and read request flag
    I2C2TRN = (address << 0x00000001) | 0x00000001;  //Shift the address byte to the left by 1 bit, forcing setting Bit-0 to indicate a read request, finally writing it all to the transmit register
9d001aec:	8fa20020 	lw	v0,32(sp)
9d001af0:	00021040 	sll	v0,v0,0x1
9d001af4:	34430001 	ori	v1,v0,0x1
9d001af8:	3c02bf80 	lui	v0,0xbf80
9d001afc:	ac435150 	sw	v1,20816(v0)
    while (I2C2STAT & 0x00004000);                   //Wait until the address and read request flag have finished being sent, and the ACK flag has been read by the master
9d001b00:	00000000 	nop
9d001b04:	3c02bf80 	lui	v0,0xbf80
9d001b08:	8c425110 	lw	v0,20752(v0)
9d001b0c:	30424000 	andi	v0,v0,0x4000
9d001b10:	1440fffc 	bnez	v0,9d001b04 <readFromI2C+0x88>
9d001b14:	00000000 	nop
    if (I2C2STAT & 0x00008000) return 0x00000000;    //Leave the function early in cases where no acknowledge is returned by the slave device
9d001b18:	3c02bf80 	lui	v0,0xbf80
9d001b1c:	8c425110 	lw	v0,20752(v0)
9d001b20:	30428000 	andi	v0,v0,0x8000
9d001b24:	10400004 	beqz	v0,9d001b38 <readFromI2C+0xbc>
9d001b28:	00000000 	nop
9d001b2c:	00001025 	move	v0,zero
9d001b30:	10000038 	b	9d001c14 <readFromI2C+0x198>
9d001b34:	00000000 	nop

    uint8_t *ptrStop = bytes + readLength;  //Calculate the address of the bytes pointer to stop the read process at
9d001b38:	8fa30024 	lw	v1,36(sp)
9d001b3c:	8fa20028 	lw	v0,40(sp)
9d001b40:	00621021 	addu	v0,v1,v0
9d001b44:	afa20010 	sw	v0,16(sp)

    //Read the next byte from the slave and store it in the provided buffer
    while (bytes != ptrStop)
9d001b48:	10000021 	b	9d001bd0 <readFromI2C+0x154>
9d001b4c:	00000000 	nop
    {
        I2C2CONSET = 0x00000008;       //Start the receive process by setting the RCEN bit
9d001b50:	3c02bf80 	lui	v0,0xbf80
9d001b54:	24030008 	li	v1,8
9d001b58:	ac435108 	sw	v1,20744(v0)
        while (I2C2CON & 0x00000008);  //Wait until the receive process has completed
9d001b5c:	00000000 	nop
9d001b60:	3c02bf80 	lui	v0,0xbf80
9d001b64:	8c425100 	lw	v0,20736(v0)
9d001b68:	30420008 	andi	v0,v0,0x8
9d001b6c:	1440fffc 	bnez	v0,9d001b60 <readFromI2C+0xe4>
9d001b70:	00000000 	nop

        *bytes++ = I2C2RCV;  //Write the byte received from the slave device into the next available byte of the provided buffer array
9d001b74:	3c02bf80 	lui	v0,0xbf80
9d001b78:	8c445160 	lw	a0,20832(v0)
9d001b7c:	8fa20024 	lw	v0,36(sp)
9d001b80:	24430001 	addiu	v1,v0,1
9d001b84:	afa30024 	sw	v1,36(sp)
9d001b88:	308300ff 	andi	v1,a0,0xff
9d001b8c:	a0430000 	sb	v1,0(v0)

        if (bytes == ptrStop) I2C2CONSET = 0x00000020;  //Configure the I2C peripheral to send an NACK response next if we've just received the last byte
9d001b90:	8fa30024 	lw	v1,36(sp)
9d001b94:	8fa20010 	lw	v0,16(sp)
9d001b98:	14620004 	bne	v1,v0,9d001bac <readFromI2C+0x130>
9d001b9c:	00000000 	nop
9d001ba0:	3c02bf80 	lui	v0,0xbf80
9d001ba4:	24030020 	li	v1,32
9d001ba8:	ac435108 	sw	v1,20744(v0)

        I2C2CONSET = 0x00000010;       //Send an ACK response to the slave device on the I2C bus to confirm that the byte was received
9d001bac:	3c02bf80 	lui	v0,0xbf80
9d001bb0:	24030010 	li	v1,16
9d001bb4:	ac435108 	sw	v1,20744(v0)
        while (I2C2CON & 0x00000010);  //Wait until the ACK condition is done sending
9d001bb8:	00000000 	nop
9d001bbc:	3c02bf80 	lui	v0,0xbf80
9d001bc0:	8c425100 	lw	v0,20736(v0)
9d001bc4:	30420010 	andi	v0,v0,0x10
9d001bc8:	1440fffc 	bnez	v0,9d001bbc <readFromI2C+0x140>
9d001bcc:	00000000 	nop
    while (bytes != ptrStop)
9d001bd0:	8fa30024 	lw	v1,36(sp)
9d001bd4:	8fa20010 	lw	v0,16(sp)
9d001bd8:	1462ffdd 	bne	v1,v0,9d001b50 <readFromI2C+0xd4>
9d001bdc:	00000000 	nop
    }

    I2C2CONCLR = 0x00000020;  //Clear the ACKDT bit of the I2C control register now that sending NACK responses is no longer required
9d001be0:	3c02bf80 	lui	v0,0xbf80
9d001be4:	24030020 	li	v1,32
9d001be8:	ac435104 	sw	v1,20740(v0)

    //Stop condition generation
    I2C2CONSET = 0x00000004;       //Generate a stop condition on the I2C bus, this signals the end of transmission to the slave device
9d001bec:	3c02bf80 	lui	v0,0xbf80
9d001bf0:	24030004 	li	v1,4
9d001bf4:	ac435108 	sw	v1,20744(v0)
    while (I2C2CON & 0x00000004);  //Wait until the stop condition is done sending
9d001bf8:	00000000 	nop
9d001bfc:	3c02bf80 	lui	v0,0xbf80
9d001c00:	8c425100 	lw	v0,20736(v0)
9d001c04:	30420004 	andi	v0,v0,0x4
9d001c08:	1440fffc 	bnez	v0,9d001bfc <readFromI2C+0x180>
9d001c0c:	00000000 	nop

    return 0xFFFFFFFF;  //Return a non-zero value to indicate a successful reception
9d001c10:	2402ffff 	li	v0,-1
}
9d001c14:	8fbf001c 	lw	ra,28(sp)
9d001c18:	27bd0020 	addiu	sp,sp,32
9d001c1c:	03e00008 	jr	ra
9d001c20:	00000000 	nop

Disassembly of section .text.functionSetSSD1803A:

9d001c24 <functionSetSSD1803A>:
//           8           6          4          2         0
//    UD2 | UD1 | BS1 | DH` | BE | BS0 | REV | DH | RE | IS

//Function Set Function, selects what function registers the LCD controller is to respond to
uint32_t functionSetSSD1803A(SSD1803A_registers_t registerSelect)
{
9d001c24:	27bdffe0 	addiu	sp,sp,-32
9d001c28:	afbf001c 	sw	ra,28(sp)
9d001c2c:	afa40020 	sw	a0,32(sp)
    //Don't do anything if the controller already has the desired register set selected
    if (((statusRegister_SSD1803A & 0x00000001) ^ (registerSelect & 0x00000003)) && (statusRegister_SSD1803A & 0x00000002))
9d001c30:	8f828030 	lw	v0,-32720(gp)
9d001c34:	30430001 	andi	v1,v0,0x1
9d001c38:	8fa20020 	lw	v0,32(sp)
9d001c3c:	30420003 	andi	v0,v0,0x3
9d001c40:	10620055 	beq	v1,v0,9d001d98 <functionSetSSD1803A+0x174>
9d001c44:	00000000 	nop
9d001c48:	8f828030 	lw	v0,-32720(gp)
9d001c4c:	30420002 	andi	v0,v0,0x2
9d001c50:	10400051 	beqz	v0,9d001d98 <functionSetSSD1803A+0x174>
9d001c54:	00000000 	nop
    {
        uint8_t commandByte = ((statusRegister_SSD1803A & 0x00000028) >> 0x00000003) | 0x00000038;  //Calculate the first expected output command and store it in a new buffer
9d001c58:	8f828030 	lw	v0,-32720(gp)
9d001c5c:	000210c2 	srl	v0,v0,0x3
9d001c60:	304200ff 	andi	v0,v0,0xff
9d001c64:	30420005 	andi	v0,v0,0x5
9d001c68:	304200ff 	andi	v0,v0,0xff
9d001c6c:	34420038 	ori	v0,v0,0x38
9d001c70:	a3a20010 	sb	v0,16(sp)

        //Determine if we need to leave the extended register selection first when the requested IS bit is different from it's current state on the LCD controller
        // if ((statusRegister_SSD1803A & 0x00000002) == 0x00000002 && (statusRegister_SSD1803A & 0x00000001 ^ specialRegisters) == 0x00000000)
        if (((statusRegister_SSD1803A & 0x00000003) ^ (registerSelect & 0x00000001)) ^ 0x00000002)
9d001c74:	8f828030 	lw	v0,-32720(gp)
9d001c78:	30430003 	andi	v1,v0,0x3
9d001c7c:	8fa20020 	lw	v0,32(sp)
9d001c80:	30420001 	andi	v0,v0,0x1
9d001c84:	00621826 	xor	v1,v1,v0
9d001c88:	24020002 	li	v0,2
9d001c8c:	1062000d 	beq	v1,v0,9d001cc4 <functionSetSSD1803A+0xa0>
9d001c90:	00000000 	nop
        {
            if (!sendCommandSSD1803A(commandByte)) return 0x00000000;  //Try to take the LCD controller out of the extended registers
9d001c94:	93a20010 	lbu	v0,16(sp)
9d001c98:	00402025 	move	a0,v0
9d001c9c:	0f400d68 	jal	9d0035a0 <sendCommandSSD1803A>
9d001ca0:	00000000 	nop
9d001ca4:	14400004 	bnez	v0,9d001cb8 <functionSetSSD1803A+0x94>
9d001ca8:	00000000 	nop
9d001cac:	00001025 	move	v0,zero
9d001cb0:	1000003a 	b	9d001d9c <functionSetSSD1803A+0x178>
9d001cb4:	00000000 	nop
            statusRegister_SSD1803A &= 0xFFFFFFFD;                     //Clear the RE bit in the driver status register to match
9d001cb8:	8f828030 	lw	v0,-32720(gp)
9d001cbc:	7c020844 	ins	v0,zero,0x1,0x1
9d001cc0:	af828030 	sw	v0,-32720(gp)
        }

        //Determine how to handle this based on the requested changes based on the current state of the LCD controller
        if (statusRegister_SSD1803A & 0x00000002)
9d001cc4:	8f828030 	lw	v0,-32720(gp)
9d001cc8:	30420002 	andi	v0,v0,0x2
9d001ccc:	10400019 	beqz	v0,9d001d34 <functionSetSSD1803A+0x110>
9d001cd0:	00000000 	nop
        {
            if (!sendCommandSSD1803A((registerSelect & 0x00000002) | commandByte)) return 0x00000000;          //Attempt to select the desired registers on the LCD controller chipset
9d001cd4:	8fa20020 	lw	v0,32(sp)
9d001cd8:	304200ff 	andi	v0,v0,0xff
9d001cdc:	30420002 	andi	v0,v0,0x2
9d001ce0:	304300ff 	andi	v1,v0,0xff
9d001ce4:	93a20010 	lbu	v0,16(sp)
9d001ce8:	00621025 	or	v0,v1,v0
9d001cec:	304200ff 	andi	v0,v0,0xff
9d001cf0:	00402025 	move	a0,v0
9d001cf4:	0f400d68 	jal	9d0035a0 <sendCommandSSD1803A>
9d001cf8:	00000000 	nop
9d001cfc:	14400004 	bnez	v0,9d001d10 <functionSetSSD1803A+0xec>
9d001d00:	00000000 	nop
9d001d04:	00001025 	move	v0,zero
9d001d08:	10000024 	b	9d001d9c <functionSetSSD1803A+0x178>
9d001d0c:	00000000 	nop
            statusRegister_SSD1803A = (statusRegister_SSD1803A & 0xFFFFFFFD) | (registerSelect & 0x00000002);  //Update the RE bit of the drivers status register to match the new value
9d001d10:	8f828030 	lw	v0,-32720(gp)
9d001d14:	7c020844 	ins	v0,zero,0x1,0x1
9d001d18:	00401825 	move	v1,v0
9d001d1c:	8fa20020 	lw	v0,32(sp)
9d001d20:	30420002 	andi	v0,v0,0x2
9d001d24:	00621025 	or	v0,v1,v0
9d001d28:	af828030 	sw	v0,-32720(gp)
9d001d2c:	1000001a 	b	9d001d98 <functionSetSSD1803A+0x174>
9d001d30:	00000000 	nop
        }
        else
        {
            commandByte = (statusRegister_SSD1803A & 0x00000004) | registerSelect | 0x00000038;  //Form the correct command byte to send to the LCD controller
9d001d34:	8f828030 	lw	v0,-32720(gp)
9d001d38:	304200ff 	andi	v0,v0,0xff
9d001d3c:	30420004 	andi	v0,v0,0x4
9d001d40:	304300ff 	andi	v1,v0,0xff
9d001d44:	8fa20020 	lw	v0,32(sp)
9d001d48:	304200ff 	andi	v0,v0,0xff
9d001d4c:	00621025 	or	v0,v1,v0
9d001d50:	304200ff 	andi	v0,v0,0xff
9d001d54:	34420038 	ori	v0,v0,0x38
9d001d58:	a3a20010 	sb	v0,16(sp)
            if (!sendCommandSSD1803A(commandByte)) return 0x00000000;                            //Try sending the command to the LCD controller
9d001d5c:	93a20010 	lbu	v0,16(sp)
9d001d60:	00402025 	move	a0,v0
9d001d64:	0f400d68 	jal	9d0035a0 <sendCommandSSD1803A>
9d001d68:	00000000 	nop
9d001d6c:	14400004 	bnez	v0,9d001d80 <functionSetSSD1803A+0x15c>
9d001d70:	00000000 	nop
9d001d74:	00001025 	move	v0,zero
9d001d78:	10000008 	b	9d001d9c <functionSetSSD1803A+0x178>
9d001d7c:	00000000 	nop
            statusRegister_SSD1803A = statusRegister_SSD1803A & 0xFFFFFFFC | registerSelect;     //Update the RE and IS bits of the drivers status register to match the new values
9d001d80:	8f828030 	lw	v0,-32720(gp)
9d001d84:	7c020804 	ins	v0,zero,0x0,0x2
9d001d88:	00401825 	move	v1,v0
9d001d8c:	8fa20020 	lw	v0,32(sp)
9d001d90:	00621025 	or	v0,v1,v0
9d001d94:	af828030 	sw	v0,-32720(gp)
        }
    }

    return 0xFFFFFFFF;  //Return a value of true to indicate that operation completed successfully
9d001d98:	2402ffff 	li	v0,-1
}
9d001d9c:	8fbf001c 	lw	ra,28(sp)
9d001da0:	27bd0020 	addiu	sp,sp,32
9d001da4:	03e00008 	jr	ra
9d001da8:	00000000 	nop

Disassembly of section .text.getResultsAtAddressDPS368:

9d001dac <getResultsAtAddressDPS368>:

//Get Results At Address Function, obtains the requested number of 24-bit results from the sensor at the provided start address
uint32_t getResultsAtAddressDPS368(uint32_t address, uint32_t *results, uint32_t count)
{
9d001dac:	27bdffd0 	addiu	sp,sp,-48
9d001db0:	afbf002c 	sw	ra,44(sp)
9d001db4:	afbe0028 	sw	s8,40(sp)
9d001db8:	afb00024 	sw	s0,36(sp)
9d001dbc:	03a0f025 	move	s8,sp
9d001dc0:	afc40030 	sw	a0,48(s8)
9d001dc4:	afc50034 	sw	a1,52(s8)
9d001dc8:	afc60038 	sw	a2,56(s8)
9d001dcc:	03a02025 	move	a0,sp
9d001dd0:	00808025 	move	s0,a0
    uint32_t byteCount = count * 0x00000003;  //Calculate the number of bytes that need to be read to obtain the requested result count
9d001dd4:	8fc50038 	lw	a1,56(s8)
9d001dd8:	00a02025 	move	a0,a1
9d001ddc:	00042040 	sll	a0,a0,0x1
9d001de0:	00852021 	addu	a0,a0,a1
9d001de4:	afc40014 	sw	a0,20(s8)
    uint8_t dataBuffer[byteCount];            //Create an array containing 3 bytes for every result requested to retrieve
9d001de8:	8fc40014 	lw	a0,20(s8)
9d001dec:	00802825 	move	a1,a0
9d001df0:	24a5ffff 	addiu	a1,a1,-1
9d001df4:	afc50018 	sw	a1,24(s8)
9d001df8:	00806025 	move	t4,a0
9d001dfc:	00006825 	move	t5,zero
9d001e00:	000c2f42 	srl	a1,t4,0x1d
9d001e04:	000d48c0 	sll	t1,t5,0x3
9d001e08:	00a94825 	or	t1,a1,t1
9d001e0c:	000c40c0 	sll	t0,t4,0x3
9d001e10:	00805025 	move	t2,a0
9d001e14:	00005825 	move	t3,zero
9d001e18:	000a2f42 	srl	a1,t2,0x1d
9d001e1c:	000b18c0 	sll	v1,t3,0x3
9d001e20:	00a31825 	or	v1,a1,v1
9d001e24:	000a10c0 	sll	v0,t2,0x3
9d001e28:	24820007 	addiu	v0,a0,7
9d001e2c:	000210c2 	srl	v0,v0,0x3
9d001e30:	000210c0 	sll	v0,v0,0x3
9d001e34:	03a2e823 	subu	sp,sp,v0
9d001e38:	27a20010 	addiu	v0,sp,16
9d001e3c:	24420000 	addiu	v0,v0,0
9d001e40:	afc2001c 	sw	v0,28(s8)

    *dataBuffer = address;  //Begin the read process at the provided start address
9d001e44:	8fc20030 	lw	v0,48(s8)
9d001e48:	304300ff 	andi	v1,v0,0xff
9d001e4c:	8fc2001c 	lw	v0,28(s8)
9d001e50:	a0430000 	sb	v1,0(v0)
    if (!readFromI2C(DPS368_I2C_ADDR, dataBuffer, byteCount, 0x00000001)) return 0x00000000;  //Attempt to read the contents of result registers on the sensor
9d001e54:	8fc2001c 	lw	v0,28(s8)
9d001e58:	24070001 	li	a3,1
9d001e5c:	8fc60014 	lw	a2,20(s8)
9d001e60:	00402825 	move	a1,v0
9d001e64:	24040076 	li	a0,118
9d001e68:	0f40069f 	jal	9d001a7c <readFromI2C>
9d001e6c:	00000000 	nop
9d001e70:	14400004 	bnez	v0,9d001e84 <getResultsAtAddressDPS368+0xd8>
9d001e74:	00000000 	nop
9d001e78:	00001025 	move	v0,zero
9d001e7c:	10000020 	b	9d001f00 <getResultsAtAddressDPS368+0x154>
9d001e80:	00000000 	nop

    uint8_t *arrayPointer = dataBuffer;  //Declare a pointer to the dataBuffer array to use for iterating through each index of the array while extracting the measurement results
9d001e84:	8fc2001c 	lw	v0,28(s8)
9d001e88:	afc20010 	sw	v0,16(s8)

    //Extract each individual result from the obtained byte array and store them into the array provided
    while (count--)
9d001e8c:	10000016 	b	9d001ee8 <getResultsAtAddressDPS368+0x13c>
9d001e90:	00000000 	nop
    {
        *results++ = (*arrayPointer++ << 0x00000010) | (*arrayPointer++ << 0x00000008) | (*arrayPointer++);  //Combine the next 3 bytes in the dataBuffer array to form a new 24-bit measurement
9d001e94:	8fc20010 	lw	v0,16(s8)
9d001e98:	24430001 	addiu	v1,v0,1
9d001e9c:	afc30010 	sw	v1,16(s8)
9d001ea0:	90420000 	lbu	v0,0(v0)
9d001ea4:	00021c00 	sll	v1,v0,0x10
9d001ea8:	8fc20010 	lw	v0,16(s8)
9d001eac:	24440001 	addiu	a0,v0,1
9d001eb0:	afc40010 	sw	a0,16(s8)
9d001eb4:	90420000 	lbu	v0,0(v0)
9d001eb8:	00021200 	sll	v0,v0,0x8
9d001ebc:	00621825 	or	v1,v1,v0
9d001ec0:	8fc20010 	lw	v0,16(s8)
9d001ec4:	24440001 	addiu	a0,v0,1
9d001ec8:	afc40010 	sw	a0,16(s8)
9d001ecc:	90420000 	lbu	v0,0(v0)
9d001ed0:	00622025 	or	a0,v1,v0
9d001ed4:	8fc20034 	lw	v0,52(s8)
9d001ed8:	24430004 	addiu	v1,v0,4
9d001edc:	afc30034 	sw	v1,52(s8)
9d001ee0:	00801825 	move	v1,a0
9d001ee4:	ac430000 	sw	v1,0(v0)
    while (count--)
9d001ee8:	8fc20038 	lw	v0,56(s8)
9d001eec:	2443ffff 	addiu	v1,v0,-1
9d001ef0:	afc30038 	sw	v1,56(s8)
9d001ef4:	1440ffe7 	bnez	v0,9d001e94 <getResultsAtAddressDPS368+0xe8>
9d001ef8:	00000000 	nop
    }

    return 0xFFFFFFFF;  //Return a non-negative value to indicate the results were obtained successfully
9d001efc:	2402ffff 	li	v0,-1
9d001f00:	0200e825 	move	sp,s0
}
9d001f04:	03c0e825 	move	sp,s8
9d001f08:	8fbf002c 	lw	ra,44(sp)
9d001f0c:	8fbe0028 	lw	s8,40(sp)
9d001f10:	8fb00024 	lw	s0,36(sp)
9d001f14:	27bd0030 	addiu	sp,sp,48
9d001f18:	03e00008 	jr	ra
9d001f1c:	00000000 	nop

Disassembly of section .text.setupMCU:

9d001f20 <setupMCU>:
 *  Main Program  *
 ******************/

//Setup MCU Function, sets the appropriate control registers on the MCU needed to make things work for the application
inline void setupMCU()
{
9d001f20:	27bdffe8 	addiu	sp,sp,-24
9d001f24:	afbf0014 	sw	ra,20(sp)
    asm volatile ("di");  //Disable interrupts for the duration of the setup routine
9d001f28:	41606000 	di

    //Configure Port A
    LATA = 0x00000000;   //Clear all of Port A to logic LOW
9d001f2c:	3c02bf88 	lui	v0,0xbf88
9d001f30:	ac406030 	sw	zero,24624(v0)
    TRISA = 0x00000018;  //Set RA0 and RA1 to outputs
9d001f34:	3c02bf88 	lui	v0,0xbf88
9d001f38:	24030018 	li	v1,24
9d001f3c:	ac436010 	sw	v1,24592(v0)

    //Configure Port B
    ANSELB = 0x00006003;  //Force RB2, RB3, and RB15 to fully digital IO, allowing the I2C peripheral and external interrupt to function correctly
9d001f40:	3c02bf88 	lui	v0,0xbf88
9d001f44:	24036003 	li	v1,24579
9d001f48:	ac436100 	sw	v1,24832(v0)
    LATB = 0x00001000;    //Clear all of Port B to logic LOW, setting RB12 to logic HIGH
9d001f4c:	3c02bf88 	lui	v0,0xbf88
9d001f50:	24031000 	li	v1,4096
9d001f54:	ac436130 	sw	v1,24880(v0)
    ODCB = 0x00001000;    //Enable the open-drain function on RB12
9d001f58:	3c02bf88 	lui	v0,0xbf88
9d001f5c:	24031000 	li	v1,4096
9d001f60:	ac436140 	sw	v1,24896(v0)
    CNENB = 0x000003C0;   //Enable change notification interrupts on inputs RB6 through RB9
9d001f64:	3c02bf88 	lui	v0,0xbf88
9d001f68:	240303c0 	li	v1,960
9d001f6c:	ac436180 	sw	v1,24960(v0)
    TRISB = 0x0000EBFF;   //Set RB10 and RB12 to outputs
9d001f70:	3c02bf88 	lui	v0,0xbf88
9d001f74:	3403ebff 	li	v1,0xebff
9d001f78:	ac436110 	sw	v1,24848(v0)

    //Configure PPS connections
    RPA3R = 0x00000002;   //Assign RA3 to the TX output of UART2
9d001f7c:	3c02bf81 	lui	v0,0xbf81
9d001f80:	24030002 	li	v1,2
9d001f84:	ac43fb0c 	sw	v1,-1268(v0)
    U2RXR = 0x00000001;   //Assign RB5 to the RX input of UART2
9d001f88:	3c02bf81 	lui	v0,0xbf81
9d001f8c:	24030001 	li	v1,1
9d001f90:	ac43fa58 	sw	v1,-1448(v0)
    RPB13R = 0x00000003;  //Assign RB13 to the SDO output of SPI1
9d001f94:	3c02bf81 	lui	v0,0xbf81
9d001f98:	24030003 	li	v1,3
9d001f9c:	ac43fb60 	sw	v1,-1184(v0)
    SDI1R = 0x00000003;   //Assign RB11 to the SDI input of SPI1
9d001fa0:	3c02bf81 	lui	v0,0xbf81
9d001fa4:	24030003 	li	v1,3
9d001fa8:	ac43fa84 	sw	v1,-1404(v0)
    INT4R = 0x00000003;   //Assign RB15 to the 4th external interrupt
9d001fac:	3c02bf81 	lui	v0,0xbf81
9d001fb0:	24030003 	li	v1,3
9d001fb4:	ac43fa10 	sw	v1,-1520(v0)
    
    //Enable and configure the first SPI peripheral, SPI1
    SPI1BRG = 0x00000001;   //Set the clock frequency of SPI1 to operate at 4MHz
9d001fb8:	3c02bf80 	lui	v0,0xbf80
9d001fbc:	24030001 	li	v1,1
9d001fc0:	ac435830 	sw	v1,22576(v0)
    SPI1CON2 = 0x00000C00;  //Disable all audio codec functionality of SPI1
9d001fc4:	3c02bf80 	lui	v0,0xbf80
9d001fc8:	24030c00 	li	v1,3072
9d001fcc:	ac435840 	sw	v1,22592(v0)
    SPI1CON = 0x00008120;   //Enable SPI1 in master mode, configured for 8-bit words in standard buffer mode
9d001fd0:	3c02bf80 	lui	v0,0xbf80
9d001fd4:	34038120 	li	v1,0x8120
9d001fd8:	ac435800 	sw	v1,22528(v0)

    //Enable and configure the second I2C peripheral, I2C2
    I2C2BRG = 0x00000008;  //Set the bus speed of I2C2 to ~429kHz
9d001fdc:	3c02bf80 	lui	v0,0xbf80
9d001fe0:	24030008 	li	v1,8
9d001fe4:	ac435140 	sw	v1,20800(v0)
    I2C2CON = 0x0000A000;  //Enable I2C2 with the stop in idle mode active
9d001fe8:	3c02bf80 	lui	v0,0xbf80
9d001fec:	3403a000 	li	v1,0xa000
9d001ff0:	ac435100 	sw	v1,20736(v0)
    DCH2ECON = 0x00003730;          //Using pattern match mode, allow start events from IRQ 55 (UART2 TX interrupt)
    DCH2INT = 0x00080000;           //Enable block transfer complete interrupts for DMA 2
#endif

    //Prepare for configuration of the RTCC peripheral
    SYSKEY = 0x00000000;  //Reset the register lock state machine by writing a 0 to it
9d001ff4:	3c02bf81 	lui	v0,0xbf81
9d001ff8:	ac40f230 	sw	zero,-3536(v0)
    SYSKEY = 0xAA996655;  //Write the first unlock key to the SYSKEY register
9d001ffc:	3c02bf81 	lui	v0,0xbf81
9d002000:	3c03aa99 	lui	v1,0xaa99
9d002004:	34636655 	ori	v1,v1,0x6655
9d002008:	ac43f230 	sw	v1,-3536(v0)
    SYSKEY = 0x556699AA;  //Write the second unlock key to the register to finally unlock all protected registers
9d00200c:	3c02bf81 	lui	v0,0xbf81
9d002010:	3c035566 	lui	v1,0x5566
9d002014:	346399aa 	ori	v1,v1,0x99aa
9d002018:	ac43f230 	sw	v1,-3536(v0)
    RTCCON = 0x00000008;  //Set Bit-3 of RTCCON to enable writes to all RTCC related registers
9d00201c:	3c02bf80 	lui	v0,0xbf80
9d002020:	24030008 	li	v1,8
9d002024:	ac430200 	sw	v1,512(v0)
    SYSKEY = 0x00000000;  //Lock the protected registers now that we're done writing to protected registers
9d002028:	3c02bf81 	lui	v0,0xbf81
9d00202c:	ac40f230 	sw	zero,-3536(v0)

    //Configure the RTCC
    ALRMTIME = configSampleInterval;  //Set the alarm time of the RTCC to the application configured sample interval
9d002030:	24030500 	li	v1,1280
9d002034:	3c02bf80 	lui	v0,0xbf80
9d002038:	ac430240 	sw	v1,576(v0)
    ALRMDATE = 0x00000000;            //Set the desired RTCC alarm date
9d00203c:	3c02bf80 	lui	v0,0xbf80
9d002040:	ac400250 	sw	zero,592(v0)
    RTCCON = 0x00002208;              //Configure the RTCC to use SOSC as the source clock with stop-in-idle mode active
9d002044:	3c02bf80 	lui	v0,0xbf80
9d002048:	24032208 	li	v1,8712
9d00204c:	ac430200 	sw	v1,512(v0)

    //Configure Timer 1
    PR1 = 0x0000FFFF;    //Use a period of 0xFFFF for Timer 1
9d002050:	3c02bf80 	lui	v0,0xbf80
9d002054:	3403ffff 	li	v1,0xffff
9d002058:	ac430620 	sw	v1,1568(v0)
    T1CON = 0x00000010;  //Enable Timer 1 using the secondary oscillator as the clock source with a 1:8 pre-scaler
9d00205c:	3c02bf80 	lui	v0,0xbf80
9d002060:	24030010 	li	v1,16
9d002064:	ac430600 	sw	v1,1536(v0)
//    T1CON = 0x00000002;  //Enable Timer 1 using the secondary oscillator as the clock source with a 1:256 pre-scaler
    TMR1 = 0x00000000;   //Clear the contents of the Timer 1 count register
9d002068:	3c02bf80 	lui	v0,0xbf80

    setupInterrupts();               //Setup the interrupt controller of the MCU and enable interrupts
9d00206c:	0f400c1a 	jal	9d003068 <setupInterrupts>
9d002070:	ac400610 	sw	zero,1552(v0)
}
9d002074:	00000000 	nop
9d002078:	8fbf0014 	lw	ra,20(sp)
9d00207c:	27bd0018 	addiu	sp,sp,24
9d002080:	03e00008 	jr	ra
9d002084:	00000000 	nop

Disassembly of section .text.setPowerLevelSX1231H:

9d002088 <setPowerLevelSX1231H>:
    interactWithRegistersSX1231H(REGADDR_OPMODE, &registerValue, 0x00000001, 0x00000000);  //Send the configuration byte to the transceiver IC
}

//Set Power Level Function, sets the TX output power strength
void setPowerLevelSX1231H(uint32_t txPower)
{
9d002088:	27bdffe0 	addiu	sp,sp,-32
9d00208c:	afbf001c 	sw	ra,28(sp)
9d002090:	afa40020 	sw	a0,32(sp)
    uint8_t paLevel = 0x00;               //Create a buffer variable to use for storing the value that will be written to RegPaLevel
9d002094:	a3a00010 	sb	zero,16(sp)
    uint8_t overcurrentRegister = 0x19;   //Create another buffer for storing the value to be written to the overcurrent settings register
9d002098:	24020019 	li	v0,25
9d00209c:	a3a20011 	sb	v0,17(sp)
    uint8_t pa1HighPowerRegister = 0x55;  //Make a buffer for the high power settings register of PA1, defaulting to disabling high power mode
9d0020a0:	24020055 	li	v0,85
9d0020a4:	a3a20012 	sb	v0,18(sp)
    uint8_t pa2HighPowerRegister = 0x70;  //Make a buffer for the high power settings register of PA2, defaulting to disabling high power mode
9d0020a8:	24020070 	li	v0,112
9d0020ac:	a3a20013 	sb	v0,19(sp)

    if (txPower > 0x00000017) txPower = 0x00000017;  //Force any value of txPower greater than 0x17 back to 0x17 to prevent the offsets from messing up
9d0020b0:	8fa20020 	lw	v0,32(sp)
9d0020b4:	2c420018 	sltiu	v0,v0,24
9d0020b8:	14400003 	bnez	v0,9d0020c8 <setPowerLevelSX1231H+0x40>
9d0020bc:	00000000 	nop
9d0020c0:	24020017 	li	v0,23
9d0020c4:	afa20020 	sw	v0,32(sp)

    if (txPower >= 0x000000008)
9d0020c8:	8fa20020 	lw	v0,32(sp)
9d0020cc:	2c420008 	sltiu	v0,v0,8
9d0020d0:	1440000c 	bnez	v0,9d002104 <setPowerLevelSX1231H+0x7c>
9d0020d4:	00000000 	nop
    {
        paLevel = 0x68 + txPower;  //Enable both PA1 and PA2 when operating in high power mode, setting the output level as requested
9d0020d8:	8fa20020 	lw	v0,32(sp)
9d0020dc:	304200ff 	andi	v0,v0,0xff
9d0020e0:	24420068 	addiu	v0,v0,104
9d0020e4:	304200ff 	andi	v0,v0,0xff
9d0020e8:	a3a20010 	sb	v0,16(sp)

        pa1HighPowerRegister = 0x5D;  //Put PA1 into high power mode
9d0020ec:	2402005d 	li	v0,93
9d0020f0:	a3a20012 	sb	v0,18(sp)
        pa2HighPowerRegister = 0x7C;  //Put PA2 into high power mode
9d0020f4:	2402007c 	li	v0,124
9d0020f8:	a3a20013 	sb	v0,19(sp)
9d0020fc:	10000014 	b	9d002150 <setPowerLevelSX1231H+0xc8>
9d002100:	00000000 	nop
    }
    else if (txPower >= 0x00000005)
9d002104:	8fa20020 	lw	v0,32(sp)
9d002108:	2c420005 	sltiu	v0,v0,5
9d00210c:	14400008 	bnez	v0,9d002130 <setPowerLevelSX1231H+0xa8>
9d002110:	00000000 	nop
    {
        paLevel = 0x6B + txPower;  //Enable both PA1 and PA2, setting the output accordingly
9d002114:	8fa20020 	lw	v0,32(sp)
9d002118:	304200ff 	andi	v0,v0,0xff
9d00211c:	2442006b 	addiu	v0,v0,107
9d002120:	304200ff 	andi	v0,v0,0xff
9d002124:	a3a20010 	sb	v0,16(sp)
9d002128:	10000009 	b	9d002150 <setPowerLevelSX1231H+0xc8>
9d00212c:	00000000 	nop
    }
    else if (txPower)
9d002130:	8fa20020 	lw	v0,32(sp)
9d002134:	10400006 	beqz	v0,9d002150 <setPowerLevelSX1231H+0xc8>
9d002138:	00000000 	nop
    {
        paLevel = 0x4F + txPower;  //Enable PA1, and set the output level accordingly
9d00213c:	8fa20020 	lw	v0,32(sp)
9d002140:	304200ff 	andi	v0,v0,0xff
9d002144:	2442004f 	addiu	v0,v0,79
9d002148:	304200ff 	andi	v0,v0,0xff
9d00214c:	a3a20010 	sb	v0,16(sp)
    }

    interactWithRegistersSX1231H(REGADDR_PALEVEL, &paLevel, 0x00000001, 0x00000000);               //Write the value of paLevel to the RegPaLevel register on the transceiver IC
9d002150:	00003825 	move	a3,zero
9d002154:	24060001 	li	a2,1
9d002158:	27a20010 	addiu	v0,sp,16
9d00215c:	00402825 	move	a1,v0
9d002160:	24040011 	li	a0,17
9d002164:	0f400875 	jal	9d0021d4 <interactWithRegistersSX1231H>
9d002168:	00000000 	nop
    interactWithRegistersSX1231H(REGADDR_OCP, &overcurrentRegister, 0x00000001, 0x00000000);       //Write the value of overcurrentRegister to the RegOcp register on the transceiver IC
9d00216c:	27a20011 	addiu	v0,sp,17
9d002170:	00003825 	move	a3,zero
9d002174:	24060001 	li	a2,1
9d002178:	00402825 	move	a1,v0
9d00217c:	24040013 	li	a0,19
9d002180:	0f400875 	jal	9d0021d4 <interactWithRegistersSX1231H>
9d002184:	00000000 	nop
    interactWithRegistersSX1231H(REGADDR_TESTPA1, &pa1HighPowerRegister, 0x00000001, 0x00000000);  //Write the value of pa1HighPowerRegister to the RegTestPa1 register on the transceiver IC
9d002188:	27a20012 	addiu	v0,sp,18
9d00218c:	00003825 	move	a3,zero
9d002190:	24060001 	li	a2,1
9d002194:	00402825 	move	a1,v0
9d002198:	2404005a 	li	a0,90
9d00219c:	0f400875 	jal	9d0021d4 <interactWithRegistersSX1231H>
9d0021a0:	00000000 	nop
    interactWithRegistersSX1231H(REGADDR_TESTPA2, &pa2HighPowerRegister, 0x00000001, 0x00000000);  //Write the value of pa2HighPowerRegister to the RegTestPa2 register on the transceiver IC
9d0021a4:	27a20013 	addiu	v0,sp,19
9d0021a8:	00003825 	move	a3,zero
9d0021ac:	24060001 	li	a2,1
9d0021b0:	00402825 	move	a1,v0
9d0021b4:	2404005c 	li	a0,92
9d0021b8:	0f400875 	jal	9d0021d4 <interactWithRegistersSX1231H>
9d0021bc:	00000000 	nop
}
9d0021c0:	00000000 	nop
9d0021c4:	8fbf001c 	lw	ra,28(sp)
9d0021c8:	27bd0020 	addiu	sp,sp,32
9d0021cc:	03e00008 	jr	ra
9d0021d0:	00000000 	nop

Disassembly of section .text.interactWithRegistersSX1231H:

9d0021d4 <interactWithRegistersSX1231H>:
 *  Transceiver Data Exchange Functions  *
 *****************************************/

//Interact With Registers Functions, reads/writes to the registers in the transceiver at the given start address using/into dataBytes 
void interactWithRegistersSX1231H(uint32_t startAddress, uint8_t *dataBytes, uint32_t bufferLength, uint32_t readMode)
{
9d0021d4:	afa40000 	sw	a0,0(sp)
9d0021d8:	afa50004 	sw	a1,4(sp)
9d0021dc:	afa60008 	sw	a2,8(sp)
9d0021e0:	afa7000c 	sw	a3,12(sp)
    while (SPI1CON & 0x00000800);  //Wait until the SPI1 peripheral is in idle mode before starting the data transaction
9d0021e4:	00000000 	nop
9d0021e8:	3c02bf80 	lui	v0,0xbf80
9d0021ec:	8c425800 	lw	v0,22528(v0)
9d0021f0:	30420800 	andi	v0,v0,0x800
9d0021f4:	1440fffc 	bnez	v0,9d0021e8 <interactWithRegistersSX1231H+0x14>
9d0021f8:	00000000 	nop

    startAddress |= 0x00000080;                //Force-set Bit-7 of the startAddress variable to indicate the assumed write operation
9d0021fc:	8fa20000 	lw	v0,0(sp)
9d002200:	34420080 	ori	v0,v0,0x80
9d002204:	afa20000 	sw	v0,0(sp)
    if (readMode) startAddress &= 0x0000007F;  //Clear Bit-7 of startAddress when the readMode parameter is not 0
9d002208:	8fa2000c 	lw	v0,12(sp)
9d00220c:	10400004 	beqz	v0,9d002220 <interactWithRegistersSX1231H+0x4c>
9d002210:	00000000 	nop
9d002214:	8fa20000 	lw	v0,0(sp)
9d002218:	3042007f 	andi	v0,v0,0x7f
9d00221c:	afa20000 	sw	v0,0(sp)

    LATBCLR = 0x00001000;    //Clear RB12 to pull the SS line down to logic LOW
9d002220:	3c02bf88 	lui	v0,0xbf88
9d002224:	24031000 	li	v1,4096
9d002228:	ac436134 	sw	v1,24884(v0)
    SPI1BUF = startAddress;  //Begin the transaction by writing the contents of the startAddress variable to the data buffer of SPI2
9d00222c:	3c02bf80 	lui	v0,0xbf80
9d002230:	8fa30000 	lw	v1,0(sp)
9d002234:	ac435820 	sw	v1,22560(v0)

    while (SPI1STAT & 0x00000800);  //Wait until the SPI2 peripheral is no longer busy before continuing
9d002238:	00000000 	nop
9d00223c:	3c02bf80 	lui	v0,0xbf80
9d002240:	8c425810 	lw	v0,22544(v0)
9d002244:	30420800 	andi	v0,v0,0x800
9d002248:	1440fffc 	bnez	v0,9d00223c <interactWithRegistersSX1231H+0x68>
9d00224c:	00000000 	nop
    SPI1BUF;                        //Read from the SPI2 peripherals input buffer to clear it
9d002250:	3c02bf80 	lui	v0,0xbf80
9d002254:	8c425820 	lw	v0,22560(v0)
    SPI1STATCLR = 0x00000040;       //Clear the Read Buffer Overflow flag in the SPI1 status register
9d002258:	3c02bf80 	lui	v0,0xbf80
9d00225c:	24030040 	li	v1,64
9d002260:	ac435814 	sw	v1,22548(v0)
    
    //Perform the data exchange for the size of the provided buffer
    while (bufferLength--)
9d002264:	10000023 	b	9d0022f4 <interactWithRegistersSX1231H+0x120>
9d002268:	00000000 	nop
    {
        //Determine what data to send based on what operation is being performed
        if (readMode)
9d00226c:	8fa2000c 	lw	v0,12(sp)
9d002270:	10400005 	beqz	v0,9d002288 <interactWithRegistersSX1231H+0xb4>
9d002274:	00000000 	nop
        {
            SPI1BUF = 0x00;  //Send a series of blank of 0's when performing a read operation
9d002278:	3c02bf80 	lui	v0,0xbf80
9d00227c:	ac405820 	sw	zero,22560(v0)
9d002280:	10000008 	b	9d0022a4 <interactWithRegistersSX1231H+0xd0>
9d002284:	00000000 	nop
        }
        else
        {
            SPI1BUF = *(dataBytes++);  //Transmit the value stored at the address given by the dataBytes pointer, incrementing the pointer address by 1 afterwards
9d002288:	8fa20004 	lw	v0,4(sp)
9d00228c:	24430001 	addiu	v1,v0,1
9d002290:	afa30004 	sw	v1,4(sp)
9d002294:	90420000 	lbu	v0,0(v0)
9d002298:	00401825 	move	v1,v0
9d00229c:	3c02bf80 	lui	v0,0xbf80
9d0022a0:	ac435820 	sw	v1,22560(v0)
        }

        while (SPI1STAT & 0x00000800);  //Wait until the SPI1 peripheral is no longer busy before continuing
9d0022a4:	00000000 	nop
9d0022a8:	3c02bf80 	lui	v0,0xbf80
9d0022ac:	8c425810 	lw	v0,22544(v0)
9d0022b0:	30420800 	andi	v0,v0,0x800
9d0022b4:	1440fffc 	bnez	v0,9d0022a8 <interactWithRegistersSX1231H+0xd4>
9d0022b8:	00000000 	nop

        //Collect the obtained data byte when in read mode from the SPI1 peripheral, ignoring the first byte in the sequence
        if (readMode)
9d0022bc:	8fa2000c 	lw	v0,12(sp)
9d0022c0:	1040000a 	beqz	v0,9d0022ec <interactWithRegistersSX1231H+0x118>
9d0022c4:	00000000 	nop
        {
            *(dataBytes++) = (SPI1BUF & 0x000000FF);  //Write the contents of the SPI1 receive buffer into the address specified by the dataBytes pointer
9d0022c8:	3c02bf80 	lui	v0,0xbf80
9d0022cc:	8c445820 	lw	a0,22560(v0)
9d0022d0:	8fa20004 	lw	v0,4(sp)
9d0022d4:	24430001 	addiu	v1,v0,1
9d0022d8:	afa30004 	sw	v1,4(sp)
9d0022dc:	308300ff 	andi	v1,a0,0xff
9d0022e0:	a0430000 	sb	v1,0(v0)
9d0022e4:	10000003 	b	9d0022f4 <interactWithRegistersSX1231H+0x120>
9d0022e8:	00000000 	nop
        }
        else
        {
            SPI1BUF;  //Clear the SPI1 receive buffer and its associated flags by reading from the SPI1BUF register
9d0022ec:	3c02bf80 	lui	v0,0xbf80
9d0022f0:	8c425820 	lw	v0,22560(v0)
    while (bufferLength--)
9d0022f4:	8fa20008 	lw	v0,8(sp)
9d0022f8:	2443ffff 	addiu	v1,v0,-1
9d0022fc:	afa30008 	sw	v1,8(sp)
9d002300:	1440ffda 	bnez	v0,9d00226c <interactWithRegistersSX1231H+0x98>
9d002304:	00000000 	nop
        }
    }

    LATBSET = 0x00001000;  //Clear RB12 to bring the SS line back up to its idle state of logic HIGH
9d002308:	3c02bf88 	lui	v0,0xbf88
9d00230c:	24031000 	li	v1,4096
9d002310:	ac436138 	sw	v1,24888(v0)
}
9d002314:	00000000 	nop
9d002318:	03e00008 	jr	ra
9d00231c:	00000000 	nop

Disassembly of section .text.writeToI2C:

9d002320 <writeToI2C>:
{
9d002320:	afa40000 	sw	a0,0(sp)
9d002324:	afa50004 	sw	a1,4(sp)
9d002328:	afa60008 	sw	a2,8(sp)
    I2C2CONSET = 0x00000001;       //Generate a start condition on the I2C bus, this signals that new data is about to be sent to all slaves on the line
9d00232c:	3c02bf80 	lui	v0,0xbf80
9d002330:	24030001 	li	v1,1
9d002334:	ac435108 	sw	v1,20744(v0)
    while (I2C2CON & 0x00000001);  //Wait until the start condition is done sending to conform to I2C timing specifications
9d002338:	00000000 	nop
9d00233c:	3c02bf80 	lui	v0,0xbf80
9d002340:	8c425100 	lw	v0,20736(v0)
9d002344:	30420001 	andi	v0,v0,0x1
9d002348:	1440fffc 	bnez	v0,9d00233c <writeToI2C+0x1c>
9d00234c:	00000000 	nop
    I2C2TRN = (address << 0x00000001);             //Shift the value of the address over to the left by 1 bit, then write it to the transmit register
9d002350:	8fa20000 	lw	v0,0(sp)
9d002354:	00021840 	sll	v1,v0,0x1
9d002358:	3c02bf80 	lui	v0,0xbf80
9d00235c:	ac435150 	sw	v1,20816(v0)
    while (I2C2STAT & 0x00004000);                 //Wait until the address and write flag have finished being sent, and the ACK flag has been read by the master.
9d002360:	00000000 	nop
9d002364:	3c02bf80 	lui	v0,0xbf80
9d002368:	8c425110 	lw	v0,20752(v0)
9d00236c:	30424000 	andi	v0,v0,0x4000
9d002370:	1440fffc 	bnez	v0,9d002364 <writeToI2C+0x44>
9d002374:	00000000 	nop
    if (I2C2STAT & 0x00008000) return 0x00000000;  //Leave the function early in cases where no acknowledge is returned by the slave device
9d002378:	3c02bf80 	lui	v0,0xbf80
9d00237c:	8c425110 	lw	v0,20752(v0)
9d002380:	30428000 	andi	v0,v0,0x8000
9d002384:	10400019 	beqz	v0,9d0023ec <writeToI2C+0xcc>
9d002388:	00000000 	nop
9d00238c:	00001025 	move	v0,zero
9d002390:	10000025 	b	9d002428 <writeToI2C+0x108>
9d002394:	00000000 	nop
        I2C2TRN = *bytes++;                            //Send the next byte in the array out to the I2C bus
9d002398:	8fa20004 	lw	v0,4(sp)
9d00239c:	24430001 	addiu	v1,v0,1
9d0023a0:	afa30004 	sw	v1,4(sp)
9d0023a4:	90420000 	lbu	v0,0(v0)
9d0023a8:	00401825 	move	v1,v0
9d0023ac:	3c02bf80 	lui	v0,0xbf80
9d0023b0:	ac435150 	sw	v1,20816(v0)
        while (I2C2STAT & 0x00004000);                 //Wait until the byte has finished transmitting before checking for acknowledgement
9d0023b4:	00000000 	nop
9d0023b8:	3c02bf80 	lui	v0,0xbf80
9d0023bc:	8c425110 	lw	v0,20752(v0)
9d0023c0:	30424000 	andi	v0,v0,0x4000
9d0023c4:	1440fffc 	bnez	v0,9d0023b8 <writeToI2C+0x98>
9d0023c8:	00000000 	nop
        if (I2C2STAT & 0x00008000) return 0x00000000;  //Leave the function early, the acknowledge bit was not received from the slave device
9d0023cc:	3c02bf80 	lui	v0,0xbf80
9d0023d0:	8c425110 	lw	v0,20752(v0)
9d0023d4:	30428000 	andi	v0,v0,0x8000
9d0023d8:	10400004 	beqz	v0,9d0023ec <writeToI2C+0xcc>
9d0023dc:	00000000 	nop
9d0023e0:	00001025 	move	v0,zero
9d0023e4:	10000010 	b	9d002428 <writeToI2C+0x108>
9d0023e8:	00000000 	nop
    while (length--)
9d0023ec:	8fa20008 	lw	v0,8(sp)
9d0023f0:	2443ffff 	addiu	v1,v0,-1
9d0023f4:	afa30008 	sw	v1,8(sp)
9d0023f8:	1440ffe7 	bnez	v0,9d002398 <writeToI2C+0x78>
9d0023fc:	00000000 	nop
    I2C2CONSET = 0x00000004;       //Generate a stop condition on the I2C bus, this signals the end of the transmission to the slave device
9d002400:	3c02bf80 	lui	v0,0xbf80
9d002404:	24030004 	li	v1,4
9d002408:	ac435108 	sw	v1,20744(v0)
    while (I2C2CON & 0x00000004);  //Wait until the stop condition is done sending
9d00240c:	00000000 	nop
9d002410:	3c02bf80 	lui	v0,0xbf80
9d002414:	8c425100 	lw	v0,20736(v0)
9d002418:	30420004 	andi	v0,v0,0x4
9d00241c:	1440fffc 	bnez	v0,9d002410 <writeToI2C+0xf0>
9d002420:	00000000 	nop
    return 0xFFFFFFFF;  //Return a non-zero value to indicate a successful transmission
9d002424:	2402ffff 	li	v0,-1
}
9d002428:	03e00008 	jr	ra
9d00242c:	00000000 	nop

Disassembly of section .text.getMeasurementsFromMeasureReportPacket:

9d002430 <getMeasurementsFromMeasureReportPacket>:
 ********************/


//Get Measurements From Measure Report Packet Function, extracts the measurement data from the provided packet into the provided pointers
void getMeasurementsFromMeasureReportPacket(const packetMeasureReport_t *packetBuffer, float *temperature, float *humidity, float *pressure)
{
9d002430:	27bdffe0 	addiu	sp,sp,-32
9d002434:	afbf001c 	sw	ra,28(sp)
9d002438:	afa40020 	sw	a0,32(sp)
9d00243c:	afa50024 	sw	a1,36(sp)
9d002440:	afa60028 	sw	a2,40(sp)
9d002444:	afa7002c 	sw	a3,44(sp)
    uint32_t dataBuffer = 0x00000000;  //Create a temporary 32-bit signed variable to use for data manipulation while parsing the payload
9d002448:	afa00010 	sw	zero,16(sp)

    //Extract the temperature value from the payload
    dataBuffer = (packetBuffer->reportedTempMSB << 0x00000008) | packetBuffer->reportedTempLSB;  //Combine both the reported MSB and LSB temperature bytes into a single 32-bit value
9d00244c:	8fa20020 	lw	v0,32(sp)
9d002450:	90420005 	lbu	v0,5(v0)
9d002454:	00021200 	sll	v0,v0,0x8
9d002458:	8fa30020 	lw	v1,32(sp)
9d00245c:	90630006 	lbu	v1,6(v1)
9d002460:	00431025 	or	v0,v0,v1
9d002464:	afa20010 	sw	v0,16(sp)
    *temperature = (float) ((int16_t) dataBuffer) / 100.0F;                                                  //Write the obtained temperature value into the provided pointer, dividing the value by 100
9d002468:	8fa20010 	lw	v0,16(sp)
9d00246c:	7c021620 	seh	v0,v0
9d002470:	00402025 	move	a0,v0
9d002474:	0f400db3 	jal	9d0036cc <__floatsisf>
9d002478:	00000000 	nop
9d00247c:	00401825 	move	v1,v0
9d002480:	3c029d00 	lui	v0,0x9d00
9d002484:	8c453a94 	lw	a1,14996(v0)
9d002488:	00602025 	move	a0,v1
9d00248c:	0f400413 	jal	9d00104c <__divsf3>
9d002490:	00000000 	nop
9d002494:	00401825 	move	v1,v0
9d002498:	8fa20024 	lw	v0,36(sp)
9d00249c:	ac430000 	sw	v1,0(v0)

    //Extract the humidity from the payload
    *humidity = packetBuffer->reportedRH;  //Copy the reported relative humidity into the provided pointer that represents the humidity value
9d0024a0:	8fa20020 	lw	v0,32(sp)
9d0024a4:	90420007 	lbu	v0,7(v0)
9d0024a8:	00402025 	move	a0,v0
9d0024ac:	0f400e0b 	jal	9d00382c <__floatunsisf>
9d0024b0:	00000000 	nop
9d0024b4:	00401825 	move	v1,v0
9d0024b8:	8fa20028 	lw	v0,40(sp)
9d0024bc:	ac430000 	sw	v1,0(v0)

    //Extract the barometric pressure value into the payload
    dataBuffer = packetBuffer->reportedPresHSB;   //Copy the HSB of the reported pressure value into the dataBuffer variable
9d0024c0:	8fa20020 	lw	v0,32(sp)
9d0024c4:	90420008 	lbu	v0,8(v0)
9d0024c8:	afa20010 	sw	v0,16(sp)
    dataBuffer <<= 0x00000008;                    //Shift the contents of dataBuffer over to the left by 8 bits
9d0024cc:	8fa20010 	lw	v0,16(sp)
9d0024d0:	00021200 	sll	v0,v0,0x8
9d0024d4:	afa20010 	sw	v0,16(sp)
    dataBuffer |= packetBuffer->reportedPresMSB;  //OR the contents of the reported pressure MSB into dataBuffer
9d0024d8:	8fa20020 	lw	v0,32(sp)
9d0024dc:	90420009 	lbu	v0,9(v0)
9d0024e0:	00401825 	move	v1,v0
9d0024e4:	8fa20010 	lw	v0,16(sp)
9d0024e8:	00431025 	or	v0,v0,v1
9d0024ec:	afa20010 	sw	v0,16(sp)
    dataBuffer <<= 0x00000008;                    //Shift the contents of dataBuffer over to the left by 8 bits
9d0024f0:	8fa20010 	lw	v0,16(sp)
9d0024f4:	00021200 	sll	v0,v0,0x8
9d0024f8:	afa20010 	sw	v0,16(sp)
    dataBuffer |= packetBuffer->reportedPresLSB;  //OR the final byte of the reported pressure into dataBuffer
9d0024fc:	8fa20020 	lw	v0,32(sp)
9d002500:	9042000a 	lbu	v0,10(v0)
9d002504:	00401825 	move	v1,v0
9d002508:	8fa20010 	lw	v0,16(sp)
9d00250c:	00431025 	or	v0,v0,v1
9d002510:	afa20010 	sw	v0,16(sp)
    *pressure = dataBuffer;                       //Convert dataBuffer into a float and then write it into the provided barometric pressure pointer
9d002514:	8fa40010 	lw	a0,16(sp)
9d002518:	0f400e0b 	jal	9d00382c <__floatunsisf>
9d00251c:	00000000 	nop
9d002520:	00401825 	move	v1,v0
9d002524:	8fa2002c 	lw	v0,44(sp)
9d002528:	ac430000 	sw	v1,0(v0)
}
9d00252c:	00000000 	nop
9d002530:	8fbf001c 	lw	ra,28(sp)
9d002534:	27bd0020 	addiu	sp,sp,32
9d002538:	03e00008 	jr	ra
9d00253c:	00000000 	nop

Disassembly of section .text.setupExternals:

9d002540 <setupExternals>:

//Setup Devices Function, configures any externally connected hardware devices with the correct settings needed for the application to work
inline void setupExternals()
{
9d002540:	27bdffd8 	addiu	sp,sp,-40
9d002544:	afbf0024 	sw	ra,36(sp)
    uint32_t counter = 0x0000FFFF;  //Create a counter variable to use for delay loops during the setup process
9d002548:	3402ffff 	li	v0,0xffff
9d00254c:	afa20018 	sw	v0,24(sp)

    //Initialize the radio module
    initializeSX1231H(FSK_F_BT10);
9d002550:	24040001 	li	a0,1
9d002554:	0f400a8c 	jal	9d002a30 <initializeSX1231H>
9d002558:	00000000 	nop
    setCarrierFreqSX1231H(configRadioCarrier);
9d00255c:	3c0219ce 	lui	v0,0x19ce
9d002560:	34424af0 	ori	v0,v0,0x4af0
9d002564:	00402025 	move	a0,v0
9d002568:	0f400a60 	jal	9d002980 <setCarrierFreqSX1231H>
9d00256c:	00000000 	nop
    setBitRateSX1231H(configRadioBitrate);
9d002570:	24020960 	li	v0,2400
9d002574:	00402025 	move	a0,v0
9d002578:	0f400c3c 	jal	9d0030f0 <setBitRateSX1231H>
9d00257c:	00000000 	nop
    setFreqDeviationSX1231H(configRadioBitrate * 2);
9d002580:	24020960 	li	v0,2400
9d002584:	00021040 	sll	v0,v0,0x1
9d002588:	00402025 	move	a0,v0
9d00258c:	0f400bce 	jal	9d002f38 <setFreqDeviationSX1231H>
9d002590:	00000000 	nop
    setPowerLevelSX1231H(0x00000001);
9d002594:	24040001 	li	a0,1
9d002598:	0f400822 	jal	9d002088 <setPowerLevelSX1231H>
9d00259c:	00000000 	nop

    counter = 0x0000FFFF;
9d0025a0:	3402ffff 	li	v0,0xffff
9d0025a4:	afa20018 	sw	v0,24(sp)

    //Initialize the LCD display
    initializeSSD1803A(VIEW_BOTTOM, LINES_2, BIAS_6TH, IR1);  //Send the desired operating configuration to the LCD controller chipset
9d0025a8:	24070069 	li	a3,105
9d0025ac:	24060003 	li	a2,3
9d0025b0:	24050019 	li	a1,25
9d0025b4:	24040006 	li	a0,6
9d0025b8:	0f400528 	jal	9d0014a0 <initializeSSD1803A>
9d0025bc:	00000000 	nop
//    setContrastSSD1803A(0x0000003F);                                                //Set the LCDs contrast

    while (counter--);  //Wait a little bit before handling the barometric pressure sensor, she's a little bit sensitive
9d0025c0:	00000000 	nop
9d0025c4:	8fa20018 	lw	v0,24(sp)
9d0025c8:	2443ffff 	addiu	v1,v0,-1
9d0025cc:	afa30018 	sw	v1,24(sp)
9d0025d0:	1440fffc 	bnez	v0,9d0025c4 <setupExternals+0x84>
9d0025d4:	00000000 	nop
    

    //Put the barometric pressure sensor into the desired operating mode
    initializeDPS368(OVERSAMPLE_32, BACKGROUND_1HZ, OVERSAMPLE_8, BACKGROUND_1HZ, 0x00000000);  //Send the desired operating configuration to the DPS368 pressure sensor
9d0025d8:	afa00010 	sw	zero,16(sp)
9d0025dc:	00003825 	move	a3,zero
9d0025e0:	24060003 	li	a2,3
9d0025e4:	00002825 	move	a1,zero
9d0025e8:	24040005 	li	a0,5
9d0025ec:	0f4005af 	jal	9d0016bc <initializeDPS368>
9d0025f0:	00000000 	nop

    counter = 0x000000FF;  //Alow a maximum of 255 attempts when trying to read the calibration data from the pressure sensor
9d0025f4:	240200ff 	li	v0,255
9d0025f8:	afa20018 	sw	v0,24(sp)

    //Attempt to load the calibration data from the sensor
    while (counter--)
9d0025fc:	10000005 	b	9d002614 <setupExternals+0xd4>
9d002600:	00000000 	nop
    {
        if (readCalCoeffsDPS368()) break;  //Break the loop when the calibration data is read from the sensor
9d002604:	0f4002b8 	jal	9d000ae0 <readCalCoeffsDPS368>
9d002608:	00000000 	nop
9d00260c:	14400008 	bnez	v0,9d002630 <setupExternals+0xf0>
9d002610:	00000000 	nop
    while (counter--)
9d002614:	8fa20018 	lw	v0,24(sp)
9d002618:	2443ffff 	addiu	v1,v0,-1
9d00261c:	afa30018 	sw	v1,24(sp)
9d002620:	1440fff8 	bnez	v0,9d002604 <setupExternals+0xc4>
9d002624:	00000000 	nop
    }
}
9d002628:	10000002 	b	9d002634 <setupExternals+0xf4>
9d00262c:	00000000 	nop
	...
9d002638:	8fbf0024 	lw	ra,36(sp)
9d00263c:	27bd0028 	addiu	sp,sp,40
9d002640:	03e00008 	jr	ra
9d002644:	00000000 	nop

Disassembly of section .text.main:

9d002648 <main>:

//Main Function, called upon reset of the MCU
void main()
{
9d002648:	27bdffe0 	addiu	sp,sp,-32
9d00264c:	afbf001c 	sw	ra,28(sp)
    setupMCU();               //Configure the main functionality of the microcontroller for the application
9d002650:	0f4007c8 	jal	9d001f20 <setupMCU>
9d002654:	00000000 	nop
    setupExternals();         //Configure the external hardware devices for the application
9d002658:	0f400950 	jal	9d002540 <setupExternals>
9d00265c:	00000000 	nop
    initializeApplication();  //Setup the application threads and state machines to begin program execution
9d002660:	0f400e9e 	jal	9d003a78 <initializeApplication>
9d002664:	00000000 	nop

    putCursorSSD1803A(0x00000000);
9d002668:	0f400d82 	jal	9d003608 <putCursorSSD1803A>
9d00266c:	00002025 	move	a0,zero
    printStringSSD1803A("yea lol", 0x00000007);
9d002670:	24050007 	li	a1,7
9d002674:	3c029d00 	lui	v0,0x9d00
9d002678:	0f400b32 	jal	9d002cc8 <printStringSSD1803A>
9d00267c:	24443b00 	addiu	a0,v0,15104
    putCursorSSD1803A(0x00000020);
9d002680:	0f400d82 	jal	9d003608 <putCursorSSD1803A>
9d002684:	24040020 	li	a0,32
    printStringSSD1803A("lol", 0x00000003);
9d002688:	24050003 	li	a1,3
9d00268c:	3c029d00 	lui	v0,0x9d00
9d002690:	0f400b32 	jal	9d002cc8 <printStringSSD1803A>
9d002694:	24443b08 	addiu	a0,v0,15112
    
    //Infinite loop of death mwuahahaha
    while (0xFFFFFFFF)
    {

        sensorFunctionTable[sensorThreadState]();  //Invoke the handler function for the sensor thread located at the given index of the sensor lookup table
9d002698:	8f838038 	lw	v1,-32712(gp)
9d00269c:	3c02a000 	lui	v0,0xa000
9d0026a0:	00031880 	sll	v1,v1,0x2
9d0026a4:	24420040 	addiu	v0,v0,64
9d0026a8:	00621021 	addu	v0,v1,v0
9d0026ac:	8c420000 	lw	v0,0(v0)
9d0026b0:	0040f809 	jalr	v0
9d0026b4:	00000000 	nop
        radioFunctionTable[radioThreadState]();    //Invoke the handler function for the radio thread located at the given index of the radio lookup table
9d0026b8:	8f83803c 	lw	v1,-32708(gp)
9d0026bc:	3c02a000 	lui	v0,0xa000
9d0026c0:	00031880 	sll	v1,v1,0x2
9d0026c4:	24420058 	addiu	v0,v0,88
9d0026c8:	00621021 	addu	v0,v1,v0
9d0026cc:	8c420000 	lw	v0,0(v0)
9d0026d0:	0040f809 	jalr	v0
9d0026d4:	00000000 	nop

        uint32_t sleepEnabled = !(sensorThreadState | radioThreadState);        //Determine if all the threads are in their respective SLEEP modes
9d0026d8:	8f838038 	lw	v1,-32712(gp)
9d0026dc:	8f82803c 	lw	v0,-32708(gp)
9d0026e0:	00621025 	or	v0,v1,v0
9d0026e4:	2c420001 	sltiu	v0,v0,1
9d0026e8:	304200ff 	andi	v0,v0,0xff
9d0026ec:	afa20010 	sw	v0,16(sp)
        allowSleepMode(sleepEnabled);  //Enable/Disable the use of sleep-mode on the MCU where appropriate
9d0026f0:	0f400c5c 	jal	9d003170 <allowSleepMode>
9d0026f4:	8fa40010 	lw	a0,16(sp)

        uint32_t noWait = sensorThreadState + (radioThreadState & 0xFFFFFFFE);  //Combine all the thread states together excluding IDLE bits
9d0026f8:	8f82803c 	lw	v0,-32708(gp)
9d0026fc:	7c020004 	ins	v0,zero,0x0,0x1
9d002700:	00401825 	move	v1,v0
9d002704:	8f828038 	lw	v0,-32712(gp)
9d002708:	00621021 	addu	v0,v1,v0
9d00270c:	afa20014 	sw	v0,20(sp)
        if (!noWait) asm volatile ("wait");                                     //Invoke the WAIT instruction on the CPU
9d002710:	8fa20014 	lw	v0,20(sp)
9d002714:	1440ffe0 	bnez	v0,9d002698 <main+0x50>
9d002718:	00000000 	nop
9d00271c:	42000020 	wait
    {
9d002720:	1000ffdd 	b	9d002698 <main+0x50>
9d002724:	00000000 	nop

Disassembly of section .text.general_exception:

9d002728 <_general_exception_context>:
9d002728:	27bdffa8 	addiu	sp,sp,-88
9d00272c:	afa10004 	sw	at,4(sp)
9d002730:	afa20008 	sw	v0,8(sp)
9d002734:	afa3000c 	sw	v1,12(sp)
9d002738:	afa40010 	sw	a0,16(sp)
9d00273c:	afa50014 	sw	a1,20(sp)
9d002740:	afa60018 	sw	a2,24(sp)
9d002744:	afa7001c 	sw	a3,28(sp)
9d002748:	afa80020 	sw	t0,32(sp)
9d00274c:	afa90024 	sw	t1,36(sp)
9d002750:	afaa0028 	sw	t2,40(sp)
9d002754:	afab002c 	sw	t3,44(sp)
9d002758:	afac0030 	sw	t4,48(sp)
9d00275c:	afad0034 	sw	t5,52(sp)
9d002760:	afae0038 	sw	t6,56(sp)
9d002764:	afaf003c 	sw	t7,60(sp)
9d002768:	afb80040 	sw	t8,64(sp)
9d00276c:	afb90044 	sw	t9,68(sp)
9d002770:	afbf0048 	sw	ra,72(sp)
9d002774:	00004012 	mflo	t0
9d002778:	afa8004c 	sw	t0,76(sp)
9d00277c:	00004010 	mfhi	t0
9d002780:	afa80050 	sw	t0,80(sp)
9d002784:	3c1a9d00 	lui	k0,0x9d00
9d002788:	275a38bc 	addiu	k0,k0,14524
9d00278c:	00000000 	nop
9d002790:	40046800 	mfc0	a0,c0_cause
9d002794:	40056000 	mfc0	a1,c0_status
9d002798:	0340f809 	jalr	k0
9d00279c:	00000000 	nop
9d0027a0:	8fa80050 	lw	t0,80(sp)
9d0027a4:	01000011 	mthi	t0
9d0027a8:	8fa8004c 	lw	t0,76(sp)
9d0027ac:	01000013 	mtlo	t0
9d0027b0:	8fa10004 	lw	at,4(sp)
9d0027b4:	8fa20008 	lw	v0,8(sp)
9d0027b8:	8fa3000c 	lw	v1,12(sp)
9d0027bc:	8fa40010 	lw	a0,16(sp)
9d0027c0:	8fa50014 	lw	a1,20(sp)
9d0027c4:	8fa60018 	lw	a2,24(sp)
9d0027c8:	8fa7001c 	lw	a3,28(sp)
9d0027cc:	8fa80020 	lw	t0,32(sp)
9d0027d0:	8fa90024 	lw	t1,36(sp)
9d0027d4:	8faa0028 	lw	t2,40(sp)
9d0027d8:	8fab002c 	lw	t3,44(sp)
9d0027dc:	8fac0030 	lw	t4,48(sp)
9d0027e0:	8fad0034 	lw	t5,52(sp)
9d0027e4:	8fae0038 	lw	t6,56(sp)
9d0027e8:	8faf003c 	lw	t7,60(sp)
9d0027ec:	8fb80040 	lw	t8,64(sp)
9d0027f0:	8fb90044 	lw	t9,68(sp)
9d0027f4:	8fbf0048 	lw	ra,72(sp)
9d0027f8:	27bd0058 	addiu	sp,sp,88
9d0027fc:	000000c0 	ehb
9d002800:	42000018 	eret

Disassembly of section .text.convertToRHFromSHT4X:

9d002804 <convertToRHFromSHT4X>:
    return ((float) *rawSensorValue / 65535.0F * 315.0F) - -49.0F;  //Calculate the temperature in Fahrenheit
}

//Convert To Relative Humidity From SHT4X, returns the relative humidity in % from the provided raw SHT4X sensor data
float convertToRHFromSHT4X(const uint16_t *rawSensorValue)
{
9d002804:	27bdffe0 	addiu	sp,sp,-32
9d002808:	afbf001c 	sw	ra,28(sp)
9d00280c:	afa40020 	sw	a0,32(sp)
    float returnValue = ((float) *rawSensorValue / 65535.0F * 125.0F) - 6.0F;  //Calculate the actual humidity as a percentage
9d002810:	8fa20020 	lw	v0,32(sp)
9d002814:	94420000 	lhu	v0,0(v0)
9d002818:	00402025 	move	a0,v0
9d00281c:	0f400e0b 	jal	9d00382c <__floatunsisf>
9d002820:	00000000 	nop
9d002824:	00401825 	move	v1,v0
9d002828:	3c029d00 	lui	v0,0x9d00
9d00282c:	8c453a18 	lw	a1,14872(v0)
9d002830:	00602025 	move	a0,v1
9d002834:	0f400413 	jal	9d00104c <__divsf3>
9d002838:	00000000 	nop
9d00283c:	00401825 	move	v1,v0
9d002840:	3c029d00 	lui	v0,0x9d00
9d002844:	8c453a2c 	lw	a1,14892(v0)
9d002848:	00602025 	move	a0,v1
9d00284c:	0f400630 	jal	9d0018c0 <__mulsf3>
9d002850:	00000000 	nop
9d002854:	00401825 	move	v1,v0
9d002858:	3c029d00 	lui	v0,0x9d00
9d00285c:	8c453a30 	lw	a1,14896(v0)
9d002860:	00602025 	move	a0,v1
9d002864:	0f400375 	jal	9d000dd4 <__subsf3>
9d002868:	00000000 	nop
9d00286c:	afa20010 	sw	v0,16(sp)
    if (returnValue > 100) returnValue = 100;  //Bound the calculated relative humidity to an upper limit of 100% RH
9d002870:	3c029d00 	lui	v0,0x9d00
9d002874:	8c453a34 	lw	a1,14900(v0)
9d002878:	8fa40010 	lw	a0,16(sp)
9d00287c:	0f400b80 	jal	9d002e00 <__eqsf2>
9d002880:	00000000 	nop
9d002884:	18400004 	blez	v0,9d002898 <convertToRHFromSHT4X+0x94>
9d002888:	00000000 	nop
9d00288c:	3c029d00 	lui	v0,0x9d00
9d002890:	8c423a34 	lw	v0,14900(v0)
9d002894:	afa20010 	sw	v0,16(sp)
    if (returnValue < 0) returnValue = 0;      //Bound the calculated relative humidity to a lower limit of 0% RH
9d002898:	00002825 	move	a1,zero
9d00289c:	8fa40010 	lw	a0,16(sp)
9d0028a0:	0f400ba7 	jal	9d002e9c <fpcmplt>
9d0028a4:	00000000 	nop
9d0028a8:	04410003 	bgez	v0,9d0028b8 <convertToRHFromSHT4X+0xb4>
9d0028ac:	00000000 	nop
9d0028b0:	00001025 	move	v0,zero
9d0028b4:	afa20010 	sw	v0,16(sp)

    return returnValue;  //Return the calculated relative humidity
9d0028b8:	8fa20010 	lw	v0,16(sp)
}
9d0028bc:	8fbf001c 	lw	ra,28(sp)
9d0028c0:	27bd0020 	addiu	sp,sp,32
9d0028c4:	03e00008 	jr	ra
9d0028c8:	00000000 	nop

Disassembly of section .text.dma2ISR:

9d0028cc <dma2ISR>:
    sensorThreadState = SENSOR_START_MEASUREMENTS;  //Begin a new measurement by putting the sensor thread into the SENSOR_START_MEASUREMENTS state
}

//DMA Channel 2 Interrupt Handler Function, called when DMA2 aborts or finishes transferring a block of data
void __ISR(_DMA_2_VECTOR, IPL2SOFT) dma2ISR()
{
9d0028cc:	415de800 	rdpgpr	sp,sp
9d0028d0:	401a7000 	mfc0	k0,c0_epc
9d0028d4:	401b6000 	mfc0	k1,c0_status
9d0028d8:	27bdffe0 	addiu	sp,sp,-32
9d0028dc:	afba001c 	sw	k0,28(sp)
9d0028e0:	401a6002 	mfc0	k0,c0_srsctl
9d0028e4:	afbb0018 	sw	k1,24(sp)
9d0028e8:	afba0014 	sw	k0,20(sp)
9d0028ec:	7c1b7844 	ins	k1,zero,0x1,0xf
9d0028f0:	377b0800 	ori	k1,k1,0x800
9d0028f4:	409b6000 	mtc0	k1,c0_status
9d0028f8:	afbe000c 	sw	s8,12(sp)
9d0028fc:	afb10008 	sw	s1,8(sp)
9d002900:	afb00004 	sw	s0,4(sp)
9d002904:	afa30000 	sw	v1,0(sp)
9d002908:	03a0f025 	move	s8,sp
    IFS1CLR = 0x40000000;  //Clear the DMA 2 interrupt flag
9d00290c:	3c10bf88 	lui	s0,0xbf88
9d002910:	3c114000 	lui	s1,0x4000
9d002914:	ae111044 	sw	s1,4164(s0)

    //Not sure I've done this, but it doesn't to behave correctly without this /shrug
    DCH2INT = 0x00080000;           //Clear the interrupts flags for DMA 2 itself
9d002918:	3c10bf88 	lui	s0,0xbf88
9d00291c:	3c110008 	lui	s1,0x8
9d002920:	ae113200 	sw	s1,12800(s0)
    while (!(U2STA & 0x00000100));  //Wait until the transmission has completed fully before leaving
9d002924:	00000000 	nop
9d002928:	3c10bf80 	lui	s0,0xbf80
9d00292c:	8e106210 	lw	s0,25104(s0)
9d002930:	32100100 	andi	s0,s0,0x100
9d002934:	1200fffc 	beqz	s0,9d002928 <dma2ISR+0x5c>
9d002938:	00000000 	nop
}
9d00293c:	00000000 	nop
9d002940:	03c0e825 	move	sp,s8
9d002944:	8fbe000c 	lw	s8,12(sp)
9d002948:	8fb10008 	lw	s1,8(sp)
9d00294c:	8fb00004 	lw	s0,4(sp)
9d002950:	8fa30000 	lw	v1,0(sp)
9d002954:	41606000 	di
9d002958:	000000c0 	ehb
9d00295c:	8fba001c 	lw	k0,28(sp)
9d002960:	8fbb0018 	lw	k1,24(sp)
9d002964:	409a7000 	mtc0	k0,c0_epc
9d002968:	8fba0014 	lw	k0,20(sp)
9d00296c:	27bd0020 	addiu	sp,sp,32
9d002970:	409a6002 	mtc0	k0,c0_srsctl
9d002974:	41dde800 	wrpgpr	sp,sp
9d002978:	409b6000 	mtc0	k1,c0_status
9d00297c:	42000018 	eret

Disassembly of section .text.setCarrierFreqSX1231H:

9d002980 <setCarrierFreqSX1231H>:
{
9d002980:	27bdffd8 	addiu	sp,sp,-40
9d002984:	afbf0024 	sw	ra,36(sp)
9d002988:	afa40028 	sw	a0,40(sp)
    float calculatedFrequency = (float) freqRF / SX1231H_F_STEP;  //Calculate the value of Frf to provide the transceiver IC to achieve the desired carrier frequency
9d00298c:	8fa40028 	lw	a0,40(sp)
9d002990:	0f400e0b 	jal	9d00382c <__floatunsisf>
9d002994:	00000000 	nop
9d002998:	00401825 	move	v1,v0
9d00299c:	3c029d00 	lui	v0,0x9d00
9d0029a0:	8c453a50 	lw	a1,14928(v0)
9d0029a4:	00602025 	move	a0,v1
9d0029a8:	0f400413 	jal	9d00104c <__divsf3>
9d0029ac:	00000000 	nop
9d0029b0:	afa20010 	sw	v0,16(sp)
    uint32_t regFrfValue = calculatedFrequency;                   //Force cast the calculated value into an unsigned 32-bit integer to make byte separation easier
9d0029b4:	8fa40010 	lw	a0,16(sp)
9d0029b8:	0f400cbb 	jal	9d0032ec <__fixunssfsi>
9d0029bc:	00000000 	nop
9d0029c0:	afa20014 	sw	v0,20(sp)
    registerValues[0x00000002] = regFrfValue & 0x000000FF;  //Write the first 8 bits of regFrfValue into the 3rd element of the registerValues array
9d0029c4:	8fa20014 	lw	v0,20(sp)
9d0029c8:	304200ff 	andi	v0,v0,0xff
9d0029cc:	a3a2001a 	sb	v0,26(sp)
    regFrfValue >>= 0x00000008;                             //Shift the contents of regFrfValue to the right by 8 bits
9d0029d0:	8fa20014 	lw	v0,20(sp)
9d0029d4:	00021202 	srl	v0,v0,0x8
9d0029d8:	afa20014 	sw	v0,20(sp)
    registerValues[0x00000001] = regFrfValue & 0x000000FF;  //Write the next 8 bits of regFrfValue into the 2nd element of the registerValues array
9d0029dc:	8fa20014 	lw	v0,20(sp)
9d0029e0:	304200ff 	andi	v0,v0,0xff
9d0029e4:	a3a20019 	sb	v0,25(sp)
    regFrfValue >>= 0x00000008;                             //Shift the contents of regFrfValue to the right by 8 bits
9d0029e8:	8fa20014 	lw	v0,20(sp)
9d0029ec:	00021202 	srl	v0,v0,0x8
9d0029f0:	afa20014 	sw	v0,20(sp)
    registerValues[0x00000000] = regFrfValue & 0x000000FF;  //Write the final 8 bits of the regFrfValue variable into the first index of the array
9d0029f4:	8fa20014 	lw	v0,20(sp)
9d0029f8:	304200ff 	andi	v0,v0,0xff
9d0029fc:	a3a20018 	sb	v0,24(sp)
    interactWithRegistersSX1231H(REGADDR_FRF_MSB, registerValues, 0x00000003, 0x00000000);  //Send the configuration bytes to the transceiver IC
9d002a00:	27a20018 	addiu	v0,sp,24
9d002a04:	00003825 	move	a3,zero
9d002a08:	24060003 	li	a2,3
9d002a0c:	00402825 	move	a1,v0
9d002a10:	24040007 	li	a0,7
9d002a14:	0f400875 	jal	9d0021d4 <interactWithRegistersSX1231H>
9d002a18:	00000000 	nop
}
9d002a1c:	00000000 	nop
9d002a20:	8fbf0024 	lw	ra,36(sp)
9d002a24:	27bd0028 	addiu	sp,sp,40
9d002a28:	03e00008 	jr	ra
9d002a2c:	00000000 	nop

Disassembly of section .text.initializeSX1231H:

9d002a30 <initializeSX1231H>:
{
9d002a30:	27bdffe0 	addiu	sp,sp,-32
9d002a34:	afbf001c 	sw	ra,28(sp)
9d002a38:	afa40020 	sw	a0,32(sp)
    configBytes[0x00000000] = 0x04;        //Put the transceiver into SLEEP mode by default
9d002a3c:	24020004 	li	v0,4
9d002a40:	a3a20010 	sb	v0,16(sp)
    configBytes[0x00000001] = modulation;  //Set the desired modulation scheme
9d002a44:	8fa20020 	lw	v0,32(sp)
9d002a48:	304200ff 	andi	v0,v0,0xff
9d002a4c:	a3a20011 	sb	v0,17(sp)
    interactWithRegistersSX1231H(0x00000001, configBytes, 0x00000002, 0x00000000);  //Send the configuration bytes to the transceiver IC with a starting address of 0x01 (RegOpMode)
9d002a50:	00003825 	move	a3,zero
9d002a54:	24060002 	li	a2,2
9d002a58:	27a20010 	addiu	v0,sp,16
9d002a5c:	00402825 	move	a1,v0
9d002a60:	24040001 	li	a0,1
9d002a64:	0f400875 	jal	9d0021d4 <interactWithRegistersSX1231H>
9d002a68:	00000000 	nop
    interactWithRegistersSX1231H(0x00000018, (uint8_t *) SX1231H_Init, 0x00000002, 0x00000000);  //Send the configuration bytes to the transceiver IC with a starting address of 0x18
9d002a6c:	00003825 	move	a3,zero
9d002a70:	24060002 	li	a2,2
9d002a74:	3c029d00 	lui	v0,0x9d00
9d002a78:	24453a38 	addiu	a1,v0,14904
9d002a7c:	24040018 	li	a0,24
9d002a80:	0f400875 	jal	9d0021d4 <interactWithRegistersSX1231H>
9d002a84:	00000000 	nop
    interactWithRegistersSX1231H(0x00000025, (uint8_t *) SX1231H_Init + 0x00000002, 0x00000002, 0x00000000);  //Send the configuration bytes to the transceiver IC with a starting address of 0x25
9d002a88:	3c029d00 	lui	v0,0x9d00
9d002a8c:	24423a3a 	addiu	v0,v0,14906
9d002a90:	00003825 	move	a3,zero
9d002a94:	24060002 	li	a2,2
9d002a98:	00402825 	move	a1,v0
9d002a9c:	24040025 	li	a0,37
9d002aa0:	0f400875 	jal	9d0021d4 <interactWithRegistersSX1231H>
9d002aa4:	00000000 	nop
    interactWithRegistersSX1231H(0x0000002C, (uint8_t *) SX1231H_Init + 0x00000004, 0x00000012, 0x00000000);  //Send the configuration bytes to the transceiver IC with a starting address of 0x2C
9d002aa8:	3c029d00 	lui	v0,0x9d00
9d002aac:	24423a3c 	addiu	v0,v0,14908
9d002ab0:	00003825 	move	a3,zero
9d002ab4:	24060012 	li	a2,18
9d002ab8:	00402825 	move	a1,v0
9d002abc:	2404002c 	li	a0,44
9d002ac0:	0f400875 	jal	9d0021d4 <interactWithRegistersSX1231H>
9d002ac4:	00000000 	nop
}
9d002ac8:	00000000 	nop
9d002acc:	8fbf001c 	lw	ra,28(sp)
9d002ad0:	27bd0020 	addiu	sp,sp,32
9d002ad4:	03e00008 	jr	ra
9d002ad8:	00000000 	nop

Disassembly of section .text.getResultsSHT4X:

9d002adc <getResultsSHT4X>:
{
9d002adc:	27bdffe0 	addiu	sp,sp,-32
9d002ae0:	afbf001c 	sw	ra,28(sp)
9d002ae4:	afa40020 	sw	a0,32(sp)
9d002ae8:	afa50024 	sw	a1,36(sp)
    if (!readFromI2C(SHT4X_I2C_ADDR, dataBuffer, 0x00000006, 0x00)) return 0x00000000;  //Attempt to read from the sensors FIFO buffer, exit the function with 0x00 if the sensor is non-responsive
9d002aec:	00003825 	move	a3,zero
9d002af0:	24060006 	li	a2,6
9d002af4:	27a20010 	addiu	v0,sp,16
9d002af8:	00402825 	move	a1,v0
9d002afc:	24040044 	li	a0,68
9d002b00:	0f40069f 	jal	9d001a7c <readFromI2C>
9d002b04:	00000000 	nop
9d002b08:	14400004 	bnez	v0,9d002b1c <getResultsSHT4X+0x40>
9d002b0c:	00000000 	nop
9d002b10:	00001025 	move	v0,zero
9d002b14:	10000016 	b	9d002b70 <getResultsSHT4X+0x94>
9d002b18:	00000000 	nop
    *rawTemperature = (dataBuffer[0x00000000] << 0x00000008) + dataBuffer[0x00000001];  //Consolidate the raw temperature measurement from the byte array obtained from the sensor
9d002b1c:	93a20010 	lbu	v0,16(sp)
9d002b20:	3042ffff 	andi	v0,v0,0xffff
9d002b24:	00021200 	sll	v0,v0,0x8
9d002b28:	3043ffff 	andi	v1,v0,0xffff
9d002b2c:	93a20011 	lbu	v0,17(sp)
9d002b30:	3042ffff 	andi	v0,v0,0xffff
9d002b34:	00621021 	addu	v0,v1,v0
9d002b38:	3043ffff 	andi	v1,v0,0xffff
9d002b3c:	8fa20020 	lw	v0,32(sp)
9d002b40:	a4430000 	sh	v1,0(v0)
    *rawHumidity = (dataBuffer[0x00000003] << 0x00000008) + dataBuffer[0x00000004];     //Consolidate the raw humidity measurement from the byte array obtained from the sensor
9d002b44:	93a20013 	lbu	v0,19(sp)
9d002b48:	3042ffff 	andi	v0,v0,0xffff
9d002b4c:	00021200 	sll	v0,v0,0x8
9d002b50:	3043ffff 	andi	v1,v0,0xffff
9d002b54:	93a20014 	lbu	v0,20(sp)
9d002b58:	3042ffff 	andi	v0,v0,0xffff
9d002b5c:	00621021 	addu	v0,v1,v0
9d002b60:	3043ffff 	andi	v1,v0,0xffff
9d002b64:	8fa20024 	lw	v0,36(sp)
9d002b68:	a4430000 	sh	v1,0(v0)
    return 0xFFFFFFFF;  //Indicate a successful FIFO read by returning 0xFF
9d002b6c:	2402ffff 	li	v0,-1
}
9d002b70:	8fbf001c 	lw	ra,28(sp)
9d002b74:	27bd0020 	addiu	sp,sp,32
9d002b78:	03e00008 	jr	ra
9d002b7c:	00000000 	nop

Disassembly of section .text.timer1PeriodMatchISR:

9d002b80 <timer1PeriodMatchISR>:
{
9d002b80:	415de800 	rdpgpr	sp,sp
9d002b84:	401a7000 	mfc0	k0,c0_epc
9d002b88:	401b6000 	mfc0	k1,c0_status
9d002b8c:	27bdffe0 	addiu	sp,sp,-32
9d002b90:	afba001c 	sw	k0,28(sp)
9d002b94:	401a6002 	mfc0	k0,c0_srsctl
9d002b98:	afbb0018 	sw	k1,24(sp)
9d002b9c:	afba0014 	sw	k0,20(sp)
9d002ba0:	7c1b7844 	ins	k1,zero,0x1,0xf
9d002ba4:	377b0c00 	ori	k1,k1,0xc00
9d002ba8:	409b6000 	mtc0	k1,c0_status
9d002bac:	afbe000c 	sw	s8,12(sp)
9d002bb0:	afb10008 	sw	s1,8(sp)
9d002bb4:	afb00004 	sw	s0,4(sp)
9d002bb8:	afa30000 	sw	v1,0(sp)
9d002bbc:	03a0f025 	move	s8,sp
    IFS0CLR = 0x00000010;  //Clear the Timer 1 interrupt flag
9d002bc0:	3c10bf88 	lui	s0,0xbf88
9d002bc4:	24110010 	li	s1,16
9d002bc8:	ae111034 	sw	s1,4148(s0)
    T1CONCLR = 0x00008000;              //Stop Timer 1 to prevent future unwanted interrupts
9d002bcc:	3c10bf80 	lui	s0,0xbf80
9d002bd0:	34118000 	li	s1,0x8000
9d002bd4:	ae110604 	sw	s1,1540(s0)
    radioThreadState = RADIO_START_RX;  //Put the radio back into RX mode by changing the radio threads state to RADIO_START_RX
9d002bd8:	24100004 	li	s0,4
9d002bdc:	af90803c 	sw	s0,-32708(gp)
}
9d002be0:	00000000 	nop
9d002be4:	03c0e825 	move	sp,s8
9d002be8:	8fbe000c 	lw	s8,12(sp)
9d002bec:	8fb10008 	lw	s1,8(sp)
9d002bf0:	8fb00004 	lw	s0,4(sp)
9d002bf4:	8fa30000 	lw	v1,0(sp)
9d002bf8:	41606000 	di
9d002bfc:	000000c0 	ehb
9d002c00:	8fba001c 	lw	k0,28(sp)
9d002c04:	8fbb0018 	lw	k1,24(sp)
9d002c08:	409a7000 	mtc0	k0,c0_epc
9d002c0c:	8fba0014 	lw	k0,20(sp)
9d002c10:	27bd0020 	addiu	sp,sp,32
9d002c14:	409a6002 	mtc0	k0,c0_srsctl
9d002c18:	41dde800 	wrpgpr	sp,sp
9d002c1c:	409b6000 	mtc0	k1,c0_status
9d002c20:	42000018 	eret

Disassembly of section .text.rtccAlarmISR:

9d002c24 <rtccAlarmISR>:
{
9d002c24:	415de800 	rdpgpr	sp,sp
9d002c28:	401a7000 	mfc0	k0,c0_epc
9d002c2c:	401b6000 	mfc0	k1,c0_status
9d002c30:	27bdffe0 	addiu	sp,sp,-32
9d002c34:	afba001c 	sw	k0,28(sp)
9d002c38:	401a6002 	mfc0	k0,c0_srsctl
9d002c3c:	afbb0018 	sw	k1,24(sp)
9d002c40:	afba0014 	sw	k0,20(sp)
9d002c44:	7c1b7844 	ins	k1,zero,0x1,0xf
9d002c48:	377b0800 	ori	k1,k1,0x800
9d002c4c:	409b6000 	mtc0	k1,c0_status
9d002c50:	afbe000c 	sw	s8,12(sp)
9d002c54:	afb10008 	sw	s1,8(sp)
9d002c58:	afb00004 	sw	s0,4(sp)
9d002c5c:	afa30000 	sw	v1,0(sp)
9d002c60:	03a0f025 	move	s8,sp
    IFS0CLR = 0x40000000;  //Clear the RTCC interrupt flag
9d002c64:	3c10bf88 	lui	s0,0xbf88
9d002c68:	3c114000 	lui	s1,0x4000
9d002c6c:	ae111034 	sw	s1,4148(s0)
    RTCCON = 0x00002208;                            //Stop and disable the RTCC now that we have woken up again
9d002c70:	3c10bf80 	lui	s0,0xbf80
9d002c74:	24112208 	li	s1,8712
9d002c78:	ae110200 	sw	s1,512(s0)
    sensorThreadState = SENSOR_START_MEASUREMENTS;  //Begin a new measurement by putting the sensor thread into the SENSOR_START_MEASUREMENTS state
9d002c7c:	24100001 	li	s0,1
9d002c80:	af908038 	sw	s0,-32712(gp)
}
9d002c84:	00000000 	nop
9d002c88:	03c0e825 	move	sp,s8
9d002c8c:	8fbe000c 	lw	s8,12(sp)
9d002c90:	8fb10008 	lw	s1,8(sp)
9d002c94:	8fb00004 	lw	s0,4(sp)
9d002c98:	8fa30000 	lw	v1,0(sp)
9d002c9c:	41606000 	di
9d002ca0:	000000c0 	ehb
9d002ca4:	8fba001c 	lw	k0,28(sp)
9d002ca8:	8fbb0018 	lw	k1,24(sp)
9d002cac:	409a7000 	mtc0	k0,c0_epc
9d002cb0:	8fba0014 	lw	k0,20(sp)
9d002cb4:	27bd0020 	addiu	sp,sp,32
9d002cb8:	409a6002 	mtc0	k0,c0_srsctl
9d002cbc:	41dde800 	wrpgpr	sp,sp
9d002cc0:	409b6000 	mtc0	k1,c0_status
9d002cc4:	42000018 	eret

Disassembly of section .text.printStringSSD1803A:

9d002cc8 <printStringSSD1803A>:
    return writeToI2C(SSD1803A_I2C_ADDR, outputBytes, 0x00000002);  //Try and send the byte sequence to the LCD controller and return the result
}

//Print String Function, prints the provided string to the LCD display
uint32_t printStringSSD1803A(uint8_t *string, uint32_t length)
{
9d002cc8:	27bdffe0 	addiu	sp,sp,-32
9d002ccc:	afbf001c 	sw	ra,28(sp)
9d002cd0:	afa40020 	sw	a0,32(sp)
9d002cd4:	afa50024 	sw	a1,36(sp)
    uint8_t outputBytes[0x00000002];           //Create a 2 byte long array to use for creating the sequence of bytes to send to the LCD controller
    uint8_t *byte = outputBytes + 0x00000001;  //Declare a pointer to the second byte in the ouptutBytes array
9d002cd8:	27a20014 	addiu	v0,sp,20
9d002cdc:	24420001 	addiu	v0,v0,1
9d002ce0:	afa20010 	sw	v0,16(sp)
    *outputBytes = 0xC0;                       //Set the first byte of the sequence to 0, this indicates the next byte will be an instruction
9d002ce4:	2402ffc0 	li	v0,-64
9d002ce8:	a3a20014 	sb	v0,20(sp)

    //Write each character from the provided string into the DDRAM on the LCD controller
    while (length--)
9d002cec:	10000013 	b	9d002d3c <printStringSSD1803A+0x74>
9d002cf0:	00000000 	nop
    {
        *byte = *string;  //Copy the next character from the provided string into the location of the byte pointer
9d002cf4:	8fa20020 	lw	v0,32(sp)
9d002cf8:	90430000 	lbu	v1,0(v0)
9d002cfc:	8fa20010 	lw	v0,16(sp)
9d002d00:	a0430000 	sb	v1,0(v0)
        string++;         //Increment the address of the string pointer by 1
9d002d04:	8fa20020 	lw	v0,32(sp)
9d002d08:	24420001 	addiu	v0,v0,1
9d002d0c:	afa20020 	sw	v0,32(sp)

        if (!writeToI2C(SSD1803A_I2C_ADDR, outputBytes, 0x00000002)) return 0x00000000;  //Send the character to the controller
9d002d10:	27a20014 	addiu	v0,sp,20
9d002d14:	24060002 	li	a2,2
9d002d18:	00402825 	move	a1,v0
9d002d1c:	2404003c 	li	a0,60
9d002d20:	0f4008c8 	jal	9d002320 <writeToI2C>
9d002d24:	00000000 	nop
9d002d28:	14400004 	bnez	v0,9d002d3c <printStringSSD1803A+0x74>
9d002d2c:	00000000 	nop
9d002d30:	00001025 	move	v0,zero
9d002d34:	10000007 	b	9d002d54 <printStringSSD1803A+0x8c>
9d002d38:	00000000 	nop
    while (length--)
9d002d3c:	8fa20024 	lw	v0,36(sp)
9d002d40:	2443ffff 	addiu	v1,v0,-1
9d002d44:	afa30024 	sw	v1,36(sp)
9d002d48:	1440ffea 	bnez	v0,9d002cf4 <printStringSSD1803A+0x2c>
9d002d4c:	00000000 	nop
    }

    return 0xFFFFFFFF;  //Return a value of true to indicate the operation completed successfully
9d002d50:	2402ffff 	li	v0,-1
}
9d002d54:	8fbf001c 	lw	ra,28(sp)
9d002d58:	27bd0020 	addiu	sp,sp,32
9d002d5c:	03e00008 	jr	ra
9d002d60:	00000000 	nop

Disassembly of section .text.portChangeNoticeISR:

9d002d64 <portChangeNoticeISR>:

//Priority 1 (Lowest)

//Port Change Notice Interrupt Handler Function, called when any of the 3 buttons or reed switch changes state
void __ISR(_CHANGE_NOTICE_VECTOR, IPL1SOFT) portChangeNoticeISR()
{
9d002d64:	415de800 	rdpgpr	sp,sp
9d002d68:	401a7000 	mfc0	k0,c0_epc
9d002d6c:	401b6000 	mfc0	k1,c0_status
9d002d70:	27bdffd8 	addiu	sp,sp,-40
9d002d74:	afba0024 	sw	k0,36(sp)
9d002d78:	401a6002 	mfc0	k0,c0_srsctl
9d002d7c:	afbb0020 	sw	k1,32(sp)
9d002d80:	afba001c 	sw	k0,28(sp)
9d002d84:	7c1b7844 	ins	k1,zero,0x1,0xf
9d002d88:	377b0400 	ori	k1,k1,0x400
9d002d8c:	409b6000 	mtc0	k1,c0_status
9d002d90:	afbe0014 	sw	s8,20(sp)
9d002d94:	afb10010 	sw	s1,16(sp)
9d002d98:	afb0000c 	sw	s0,12(sp)
9d002d9c:	afa30008 	sw	v1,8(sp)
9d002da0:	03a0f025 	move	s8,sp
    uint32_t statbBuffer = CNSTATB;  //Create a temp copy of the state of CNSTATB so that PORTB calls aren't changing CNSTATB for the next if statement
9d002da4:	3c10bf88 	lui	s0,0xbf88
9d002da8:	8e106190 	lw	s0,24976(s0)
9d002dac:	afd00000 	sw	s0,0(s8)
    IFS1CLR = 0x00002000;            //Clear Port Change Notice interrupt flag
9d002db0:	3c10bf88 	lui	s0,0xbf88
9d002db4:	24112000 	li	s1,8192
9d002db8:	ae111044 	sw	s1,4164(s0)

    //Do something here
9d002dbc:	00000000 	nop
9d002dc0:	03c0e825 	move	sp,s8
9d002dc4:	8fbe0014 	lw	s8,20(sp)
9d002dc8:	8fb10010 	lw	s1,16(sp)
9d002dcc:	8fb0000c 	lw	s0,12(sp)
9d002dd0:	8fa30008 	lw	v1,8(sp)
9d002dd4:	41606000 	di
9d002dd8:	000000c0 	ehb
9d002ddc:	8fba0024 	lw	k0,36(sp)
9d002de0:	8fbb0020 	lw	k1,32(sp)
9d002de4:	409a7000 	mtc0	k0,c0_epc
9d002de8:	8fba001c 	lw	k0,28(sp)
9d002dec:	27bd0028 	addiu	sp,sp,40
9d002df0:	409a6002 	mtc0	k0,c0_srsctl
9d002df4:	41dde800 	wrpgpr	sp,sp
9d002df8:	409b6000 	mtc0	k1,c0_status
9d002dfc:	42000018 	eret

Disassembly of section .text.fpcmp:

9d002e00 <__eqsf2>:
9d002e00:	2408fffe 00043040 00053840 00c74825     ...$@0..@8..%H..
9d002e10:	1120001b 00000000 3c01ff00 34210001     .. ........<..!4
9d002e20:	00c1082b 1020001a 00000000 3c01ff00     +..... ........<
9d002e30:	34210001 00e1082b 10200015 00000000     ..!4+..... .....
9d002e40:	04810002 00063042 00063023              ....B0..#0..

9d002e4c <i48>:
9d002e4c:	04a10002 	bgez	a1,9d002e58 <i49>
9d002e50:	00073842 	srl	a3,a3,0x1
9d002e54:	00073823 	negu	a3,a3

9d002e58 <i49>:
9d002e58:	00c7082a 	slt	at,a2,a3
9d002e5c:	10200003 	beqz	at,9d002e6c <i50>
9d002e60:	00000000 	nop
9d002e64:	10000007 	b	9d002e84 <J999>
9d002e68:	2402ffff 	li	v0,-1

9d002e6c <i50>:
9d002e6c:	00e6082a 	slt	at,a3,a2
9d002e70:	10200003 	beqz	at,9d002e80 <Jequ>
9d002e74:	00000000 	nop
9d002e78:	10000002 	b	9d002e84 <J999>
9d002e7c:	24020001 	li	v0,1

9d002e80 <Jequ>:
9d002e80:	24020000 	li	v0,0

9d002e84 <J999>:
9d002e84:	03e00008 	jr	ra
9d002e88:	00000000 	nop
9d002e8c:	00000000 	nop

9d002e90 <Jnan>:
9d002e90:	1000fffc 	b	9d002e84 <J999>
9d002e94:	00081025 	or	v0,zero,t0
9d002e98:	00000000 	nop

Disassembly of section .text.fpcmplt:

9d002e9c <fpcmplt>:
9d002e9c:	2408fffe 	li	t0,-2
9d002ea0:	00043040 	sll	a2,a0,0x1
9d002ea4:	00053840 	sll	a3,a1,0x1
9d002ea8:	00c74825 	or	t1,a2,a3
9d002eac:	1120001b 	beqz	t1,9d002f1c <fpcmplt+0x80>
9d002eb0:	00000000 	nop
9d002eb4:	3c01ff00 	lui	at,0xff00
9d002eb8:	34210001 	ori	at,at,0x1
9d002ebc:	00c1082b 	sltu	at,a2,at
9d002ec0:	1020001a 	beqz	at,9d002f2c <fpcmplt+0x90>
9d002ec4:	00000000 	nop
9d002ec8:	3c01ff00 	lui	at,0xff00
9d002ecc:	34210001 	ori	at,at,0x1
9d002ed0:	00e1082b 	sltu	at,a3,at
9d002ed4:	10200015 	beqz	at,9d002f2c <fpcmplt+0x90>
9d002ed8:	00000000 	nop
9d002edc:	04810002 	bgez	a0,9d002ee8 <fpcmplt+0x4c>
9d002ee0:	00063042 	srl	a2,a2,0x1
9d002ee4:	00063023 	negu	a2,a2
9d002ee8:	04a10002 	bgez	a1,9d002ef4 <fpcmplt+0x58>
9d002eec:	00073842 	srl	a3,a3,0x1
9d002ef0:	00073823 	negu	a3,a3
9d002ef4:	00c7082a 	slt	at,a2,a3
9d002ef8:	10200003 	beqz	at,9d002f08 <fpcmplt+0x6c>
9d002efc:	00000000 	nop
9d002f00:	10000007 	b	9d002f20 <fpcmplt+0x84>
9d002f04:	2402ffff 	li	v0,-1
9d002f08:	00e6082a 	slt	at,a3,a2
9d002f0c:	10200003 	beqz	at,9d002f1c <fpcmplt+0x80>
9d002f10:	00000000 	nop
9d002f14:	10000002 	b	9d002f20 <fpcmplt+0x84>
9d002f18:	24020001 	li	v0,1
9d002f1c:	24020000 	li	v0,0
9d002f20:	03e00008 	jr	ra
9d002f24:	00000000 	nop
9d002f28:	00000000 	nop
9d002f2c:	1000fffc 	b	9d002f20 <fpcmplt+0x84>
9d002f30:	34020001 	li	v0,0x1
9d002f34:	00000000 	nop

Disassembly of section .text.setFreqDeviationSX1231H:

9d002f38 <setFreqDeviationSX1231H>:
{
9d002f38:	27bdffd8 	addiu	sp,sp,-40
9d002f3c:	afbf0024 	sw	ra,36(sp)
9d002f40:	afa40028 	sw	a0,40(sp)
    float calculatedDeviation = (float) freqDev / SX1231H_F_STEP;  //Calculate the value of Fdev to provide to the transceiver to achieve the desired frequency deviation in FSK mode
9d002f44:	8fa40028 	lw	a0,40(sp)
9d002f48:	0f400e0b 	jal	9d00382c <__floatunsisf>
9d002f4c:	00000000 	nop
9d002f50:	00401825 	move	v1,v0
9d002f54:	3c029d00 	lui	v0,0x9d00
9d002f58:	8c453a50 	lw	a1,14928(v0)
9d002f5c:	00602025 	move	a0,v1
9d002f60:	0f400413 	jal	9d00104c <__divsf3>
9d002f64:	00000000 	nop
9d002f68:	afa20010 	sw	v0,16(sp)
    uint16_t regFdevValue = calculatedDeviation;                   //Force cast the calculated value into an unsigned 16-bit integer to make byte separation easier
9d002f6c:	8fa40010 	lw	a0,16(sp)
9d002f70:	0f400cbb 	jal	9d0032ec <__fixunssfsi>
9d002f74:	00000000 	nop
9d002f78:	a7a20014 	sh	v0,20(sp)
    registerValues[0x00000001] = regFdevValue & 0x000000FF;  //Write the first 8 bits of regFdevValue into the 2nd element of the registerValues array
9d002f7c:	97a20014 	lhu	v0,20(sp)
9d002f80:	304200ff 	andi	v0,v0,0xff
9d002f84:	a3a20019 	sb	v0,25(sp)
    regFdevValue >>= 0x00000008;                             //Shift the contents of regFdevValue to the right by 8 bits
9d002f88:	97a20014 	lhu	v0,20(sp)
9d002f8c:	00021202 	srl	v0,v0,0x8
9d002f90:	a7a20014 	sh	v0,20(sp)
    registerValues[0x00000000] = regFdevValue & 0x000000FF;  //Write the final 8 bits of the regFdev variable into the first index of the array
9d002f94:	97a20014 	lhu	v0,20(sp)
9d002f98:	304200ff 	andi	v0,v0,0xff
9d002f9c:	a3a20018 	sb	v0,24(sp)
    interactWithRegistersSX1231H(REGADDR_FDEV_MSB, registerValues, 0x00000002, 0x00000000);  //Send the configuration bytes to the transceiver IC
9d002fa0:	27a20018 	addiu	v0,sp,24
9d002fa4:	00003825 	move	a3,zero
9d002fa8:	24060002 	li	a2,2
9d002fac:	00402825 	move	a1,v0
9d002fb0:	24040005 	li	a0,5
9d002fb4:	0f400875 	jal	9d0021d4 <interactWithRegistersSX1231H>
9d002fb8:	00000000 	nop
}
9d002fbc:	00000000 	nop
9d002fc0:	8fbf0024 	lw	ra,36(sp)
9d002fc4:	27bd0028 	addiu	sp,sp,40
9d002fc8:	03e00008 	jr	ra
9d002fcc:	00000000 	nop

Disassembly of section .text.int4ISR:

9d002fd0 <int4ISR>:
{
9d002fd0:	415de800 	rdpgpr	sp,sp
9d002fd4:	401a7000 	mfc0	k0,c0_epc
9d002fd8:	401b6000 	mfc0	k1,c0_status
9d002fdc:	27bdffe0 	addiu	sp,sp,-32
9d002fe0:	afba001c 	sw	k0,28(sp)
9d002fe4:	401a6002 	mfc0	k0,c0_srsctl
9d002fe8:	afbb0018 	sw	k1,24(sp)
9d002fec:	afba0014 	sw	k0,20(sp)
9d002ff0:	7c1b7844 	ins	k1,zero,0x1,0xf
9d002ff4:	377b0c00 	ori	k1,k1,0xc00
9d002ff8:	409b6000 	mtc0	k1,c0_status
9d002ffc:	afbe000c 	sw	s8,12(sp)
9d003000:	afb10008 	sw	s1,8(sp)
9d003004:	afb00004 	sw	s0,4(sp)
9d003008:	afa30000 	sw	v1,0(sp)
9d00300c:	03a0f025 	move	s8,sp
    IFS0CLR = 0x00800000;  //Clear the INT4 interrupt flag
9d003010:	3c10bf88 	lui	s0,0xbf88
9d003014:	3c110080 	lui	s1,0x80
9d003018:	ae111034 	sw	s1,4148(s0)
    radioThreadState = RADIO_PROCESS_INTERRUPT;  //Handle the radio interrupt by putting the radio thread into the RADIO_PROCESS_INTERRUPT state
9d00301c:	24100002 	li	s0,2
9d003020:	af90803c 	sw	s0,-32708(gp)
}
9d003024:	00000000 	nop
9d003028:	03c0e825 	move	sp,s8
9d00302c:	8fbe000c 	lw	s8,12(sp)
9d003030:	8fb10008 	lw	s1,8(sp)
9d003034:	8fb00004 	lw	s0,4(sp)
9d003038:	8fa30000 	lw	v1,0(sp)
9d00303c:	41606000 	di
9d003040:	000000c0 	ehb
9d003044:	8fba001c 	lw	k0,28(sp)
9d003048:	8fbb0018 	lw	k1,24(sp)
9d00304c:	409a7000 	mtc0	k0,c0_epc
9d003050:	8fba0014 	lw	k0,20(sp)
9d003054:	27bd0020 	addiu	sp,sp,32
9d003058:	409a6002 	mtc0	k0,c0_srsctl
9d00305c:	41dde800 	wrpgpr	sp,sp
9d003060:	409b6000 	mtc0	k1,c0_status
9d003064:	42000018 	eret

Disassembly of section .text.setupInterrupts:

9d003068 <setupInterrupts>:
    asm volatile ("di");  //Disable global interrupts
9d003068:	41606000 	di
    INTCON = 0x00001010;  //Enable multi-vector interrupt modes
9d00306c:	3c02bf88 	lui	v0,0xbf88
9d003070:	24031010 	li	v1,4112
9d003074:	ac431000 	sw	v1,4096(v0)
    IFS0 = 0x00000000;  //Clear the entire IFS0 register to clear all interrupt flags
9d003078:	3c02bf88 	lui	v0,0xbf88
9d00307c:	ac401030 	sw	zero,4144(v0)
    IFS1 = 0x00000000;  //Clear the entire IFS1 register to clear all interrupt flags
9d003080:	3c02bf88 	lui	v0,0xbf88
9d003084:	ac401040 	sw	zero,4160(v0)
    IPC1 = 0x0000000C;   //Set the Timer 1 interrupt priority level to 3
9d003088:	3c02bf88 	lui	v0,0xbf88
9d00308c:	2403000c 	li	v1,12
9d003090:	ac4310a0 	sw	v1,4256(v0)
    IPC4 = 0x0C000000;   //Set the External Interrupt 4 priority level to 3
9d003094:	3c02bf88 	lui	v0,0xbf88
9d003098:	3c030c00 	lui	v1,0xc00
9d00309c:	ac4310d0 	sw	v1,4304(v0)
    IPC6 = 0x00000800;   //Set the RTCC interrupt priority level to 2
9d0030a0:	3c02bf88 	lui	v0,0xbf88
9d0030a4:	24030800 	li	v1,2048
9d0030a8:	ac4310f0 	sw	v1,4336(v0)
    IPC8 = 0x00040000;   //Set the Change Notice interrupt priority level to 1
9d0030ac:	3c02bf88 	lui	v0,0xbf88
9d0030b0:	3c030004 	lui	v1,0x4
9d0030b4:	ac431110 	sw	v1,4368(v0)
    IPC10 = 0x00080000;  //Set the DMA 2 interrupt priority level to 2
9d0030b8:	3c02bf88 	lui	v0,0xbf88
9d0030bc:	3c030008 	lui	v1,0x8
9d0030c0:	ac431130 	sw	v1,4400(v0)
    IEC0 = 0x40800010;  //Enable the Timer 1 period match, RTCC, and external interrupt 4
9d0030c4:	3c02bf88 	lui	v0,0xbf88
9d0030c8:	3c034080 	lui	v1,0x4080
9d0030cc:	34630010 	ori	v1,v1,0x10
9d0030d0:	ac431060 	sw	v1,4192(v0)
    IEC1 = 0x40000000;
9d0030d4:	3c02bf88 	lui	v0,0xbf88
9d0030d8:	3c034000 	lui	v1,0x4000
9d0030dc:	ac431070 	sw	v1,4208(v0)
    asm volatile ("ei");  //Enable global interrupts again
9d0030e0:	41606020 	ei
}
9d0030e4:	00000000 	nop
9d0030e8:	03e00008 	jr	ra
9d0030ec:	00000000 	nop

Disassembly of section .text.setBitRateSX1231H:

9d0030f0 <setBitRateSX1231H>:
{
9d0030f0:	27bdffe0 	addiu	sp,sp,-32
9d0030f4:	afbf001c 	sw	ra,28(sp)
9d0030f8:	afa40020 	sw	a0,32(sp)
    bitRate = SX1231H_F_XOSC / bitRate;  //Calculate the value to be written to the bit-rate registers in order to achieve the desired bit-rate
9d0030fc:	3c0201e8 	lui	v0,0x1e8
9d003100:	34434800 	ori	v1,v0,0x4800
9d003104:	8fa20020 	lw	v0,32(sp)
9d003108:	0062001b 	divu	zero,v1,v0
9d00310c:	004001f4 	teq	v0,zero,0x7
9d003110:	00001010 	mfhi	v0
9d003114:	00001012 	mflo	v0
9d003118:	afa20020 	sw	v0,32(sp)
    registerValues[0x00000001] = bitRate & 0x000000FF;  //Write the first 8-bits of the calculated bit-rate value into the 2nd element of the registerValues array
9d00311c:	8fa20020 	lw	v0,32(sp)
9d003120:	304200ff 	andi	v0,v0,0xff
9d003124:	a3a20011 	sb	v0,17(sp)
    bitRate >>= 0x00000008;                             //Shift the contents of the bitRate variable to the right by 8 bits
9d003128:	8fa20020 	lw	v0,32(sp)
9d00312c:	00021202 	srl	v0,v0,0x8
9d003130:	afa20020 	sw	v0,32(sp)
    registerValues[0x00000000] = bitRate & 0x000000FF;  //Write the remaining 8 bits of the calculated bit-rate value into the first index of the array
9d003134:	8fa20020 	lw	v0,32(sp)
9d003138:	304200ff 	andi	v0,v0,0xff
9d00313c:	a3a20010 	sb	v0,16(sp)
    interactWithRegistersSX1231H(REGADDR_BITRATE_MSB, registerValues, 0x00000002, 0x00000000);  //Send the configuration bytes to the transceiver IC
9d003140:	00003825 	move	a3,zero
9d003144:	24060002 	li	a2,2
9d003148:	27a20010 	addiu	v0,sp,16
9d00314c:	00402825 	move	a1,v0
9d003150:	24040003 	li	a0,3
9d003154:	0f400875 	jal	9d0021d4 <interactWithRegistersSX1231H>
9d003158:	00000000 	nop
}
9d00315c:	00000000 	nop
9d003160:	8fbf001c 	lw	ra,28(sp)
9d003164:	27bd0020 	addiu	sp,sp,32
9d003168:	03e00008 	jr	ra
9d00316c:	00000000 	nop

Disassembly of section .text.allowSleepMode:

9d003170 <allowSleepMode>:
{
9d003170:	27bdfff8 	addiu	sp,sp,-8
9d003174:	afa40008 	sw	a0,8(sp)
    volatile uint32_t *oscconAddress = &OSCCONCLR;  //Declare a pointer that points at the address of the OSCCONCLR register
9d003178:	3c02bf81 	lui	v0,0xbf81
9d00317c:	2442f004 	addiu	v0,v0,-4092
9d003180:	afa20000 	sw	v0,0(sp)
    if (enabled) oscconAddress += 0x00000001;      //Add an offset of 1 register to oscconAddress such that it points at OSCCONSET when sleep mode is requested
9d003184:	8fa20008 	lw	v0,8(sp)
9d003188:	10400004 	beqz	v0,9d00319c <allowSleepMode+0x2c>
9d00318c:	00000000 	nop
9d003190:	8fa20000 	lw	v0,0(sp)
9d003194:	24420004 	addiu	v0,v0,4
9d003198:	afa20000 	sw	v0,0(sp)
    asm volatile ("di");  //Disable interrupts before doing anything else
9d00319c:	41606000 	di
    SYSKEY = 0x00000000;  //Reset the register lock state machine by writing a 0 to it
9d0031a0:	3c02bf81 	lui	v0,0xbf81
9d0031a4:	ac40f230 	sw	zero,-3536(v0)
    SYSKEY = 0xAA996655;  //Write the first unlock key to the SYSKEY register
9d0031a8:	3c02bf81 	lui	v0,0xbf81
9d0031ac:	3c03aa99 	lui	v1,0xaa99
9d0031b0:	34636655 	ori	v1,v1,0x6655
9d0031b4:	ac43f230 	sw	v1,-3536(v0)
    SYSKEY = 0x556699AA;  //Write the second unlock key to the register to finally unlock all protected registers
9d0031b8:	3c02bf81 	lui	v0,0xbf81
9d0031bc:	3c035566 	lui	v1,0x5566
9d0031c0:	346399aa 	ori	v1,v1,0x99aa
9d0031c4:	ac43f230 	sw	v1,-3536(v0)
    *oscconAddress = 0x00000010;  //Write all 0's with Bit-4 set to either set or clear the SLPEN bit in OSCCON
9d0031c8:	8fa20000 	lw	v0,0(sp)
9d0031cc:	24030010 	li	v1,16
9d0031d0:	ac430000 	sw	v1,0(v0)
    SYSKEY = 0x00000000;  //Lock the protected registers now that the desired WAIT condition has been selected
9d0031d4:	3c02bf81 	lui	v0,0xbf81
9d0031d8:	ac40f230 	sw	zero,-3536(v0)
    asm volatile ("ei");  //Enable interrupts now that everything is ready to go
9d0031dc:	41606020 	ei
}
9d0031e0:	00000000 	nop
9d0031e4:	27bd0008 	addiu	sp,sp,8
9d0031e8:	03e00008 	jr	ra
9d0031ec:	00000000 	nop

Disassembly of section .dinit:

9d0031f0 <.dinit>:
9d0031f0:	a0000000 	sb	zero,0(zero)
9d0031f4:	0000001e 	0x1e
9d0031f8:	00000000 	nop
9d0031fc:	a0000020 	sb	zero,32(zero)
9d003200:	00000004 	sllv	zero,zero,zero
9d003204:	00000000 	nop
9d003208:	a0000024 	sb	zero,36(zero)
9d00320c:	00000002 	srl	zero,zero,0x0
9d003210:	00000000 	nop
9d003214:	a0000040 	sb	zero,64(zero)
9d003218:	00000034 	teq	zero,zero
9d00321c:	00000001 	movf	zero,zero,$fcc0
9d003220:	9d000ad4 	0x9d000ad4
9d003224:	9d000780 	0x9d000780
9d003228:	9d0007c8 	0x9d0007c8
9d00322c:	9d000848 	0x9d000848
9d003230:	9d0008bc 	0x9d0008bc
9d003234:	9d00090c 	0x9d00090c
9d003238:	9d000ad4 	0x9d000ad4
9d00323c:	9d000ad4 	0x9d000ad4
9d003240:	9d00091c 	0x9d00091c
9d003244:	9d000a28 	0x9d000a28
9d003248:	9d0009cc 	0x9d0009cc
9d00324c:	9d000a38 	0x9d000a38
9d003250:	9d000ac4 	0x9d000ac4
9d003254:	a0000028 	sb	zero,40(zero)
9d003258:	00000018 	mult	zero,zero
	...
9d003264:	66666666 	0x66666666
9d003268:	66666666 	0x66666666
9d00326c:	66666666 	0x66666666

Disassembly of section .text:

9d003270 <__dinit_copy_emb>:
9d003270:	03e00008 	jr	ra
9d003274:	00000000 	nop

9d003278 <__pic32_data_init>:
9d003278:	03e01825 	move	v1,ra

9d00327c <_dinit_init>:
9d00327c:	3c049d00 	lui	a0,0x9d00
9d003280:	248431f0 	addiu	a0,a0,12784
9d003284:	10800016 	beqz	a0,9d0032e0 <_dinit_init+0x64>
9d003288:	00000000 	nop
9d00328c:	8c850000 	lw	a1,0(a0)
9d003290:	10a00013 	beqz	a1,9d0032e0 <_dinit_init+0x64>
9d003294:	24840004 	addiu	a0,a0,4
9d003298:	8c860000 	lw	a2,0(a0)
9d00329c:	24840004 	addiu	a0,a0,4
9d0032a0:	848b0000 	lh	t3,0(a0)
9d0032a4:	24840004 	addiu	a0,a0,4
9d0032a8:	3c0c9d00 	lui	t4,0x9d00
9d0032ac:	258c3ae0 	addiu	t4,t4,15072
9d0032b0:	000b5880 	sll	t3,t3,0x2
9d0032b4:	016c6021 	addu	t4,t3,t4
9d0032b8:	8d8c0000 	lw	t4,0(t4)
9d0032bc:	0180f809 	jalr	t4
9d0032c0:	00000000 	nop
9d0032c4:	00402025 	move	a0,v0
9d0032c8:	24840003 	addiu	a0,a0,3
9d0032cc:	2406fffc 	li	a2,-4
9d0032d0:	00c42024 	and	a0,a2,a0
9d0032d4:	8c850000 	lw	a1,0(a0)
9d0032d8:	14a0ffec 	bnez	a1,9d00328c <_dinit_init+0x10>
9d0032dc:	00000000 	nop
9d0032e0:	0060f825 	move	ra,v1
9d0032e4:	03e00008 	jr	ra
9d0032e8:	00000000 	nop

Disassembly of section .text.fptoul:

9d0032ec <__fixunssfsi>:
9d0032ec:	00042a00 3c018000 00a12825 00043dc2     .*.....<%(...=..
9d0032fc:	30e700ff 2406009e 00c73023 04c0000d     ...0...$#0......
9d00330c:	00000000 28c10020 14200003 00000000     .... ..(.. .....
9d00331c:	10000005 24020000                       .......$

9d003324 <i45>:
9d003324:	04810002 	bgez	a0,9d003330 <i46>
9d003328:	00c52806 	srlv	a1,a1,a2
9d00332c:	00052823 	negu	a1,a1

9d003330 <i46>:
9d003330:	00051025 	or	v0,zero,a1

9d003334 <I999>:
9d003334:	03e00008 	jr	ra
9d003338:	00000000 	nop
9d00333c:	00000000 	nop

9d003340 <Ispec>:
9d003340:	3c017f80 	lui	at,0x7f80
9d003344:	34210001 	ori	at,at,0x1
9d003348:	0081082b 	sltu	at,a0,at
9d00334c:	14200003 	bnez	at,9d00335c <i47>
9d003350:	00000000 	nop
9d003354:	1000fff7 	b	9d003334 <I999>
9d003358:	3c028000 	lui	v0,0x8000

9d00335c <i47>:
9d00335c:	1000fff5 	b	9d003334 <I999>
9d003360:	2402ffff 	li	v0,-1
9d003364:	00000000 	nop

Disassembly of section .text.forceSign16:

9d003368 <forceSign16>:

//Force Sign 16 Function, forces the given value into it's 16-bit signed equivalent using the provided bit-depth
void forceSign16(int16_t *value, uint32_t bitDepth)
{
9d003368:	27bdfff8 	addiu	sp,sp,-8
9d00336c:	afa40008 	sw	a0,8(sp)
9d003370:	afa5000c 	sw	a1,12(sp)
    uint16_t cutoff = 0x0001 << (bitDepth - 0x00000001);  //Calculate the half way point for a signed value of the given bit depth, storing it in the cutoff variable
9d003374:	8fa2000c 	lw	v0,12(sp)
9d003378:	2442ffff 	addiu	v0,v0,-1
9d00337c:	24030001 	li	v1,1
9d003380:	00431004 	sllv	v0,v1,v0
9d003384:	a7a20000 	sh	v0,0(sp)

    if (*value & cutoff) *value -= (cutoff << 0x00000001);  //Force the value to a negative in 32-bit form when it's negative at the specified bit-depth
9d003388:	8fa20008 	lw	v0,8(sp)
9d00338c:	84420000 	lh	v0,0(v0)
9d003390:	00401825 	move	v1,v0
9d003394:	97a20000 	lhu	v0,0(sp)
9d003398:	00621024 	and	v0,v1,v0
9d00339c:	1040000c 	beqz	v0,9d0033d0 <forceSign16+0x68>
9d0033a0:	00000000 	nop
9d0033a4:	8fa20008 	lw	v0,8(sp)
9d0033a8:	84420000 	lh	v0,0(v0)
9d0033ac:	3043ffff 	andi	v1,v0,0xffff
9d0033b0:	97a20000 	lhu	v0,0(sp)
9d0033b4:	00021040 	sll	v0,v0,0x1
9d0033b8:	3042ffff 	andi	v0,v0,0xffff
9d0033bc:	00621023 	subu	v0,v1,v0
9d0033c0:	3042ffff 	andi	v0,v0,0xffff
9d0033c4:	7c021e20 	seh	v1,v0
9d0033c8:	8fa20008 	lw	v0,8(sp)
9d0033cc:	a4430000 	sh	v1,0(v0)
}
9d0033d0:	00000000 	nop
9d0033d4:	27bd0008 	addiu	sp,sp,8
9d0033d8:	03e00008 	jr	ra
9d0033dc:	00000000 	nop

Disassembly of section .text.convertToTempCFromSHT4X:

9d0033e0 <convertToTempCFromSHT4X>:
{
9d0033e0:	27bdffe8 	addiu	sp,sp,-24
9d0033e4:	afbf0014 	sw	ra,20(sp)
9d0033e8:	afa40018 	sw	a0,24(sp)
    return ((float) *rawSensorValue / 65535.0F * 175.0F) - 45.0F;  //Calculate the temperature in Celsius
9d0033ec:	8fa20018 	lw	v0,24(sp)
9d0033f0:	94420000 	lhu	v0,0(v0)
9d0033f4:	00402025 	move	a0,v0
9d0033f8:	0f400e0b 	jal	9d00382c <__floatunsisf>
9d0033fc:	00000000 	nop
9d003400:	00401825 	move	v1,v0
9d003404:	3c029d00 	lui	v0,0x9d00
9d003408:	8c453a18 	lw	a1,14872(v0)
9d00340c:	00602025 	move	a0,v1
9d003410:	0f400413 	jal	9d00104c <__divsf3>
9d003414:	00000000 	nop
9d003418:	00401825 	move	v1,v0
9d00341c:	3c029d00 	lui	v0,0x9d00
9d003420:	8c453a1c 	lw	a1,14876(v0)
9d003424:	00602025 	move	a0,v1
9d003428:	0f400630 	jal	9d0018c0 <__mulsf3>
9d00342c:	00000000 	nop
9d003430:	00401825 	move	v1,v0
9d003434:	3c029d00 	lui	v0,0x9d00
9d003438:	8c453a20 	lw	a1,14880(v0)
9d00343c:	00602025 	move	a0,v1
9d003440:	0f400375 	jal	9d000dd4 <__subsf3>
9d003444:	00000000 	nop
}
9d003448:	8fbf0014 	lw	ra,20(sp)
9d00344c:	27bd0018 	addiu	sp,sp,24
9d003450:	03e00008 	jr	ra
9d003454:	00000000 	nop

Disassembly of section .text.forceSign32:

9d003458 <forceSign32>:

//Force Sign 32 Function, forces the given value into it's 32-bit signed equivalent using the provided bit-depth
void forceSign32(int32_t *value, uint32_t bitDepth)
{
9d003458:	27bdfff8 	addiu	sp,sp,-8
9d00345c:	afa40008 	sw	a0,8(sp)
9d003460:	afa5000c 	sw	a1,12(sp)
    uint32_t cutoff = 0x00000001 << (bitDepth - 0x00000001);  //Calculate the half way point for a signed value of the given bit depth, storing it in the cutoff variable
9d003464:	8fa2000c 	lw	v0,12(sp)
9d003468:	2442ffff 	addiu	v0,v0,-1
9d00346c:	24030001 	li	v1,1
9d003470:	00431004 	sllv	v0,v1,v0
9d003474:	afa20000 	sw	v0,0(sp)

    if (*value & cutoff) *value -= (cutoff << 0x00000001);  //Force the value to a negative in 32-bit form when it's negative at the specified bit-depth
9d003478:	8fa20008 	lw	v0,8(sp)
9d00347c:	8c420000 	lw	v0,0(v0)
9d003480:	00401825 	move	v1,v0
9d003484:	8fa20000 	lw	v0,0(sp)
9d003488:	00621024 	and	v0,v1,v0
9d00348c:	1040000a 	beqz	v0,9d0034b8 <forceSign32+0x60>
9d003490:	00000000 	nop
9d003494:	8fa20008 	lw	v0,8(sp)
9d003498:	8c420000 	lw	v0,0(v0)
9d00349c:	00401825 	move	v1,v0
9d0034a0:	8fa20000 	lw	v0,0(sp)
9d0034a4:	00021040 	sll	v0,v0,0x1
9d0034a8:	00621023 	subu	v0,v1,v0
9d0034ac:	00401825 	move	v1,v0
9d0034b0:	8fa20008 	lw	v0,8(sp)
9d0034b4:	ac430000 	sw	v1,0(v0)
}
9d0034b8:	00000000 	nop
9d0034bc:	27bd0008 	addiu	sp,sp,8
9d0034c0:	03e00008 	jr	ra
9d0034c4:	00000000 	nop

Disassembly of section .text.setDIOMappingsSX1231H:

9d0034c8 <setDIOMappingsSX1231H>:
{
9d0034c8:	27bdffe0 	addiu	sp,sp,-32
9d0034cc:	afbf001c 	sw	ra,28(sp)
9d0034d0:	afa40020 	sw	a0,32(sp)
    registerValues[0x00000000] = (newMappings >> 0x00000002) & 0x000000FF;               //Bits 2 through 10 of newMappings are to make up the contents of the first data byte
9d0034d4:	8fa20020 	lw	v0,32(sp)
9d0034d8:	00021082 	srl	v0,v0,0x2
9d0034dc:	304200ff 	andi	v0,v0,0xff
9d0034e0:	a3a20010 	sb	v0,16(sp)
    registerValues[0x00000001] = (newMappings << 0x00000004) & 0x000000C0 | 0x00000007;  //Bits 0 through 1 of newMappings combined with 0x07 make up the second data byte
9d0034e4:	8fa20020 	lw	v0,32(sp)
9d0034e8:	304200ff 	andi	v0,v0,0xff
9d0034ec:	00021100 	sll	v0,v0,0x4
9d0034f0:	304200ff 	andi	v0,v0,0xff
9d0034f4:	7c022804 	ins	v0,zero,0x0,0x6
9d0034f8:	304200ff 	andi	v0,v0,0xff
9d0034fc:	34420007 	ori	v0,v0,0x7
9d003500:	304200ff 	andi	v0,v0,0xff
9d003504:	a3a20011 	sb	v0,17(sp)
    interactWithRegistersSX1231H(REGADDR_DIOMAPPING1, registerValues, 0x00000002, 0x00000000);  //Write the 2 bytes to the transceiver IC starting at the DioMapping1 register
9d003508:	00003825 	move	a3,zero
9d00350c:	24060002 	li	a2,2
9d003510:	27a20010 	addiu	v0,sp,16
9d003514:	00402825 	move	a1,v0
9d003518:	24040025 	li	a0,37
9d00351c:	0f400875 	jal	9d0021d4 <interactWithRegistersSX1231H>
9d003520:	00000000 	nop
}
9d003524:	00000000 	nop
9d003528:	8fbf001c 	lw	ra,28(sp)
9d00352c:	27bd0020 	addiu	sp,sp,32
9d003530:	03e00008 	jr	ra
9d003534:	00000000 	nop

Disassembly of section .text.setDeviceModeSX1231H:

9d003538 <setDeviceModeSX1231H>:
{
9d003538:	27bdffe0 	addiu	sp,sp,-32
9d00353c:	afbf001c 	sw	ra,28(sp)
9d003540:	afa40020 	sw	a0,32(sp)
    if (newMode == MODE_RESERVED) return;  //Just leave if trying to set the mode of the transceiver to something invalid
9d003544:	8fa30020 	lw	v1,32(sp)
9d003548:	24020005 	li	v0,5
9d00354c:	1062000f 	beq	v1,v0,9d00358c <setDeviceModeSX1231H+0x54>
9d003550:	00000000 	nop
    uint8_t registerValue = newMode << 0x00000002;                                         //Write the value of the newMode enum to the registerValue variable and shift it to the left by 2 bits
9d003554:	8fa20020 	lw	v0,32(sp)
9d003558:	304200ff 	andi	v0,v0,0xff
9d00355c:	00021080 	sll	v0,v0,0x2
9d003560:	304200ff 	andi	v0,v0,0xff
9d003564:	a3a20010 	sb	v0,16(sp)
    interactWithRegistersSX1231H(REGADDR_OPMODE, &registerValue, 0x00000001, 0x00000000);  //Send the configuration byte to the transceiver IC
9d003568:	00003825 	move	a3,zero
9d00356c:	24060001 	li	a2,1
9d003570:	27a20010 	addiu	v0,sp,16
9d003574:	00402825 	move	a1,v0
9d003578:	24040001 	li	a0,1
9d00357c:	0f400875 	jal	9d0021d4 <interactWithRegistersSX1231H>
9d003580:	00000000 	nop
9d003584:	10000002 	b	9d003590 <setDeviceModeSX1231H+0x58>
9d003588:	00000000 	nop
    if (newMode == MODE_RESERVED) return;  //Just leave if trying to set the mode of the transceiver to something invalid
9d00358c:	00000000 	nop
}
9d003590:	8fbf001c 	lw	ra,28(sp)
9d003594:	27bd0020 	addiu	sp,sp,32
9d003598:	03e00008 	jr	ra
9d00359c:	00000000 	nop

Disassembly of section .text.sendCommandSSD1803A:

9d0035a0 <sendCommandSSD1803A>:
{
9d0035a0:	27bdffe0 	addiu	sp,sp,-32
9d0035a4:	afbf001c 	sw	ra,28(sp)
9d0035a8:	00801025 	move	v0,a0
9d0035ac:	a3a20020 	sb	v0,32(sp)
    outputBytes[0x00000000] = 0xFF;     //Set the first byte of the sequence to 0, this indicates the next byte will be an instruction
9d0035b0:	2402ffff 	li	v0,-1
9d0035b4:	a3a20010 	sb	v0,16(sp)
    outputBytes[0x00000001] = command;  //Copy the desired command byte into the sequence
9d0035b8:	93a20020 	lbu	v0,32(sp)
9d0035bc:	a3a20011 	sb	v0,17(sp)
    while (outputBytes[0x00000000]--);
9d0035c0:	00000000 	nop
9d0035c4:	93a20010 	lbu	v0,16(sp)
9d0035c8:	2443ffff 	addiu	v1,v0,-1
9d0035cc:	306300ff 	andi	v1,v1,0xff
9d0035d0:	a3a30010 	sb	v1,16(sp)
9d0035d4:	1440fffb 	bnez	v0,9d0035c4 <sendCommandSSD1803A+0x24>
9d0035d8:	00000000 	nop
    *outputBytes = 0x00;
9d0035dc:	a3a00010 	sb	zero,16(sp)
    return writeToI2C(SSD1803A_I2C_ADDR, outputBytes, 0x00000002);  //Try and send the byte sequence to the LCD controller and return the result
9d0035e0:	24060002 	li	a2,2
9d0035e4:	27a20010 	addiu	v0,sp,16
9d0035e8:	00402825 	move	a1,v0
9d0035ec:	2404003c 	li	a0,60
9d0035f0:	0f4008c8 	jal	9d002320 <writeToI2C>
9d0035f4:	00000000 	nop
}
9d0035f8:	8fbf001c 	lw	ra,28(sp)
9d0035fc:	27bd0020 	addiu	sp,sp,32
9d003600:	03e00008 	jr	ra
9d003604:	00000000 	nop

Disassembly of section .text.putCursorSSD1803A:

9d003608 <putCursorSSD1803A>:
{
9d003608:	27bdffe8 	addiu	sp,sp,-24
9d00360c:	afbf0014 	sw	ra,20(sp)
9d003610:	afa40018 	sw	a0,24(sp)
    if (!functionSetSSD1803A((SSD1803A_registers_t) statusRegister_SSD1803A & 0x00000001)) return 0x00000000;  //Try selecting the regular register set on the LCD controller
9d003614:	8f828030 	lw	v0,-32720(gp)
9d003618:	30420001 	andi	v0,v0,0x1
9d00361c:	00402025 	move	a0,v0
9d003620:	0f400709 	jal	9d001c24 <functionSetSSD1803A>
9d003624:	00000000 	nop
9d003628:	14400004 	bnez	v0,9d00363c <putCursorSSD1803A+0x34>
9d00362c:	00000000 	nop
9d003630:	00001025 	move	v0,zero
9d003634:	10000009 	b	9d00365c <putCursorSSD1803A+0x54>
9d003638:	00000000 	nop
    return sendCommandSSD1803A((newCursorPosition & 0x0000007F) | 0x00000080);                                 //Change the DDRAM address on the controller to the requested address
9d00363c:	8fa20018 	lw	v0,24(sp)
9d003640:	304300ff 	andi	v1,v0,0xff
9d003644:	2402ff80 	li	v0,-128
9d003648:	00621025 	or	v0,v1,v0
9d00364c:	304200ff 	andi	v0,v0,0xff
9d003650:	00402025 	move	a0,v0
9d003654:	0f400d68 	jal	9d0035a0 <sendCommandSSD1803A>
9d003658:	00000000 	nop
}
9d00365c:	8fbf0014 	lw	ra,20(sp)
9d003660:	27bd0018 	addiu	sp,sp,24
9d003664:	03e00008 	jr	ra
9d003668:	00000000 	nop

Disassembly of section .text.getRssiSX1231H:

9d00366c <getRssiSX1231H>:
{
9d00366c:	27bdffe0 	addiu	sp,sp,-32
9d003670:	afbf001c 	sw	ra,28(sp)
    uint8_t registerValue = 0x00;                                                             //Create a buffer variable to use for storing the read byte
9d003674:	a3a00014 	sb	zero,20(sp)
    interactWithRegistersSX1231H(REGADDR_RSSIVALUE, &registerValue, 0x00000001, 0xFFFFFFFF);  //Read the contents of the RegRssiValue register from the transceiver
9d003678:	27a20014 	addiu	v0,sp,20
9d00367c:	2407ffff 	li	a3,-1
9d003680:	24060001 	li	a2,1
9d003684:	00402825 	move	a1,v0
9d003688:	24040024 	li	a0,36
9d00368c:	0f400875 	jal	9d0021d4 <interactWithRegistersSX1231H>
9d003690:	00000000 	nop
    float calculatedRSSI = (float) registerValue;  //Convert the obtained value into a float and store it in a buffer
9d003694:	93a20014 	lbu	v0,20(sp)
9d003698:	00402025 	move	a0,v0
9d00369c:	0f400e0b 	jal	9d00382c <__floatunsisf>
9d0036a0:	00000000 	nop
9d0036a4:	afa20010 	sw	v0,16(sp)
    return calculatedRSSI / -2.0F;                 //Return the calculated RSSI value in dBm
9d0036a8:	3c029d00 	lui	v0,0x9d00
9d0036ac:	8c453a54 	lw	a1,14932(v0)
9d0036b0:	8fa40010 	lw	a0,16(sp)
9d0036b4:	0f400413 	jal	9d00104c <__divsf3>
9d0036b8:	00000000 	nop
}
9d0036bc:	8fbf001c 	lw	ra,28(sp)
9d0036c0:	27bd0020 	addiu	sp,sp,32
9d0036c4:	03e00008 	jr	ra
9d0036c8:	00000000 	nop

Disassembly of section .text.sitofp:

9d0036cc <__floatsisf>:
9d0036cc:	3c018000 10800012 00813024 04810002     ...<....$0......
9d0036dc:	00000000 00042023                       ....# ..

9d0036e4 <i40>:
9d0036e4:	2405009e 	li	a1,158
9d0036e8:	70873820 	clz	a3,a0
9d0036ec:	00a72823 	subu	a1,a1,a3
9d0036f0:	00e42004 	sllv	a0,a0,a3
9d0036f4:	24840080 	addiu	a0,a0,128
9d0036f8:	2c880080 	sltiu	t0,a0,128
9d0036fc:	00a82821 	addu	a1,a1,t0
9d003700:	00044203 	sra	t0,a0,0x8
9d003704:	31080001 	andi	t0,t0,0x1
9d003708:	00882023 	subu	a0,a0,t0
9d00370c:	00042040 	sll	a0,a0,0x1
9d003710:	00042242 	srl	a0,a0,0x9
9d003714:	000545c0 	sll	t0,a1,0x17
9d003718:	00882025 	or	a0,a0,t0

9d00371c <i39>:
9d00371c:	00861025 	or	v0,a0,a2

9d003720 <E999>:
9d003720:	03e00008 	jr	ra
9d003724:	00000000 	nop
9d003728:	00000000 	nop

Disassembly of section .text.getResultStatusDPS368:

9d00372c <getResultStatusDPS368>:
{
9d00372c:	27bdffe0 	addiu	sp,sp,-32
9d003730:	afbf001c 	sw	ra,28(sp)
    uint8_t dataBuffer = 0x08;  //Address of the MEAS_CFG register on the sensor
9d003734:	24020008 	li	v0,8
9d003738:	a3a20010 	sb	v0,16(sp)
    if (!readFromI2C(DPS368_I2C_ADDR, &dataBuffer, 0x00000001, 0x00000001)) return NONE;  //Attempt to read the contents of the MEAS_CFG register on the sensor
9d00373c:	24070001 	li	a3,1
9d003740:	24060001 	li	a2,1
9d003744:	27a20010 	addiu	v0,sp,16
9d003748:	00402825 	move	a1,v0
9d00374c:	24040076 	li	a0,118
9d003750:	0f40069f 	jal	9d001a7c <readFromI2C>
9d003754:	00000000 	nop
9d003758:	14400004 	bnez	v0,9d00376c <getResultStatusDPS368+0x40>
9d00375c:	00000000 	nop
9d003760:	00001025 	move	v0,zero
9d003764:	10000004 	b	9d003778 <getResultStatusDPS368+0x4c>
9d003768:	00000000 	nop
    return (DPS368_resultStatus_t) (dataBuffer & 0x30) >> 0x00000004;  //Return the obtained measurement status enum
9d00376c:	93a20010 	lbu	v0,16(sp)
9d003770:	00021102 	srl	v0,v0,0x4
9d003774:	30420003 	andi	v0,v0,0x3
}
9d003778:	8fbf001c 	lw	ra,28(sp)
9d00377c:	27bd0020 	addiu	sp,sp,32
9d003780:	03e00008 	jr	ra
9d003784:	00000000 	nop

Disassembly of section .text.main_entry:

9d003788 <_main_entry>:
9d003788:	3c040000 	lui	a0,0x0
9d00378c:	27bdffe8 	addiu	sp,sp,-24
9d003790:	24840000 	addiu	a0,a0,0
9d003794:	10800003 	beqz	a0,9d0037a4 <_main_entry+0x1c>
9d003798:	afbf0014 	sw	ra,20(sp)
9d00379c:	0080f809 	jalr	a0
9d0037a0:	00000000 	nop
9d0037a4:	30840000 	andi	a0,a0,0x0
9d0037a8:	30a50000 	andi	a1,a1,0x0
9d0037ac:	3c089d00 	lui	t0,0x9d00
9d0037b0:	25082648 	addiu	t0,t0,9800
9d0037b4:	0100f809 	jalr	t0
9d0037b8:	00000000 	nop

9d0037bc <__crt0_exit>:
9d0037bc:	3c020000 24420000 10400003 00000000     ...<..B$..@.....
9d0037cc:	0040f809 00000000 1000fff9 00000000     ..@.............

Disassembly of section .text.setModeDPS368:

9d0037dc <setModeDPS368>:
{
9d0037dc:	27bdffe0 	addiu	sp,sp,-32
9d0037e0:	afbf001c 	sw	ra,28(sp)
9d0037e4:	afa40020 	sw	a0,32(sp)
    uint8_t dataBuffer[0x00000002] = {0x08, newMode & 0x07};  //Form the data bytes that will be sent to the sensor to select the desired operating mode
9d0037e8:	24020008 	li	v0,8
9d0037ec:	a3a20010 	sb	v0,16(sp)
9d0037f0:	8fa20020 	lw	v0,32(sp)
9d0037f4:	304200ff 	andi	v0,v0,0xff
9d0037f8:	30420007 	andi	v0,v0,0x7
9d0037fc:	304200ff 	andi	v0,v0,0xff
9d003800:	a3a20011 	sb	v0,17(sp)
    return writeToI2C(DPS368_I2C_ADDR, dataBuffer, 0x00000002);  //Send the configuration bytes to the sensor over I2C and return the success status of the write operation
9d003804:	24060002 	li	a2,2
9d003808:	27a20010 	addiu	v0,sp,16
9d00380c:	00402825 	move	a1,v0
9d003810:	24040076 	li	a0,118
9d003814:	0f4008c8 	jal	9d002320 <writeToI2C>
9d003818:	00000000 	nop
}
9d00381c:	8fbf001c 	lw	ra,28(sp)
9d003820:	27bd0020 	addiu	sp,sp,32
9d003824:	03e00008 	jr	ra
9d003828:	00000000 	nop

Disassembly of section .text:

9d00382c <__floatunsisf>:
9d00382c:	27bdffe8 	addiu	sp,sp,-24
9d003830:	0481000c 	bgez	a0,9d003864 <__floatunsisf+0x38>
9d003834:	afbf0014 	sw	ra,20(sp)
9d003838:	00801025 	move	v0,a0
9d00383c:	00021042 	srl	v0,v0,0x1
9d003840:	30840001 	andi	a0,a0,0x1
9d003844:	0f400db3 	jal	9d0036cc <__floatsisf>
9d003848:	00822025 	or	a0,a0,v0
9d00384c:	00402825 	move	a1,v0
9d003850:	0f400377 	jal	9d000ddc <__addsf3>
9d003854:	00402025 	move	a0,v0
9d003858:	8fbf0014 	lw	ra,20(sp)
9d00385c:	03e00008 	jr	ra
9d003860:	27bd0018 	addiu	sp,sp,24
9d003864:	0f400db3 	jal	9d0036cc <__floatsisf>
9d003868:	00000000 	nop
9d00386c:	1000fffb 	b	9d00385c <__floatunsisf+0x30>
9d003870:	8fbf0014 	lw	ra,20(sp)

Disassembly of section .text._bootstrap_exception_handler:

9d003874 <_bootstrap_exception_handler>:
9d003874:	3c020000 	lui	v0,0x0
9d003878:	24420000 	addiu	v0,v0,0
9d00387c:	10400005 	beqz	v0,9d003894 <_bootstrap_exception_handler+0x20>
9d003880:	3c020000 	lui	v0,0x0
9d003884:	24420000 	addiu	v0,v0,0
9d003888:	10400003 	beqz	v0,9d003898 <_bootstrap_exception_handler+0x24>
9d00388c:	3c029d00 	lui	v0,0x9d00
9d003890:	7000003f 	sdbbp
9d003894:	3c029d00 	lui	v0,0x9d00
9d003898:	2442394c 	addiu	v0,v0,14668
9d00389c:	10400005 	beqz	v0,9d0038b4 <_bootstrap_exception_handler+0x40>
9d0038a0:	00000000 	nop
9d0038a4:	27bdffe8 	addiu	sp,sp,-24
9d0038a8:	afbf0014 	sw	ra,20(sp)
9d0038ac:	0040f809 	jalr	v0
9d0038b0:	00000000 	nop
9d0038b4:	1000ffff 	b	9d0038b4 <_bootstrap_exception_handler+0x40>
9d0038b8:	00000000 	nop

Disassembly of section .text._general_exception_handler:

9d0038bc <_general_exception_handler>:
9d0038bc:	3c020000 	lui	v0,0x0
9d0038c0:	24420000 	addiu	v0,v0,0
9d0038c4:	10400005 	beqz	v0,9d0038dc <_general_exception_handler+0x20>
9d0038c8:	3c020000 	lui	v0,0x0
9d0038cc:	24420000 	addiu	v0,v0,0
9d0038d0:	10400003 	beqz	v0,9d0038e0 <_general_exception_handler+0x24>
9d0038d4:	3c029d00 	lui	v0,0x9d00
9d0038d8:	7000003f 	sdbbp
9d0038dc:	3c029d00 	lui	v0,0x9d00
9d0038e0:	2442394c 	addiu	v0,v0,14668
9d0038e4:	10400005 	beqz	v0,9d0038fc <_general_exception_handler+0x40>
9d0038e8:	00000000 	nop
9d0038ec:	27bdffe8 	addiu	sp,sp,-24
9d0038f0:	afbf0014 	sw	ra,20(sp)
9d0038f4:	0040f809 	jalr	v0
9d0038f8:	00000000 	nop
9d0038fc:	1000ffff 	b	9d0038fc <_general_exception_handler+0x40>
9d003900:	00000000 	nop

Disassembly of section .vector_default:

9d003904 <_DefaultInterrupt>:
9d003904:	3c020000 	lui	v0,0x0
9d003908:	24420000 	addiu	v0,v0,0
9d00390c:	10400007 	beqz	v0,9d00392c <_DefaultInterrupt+0x28>
9d003910:	3c020000 	lui	v0,0x0
9d003914:	24420000 	addiu	v0,v0,0
9d003918:	50400005 	beqzl	v0,9d003930 <_DefaultInterrupt+0x2c>
9d00391c:	3c029d00 	lui	v0,0x9d00
9d003920:	7000003f 	sdbbp
9d003924:	03e00008 	jr	ra
9d003928:	00000000 	nop
9d00392c:	3c029d00 	lui	v0,0x9d00
9d003930:	2442394c 	addiu	v0,v0,14668
9d003934:	10400003 	beqz	v0,9d003944 <_DefaultInterrupt+0x40>
9d003938:	00000000 	nop
9d00393c:	0040f809 	jalr	v0
9d003940:	00000000 	nop
9d003944:	03e00008 	jr	ra
9d003948:	00000000 	nop

Disassembly of section .text:

9d00394c <__pic32_software_reset>:
9d00394c:	41606000 	di
9d003950:	000000c0 	ehb
9d003954:	3c03aa99 	lui	v1,0xaa99
9d003958:	3c02bf81 	lui	v0,0xbf81
9d00395c:	24636655 	addiu	v1,v1,26197
9d003960:	ac40f230 	sw	zero,-3536(v0)
9d003964:	ac43f230 	sw	v1,-3536(v0)
9d003968:	3c035566 	lui	v1,0x5566
9d00396c:	346399aa 	ori	v1,v1,0x99aa
9d003970:	ac43f230 	sw	v1,-3536(v0)
9d003974:	3c02bf81 	lui	v0,0xbf81
9d003978:	24030001 	li	v1,1
9d00397c:	ac43f618 	sw	v1,-2536(v0)
9d003980:	3c02bf81 	lui	v0,0xbf81
9d003984:	8c42f610 	lw	v0,-2544(v0)
9d003988:	0b400e55 	j	9d003954 <__pic32_software_reset+0x8>
9d00398c:	00000000 	nop

Disassembly of section .text.getResultsFromFifoDPS368:

9d003990 <getResultsFromFifoDPS368>:
{
9d003990:	27bdffe8 	addiu	sp,sp,-24
9d003994:	afbf0014 	sw	ra,20(sp)
9d003998:	afa40018 	sw	a0,24(sp)
9d00399c:	afa5001c 	sw	a1,28(sp)
    return getResultsAtAddressDPS368(0x00, rawResults, count);  //Read the desired number of 24-bit result values from the sensors FIFO buffer
9d0039a0:	8fa6001c 	lw	a2,28(sp)
9d0039a4:	8fa50018 	lw	a1,24(sp)
9d0039a8:	00002025 	move	a0,zero
9d0039ac:	0f40076b 	jal	9d001dac <getResultsAtAddressDPS368>
9d0039b0:	00000000 	nop
}
9d0039b4:	8fbf0014 	lw	ra,20(sp)
9d0039b8:	27bd0018 	addiu	sp,sp,24
9d0039bc:	03e00008 	jr	ra
9d0039c0:	00000000 	nop

Disassembly of section .text.requestMeasurementSHT4X:

9d0039c4 <requestMeasurementSHT4X>:
{
9d0039c4:	27bdffe8 	addiu	sp,sp,-24
9d0039c8:	afbf0014 	sw	ra,20(sp)
9d0039cc:	afa40018 	sw	a0,24(sp)
    return writeToI2C(SHT4X_I2C_ADDR, ((uint8_t *) &operation), 0x00000001);  //Send the command to the sensor and then return the success status of the I2C interaction with the sensor
9d0039d0:	24060001 	li	a2,1
9d0039d4:	27a50018 	addiu	a1,sp,24
9d0039d8:	24040044 	li	a0,68
9d0039dc:	0f4008c8 	jal	9d002320 <writeToI2C>
9d0039e0:	00000000 	nop
}
9d0039e4:	8fbf0014 	lw	ra,20(sp)
9d0039e8:	27bd0018 	addiu	sp,sp,24
9d0039ec:	03e00008 	jr	ra
9d0039f0:	00000000 	nop

Disassembly of section .rodata:

9d0039f4 <dps368Cal_scalingFactors>:
9d0039f4:	00080000 00180000 00380000 00780000     ..........8...x.
9d003a04:	0003e000 0007e000 000fe000 001fe000     ................
9d003a14:	3f000000 477fff00 432f0000 42340000     ...?...G../C..4B
9d003a24:	439d8000 42440000 42fa0000 40c00000     ...C..DB...B...@
9d003a34:	42c80000                                ...B

Disassembly of section .rodata:

9d003a38 <SX1231H_Init>:
9d003a38:	07404c80 59a80700 4f4c4c45 80000057     .L@....YELLOW...
9d003a48:	00000040 002d028f 42742400 c0000000     @.....-..$tB....

Disassembly of section .text:

9d003a58 <__dinit_copy>:
9d003a58:	908c0000 	lbu	t4,0(a0)
9d003a5c:	24c6ffff 	addiu	a2,a2,-1
9d003a60:	24840001 	addiu	a0,a0,1
9d003a64:	a0ac0000 	sb	t4,0(a1)
9d003a68:	14c0fffb 	bnez	a2,9d003a58 <__dinit_copy>
9d003a6c:	24a50001 	addiu	a1,a1,1
9d003a70:	03e00008 	jr	ra
9d003a74:	00801025 	move	v0,a0

Disassembly of section .text.initializeApplication:

9d003a78 <initializeApplication>:
    sensorThreadState = SENSOR_START_MEASUREMENTS;  //Start the sensor thread in the SENSOR_START_MEASUREMENTS state
9d003a78:	24020001 	li	v0,1
9d003a7c:	af828038 	sw	v0,-32712(gp)
    radioThreadState = RADIO_START_RX;              //Start the radio thread in the RADIO_SLEEP state
9d003a80:	24020004 	li	v0,4
9d003a84:	af82803c 	sw	v0,-32708(gp)
}
9d003a88:	00000000 	nop
9d003a8c:	03e00008 	jr	ra
9d003a90:	00000000 	nop

Disassembly of section .text:

9d003ab0 <_nmi_handler>:
9d003ab0:	401a6000 	mfc0	k0,c0_status
9d003ab4:	3c1bffbf 	lui	k1,0xffbf
9d003ab8:	377bffff 	ori	k1,k1,0xffff
9d003abc:	035bd024 	and	k0,k0,k1
9d003ac0:	409a6000 	mtc0	k0,c0_status
9d003ac4:	42000018 	eret

9d003ac8 <__dinit_clear>:
9d003ac8:	24c6ffff 	addiu	a2,a2,-1
9d003acc:	a0a00000 	sb	zero,0(a1)
9d003ad0:	14c0fffd 	bnez	a2,9d003ac8 <__dinit_clear>
9d003ad4:	24a50001 	addiu	a1,a1,1
9d003ad8:	03e00008 	jr	ra
9d003adc:	00801025 	move	v0,a0

Disassembly of section .rodata:

9d003ae0 <_dinit_func_table>:
9d003ae0:	9d003ac8 9d003a58 9d003270 9d003270     .:..X:..p2..p2..
9d003af0:	9d003270                                p2..

9d003af4 <SSD1803A_Init>:
9d003af4:	06013838 7056390c 3c380209              88...9Vp..8<

Disassembly of section .rodata:

9d003b00 <.rodata>:
9d003b00:	20616579 	addi	at,v1,25977
9d003b04:	006c6f6c 	0x6c6f6c
9d003b08:	006c6f6c 	0x6c6f6c

Disassembly of section .text._on_reset:

9d003b0c <_on_reset>:
9d003b0c:	03e00008 	jr	ra
9d003b10:	00000000 	nop

Disassembly of section .text._on_bootstrap:

9d003b14 <_on_bootstrap>:
9d003b14:	03e00008 	jr	ra
9d003b18:	00000000 	nop

Disassembly of section .rodata:

9d003a94 <.rodata>:
9d003a94:	42c80000 	c0	0xc80000
